

Microchip Technology PIC LITE Macro Assembler V2.00 build -1524193055 
                                                                                               Thu Oct 31 14:10:43 2019

Microchip Technology Omniscient Code Generator v2.00 (Free mode) build 20180527130849
     1  0000                     
      + 0000                     
     2                           ; Version 2.00
     3                           ; Generated 27/05/2018 GMT
     4                           
     5                           ; 
     6                           ; Copyright © 2018, Microchip Technology Inc. and its subsidiaries ("Microchip")
     7                           ; All rights reserved.
     8                           ; 
     9                           ; This software is developed by Microchip Technology Inc. and its subsidiaries ("Microch
                                 ip").
    10                           ; 
    11                           ; Redistribution and use in source and binary forms, with or without modification, are
    12                           ; permitted provided that the following conditions are met:
    13                           ; 
    14                           ;     1. Redistributions of source code must retain the above copyright notice, this lis
                                 t of
    15                           ;        conditions and the following disclaimer.
    16                           ; 
    17                           ;     2. Redistributions in binary form must reproduce the above copyright notice, this 
                                 list
    18                           ;        of conditions and the following disclaimer in the documentation and/or other
    19                           ;        materials provided with the distribution.
    20                           ; 
    21                           ;     3. Microchip's name may not be used to endorse or promote products derived from th
                                 is
    22                           ;        software without specific prior written permission.
    23                           ; 
    24                           ; THIS SOFTWARE IS PROVIDED BY MICROCHIP "AS IS" AND ANY EXPRESS OR IMPLIED WARRANTIES,

    25                           ; INCLUDING, BUT NOT LIMITED TO, THE IMPLIED WARRANTIES OF MERCHANTABILITY AND FITNESS F
                                 OR
    26                           ; PURPOSE ARE DISCLAIMED.  IN NO EVENT SHALL MICROCHIP BE LIABLE FOR ANY DIRECT, INDIREC
                                 T,
    27                           ; INCIDENTAL, SPECIAL, EXEMPLARY, OR CONSEQUENTIAL DAMAGES (INCLUDING BUT NOT LIMITED TO
                                 
    28                           ; PROCUREMENT OF SUBSTITUTE GOODS OR SERVICES; LOSS OF USE, DATA OR PROFITS; OR BUSINESS
                                 
    29                           ; INTERRUPTION) HOWSOEVER CAUSED AND ON ANY THEORY OF LIABILITY, WHETHER IN CONTRACT, ST
                                 RICT
    30                           ; LIABILITY, OR TORT (INCLUDING NEGLIGENCE OR OTHERWISE) ARISING IN ANY WAY OUT OF THE U
                                 SE OF
    31                           ; THIS SOFTWARE, EVEN IF ADVISED OF THE POSSIBILITY OF SUCH DAMAGE.
    32                           ; 
    33                           
    34                           
    35                           ; 
    36                           ; Code-generator required, PIC16F877A Definitions
    37                           ; 
    38  0004                     fsr0 equ 04h
    39  0004                     indf equ 00h
    40  0000                     indf0 equ 00h
    41  0000                     pc equ 02h
    42  0002                     pcl equ 02h
    43  0002                     pclath equ 0Ah
    44  000A                     status equ 03h
    45  0003                     
     2                           opt pagewidth 120
     3  0000                     byte0	macro	val
     4                           	(getbyte(val,0))
     5                           endm
     6  0000                     byte1	macro	val
     7                           	(getbyte(val,1))
     8                           endm
     9  0000                     byte2	macro	val
    10                           	(getbyte(val,2))
    11                           endm
    12  0000                     byte3	macro	val
    13                           	(getbyte(val,3))
    14                           endm
    15  0000                     byte4	macro	val
    16                           	(getbyte(val,4))
    17                           endm
    18  0000                     byte5	macro	val
    19                           	(getbyte(val,5))
    20                           endm
    21  0000                     byte6	macro	val
    22                           	(getbyte(val,6))
    23                           endm
    24  0000                     byte7	macro	val
    25                           	(getbyte(val,7))
    26                           endm
    27  0000                     getword	macro	val,pos
    28                           	(((val) >> (8 * pos)) and 0xffff)
    29                           endm
    30  0000                     word0	macro	val
    31                           	(getword(val,0))
    32                           endm
    33  0000                     word1	macro	val
    34                           	(getword(val,2))
    35                           endm
    36  0000                     word2	macro	val
    37                           	(getword(val,4))
    38                           endm
    39  0000                     word3	macro	val
    40                           	(getword(val,6))
    41                           endm
    42  0000                     gettword	macro	val,pos
    43                           	(((val) >> (8 * pos)) and 0xffffff)
    44                           endm
    45  0000                     tword0	macro	val
    46                           	(gettword(val,0))
    47                           endm
    48  0000                     tword1	macro	val
    49                           	(gettword(val,3))
    50                           endm
    51  0000                     tword2	macro	val
    52                           	(gettword(val,6))
    53                           endm
    54  0000                     getdword	macro	val,pos
    55                           	(((val) >> (8 * pos)) and 0xffffffff)
    56                           endm
    57  0000                     dword0	macro	val
    58                           	(getdword(val,0))
    59                           endm
    60  0000                     dword1	macro	val
    61                           	(getdword(val,4))
    62                           endm
    63  0000                     clrc	macro
    64                           	bcf	3,0
    65                           	endm
    66  0000                     clrz	macro
    67                           	bcf	3,2
    68                           	endm
    69  0000                     setc	macro
    70                           	bsf	3,0
    71                           	endm
    72  0000                     setz	macro
    73                           	bsf	3,2
    74                           	endm
    75  0000                     skipc	macro
    76                           	btfss	3,0
    77                           	endm
    78  0000                     skipz	macro
    79                           	btfss	3,2
    80                           	endm
    81  0000                     skipnc	macro
    82                           	btfsc	3,0
    83                           	endm
    84  0000                     skipnz	macro
    85                           	btfsc	3,2
    86                           	endm
    87  0000                     # 54 "C:\Program Files (x86)\Microchip\xc8\v2.00\pic\include\pic16f877a.h"
    88                           INDF equ 00h ;# 
    89  0000                     # 61 "C:\Program Files (x86)\Microchip\xc8\v2.00\pic\include\pic16f877a.h"
    90                           TMR0 equ 01h ;# 
    91  0001                     # 68 "C:\Program Files (x86)\Microchip\xc8\v2.00\pic\include\pic16f877a.h"
    92                           PCL equ 02h ;# 
    93  0002                     # 75 "C:\Program Files (x86)\Microchip\xc8\v2.00\pic\include\pic16f877a.h"
    94                           STATUS equ 03h ;# 
    95  0003                     # 161 "C:\Program Files (x86)\Microchip\xc8\v2.00\pic\include\pic16f877a.h"
    96                           FSR equ 04h ;# 
    97  0004                     # 168 "C:\Program Files (x86)\Microchip\xc8\v2.00\pic\include\pic16f877a.h"
    98                           PORTA equ 05h ;# 
    99  0005                     # 218 "C:\Program Files (x86)\Microchip\xc8\v2.00\pic\include\pic16f877a.h"
   100                           PORTB equ 06h ;# 
   101  0006                     # 280 "C:\Program Files (x86)\Microchip\xc8\v2.00\pic\include\pic16f877a.h"
   102                           PORTC equ 07h ;# 
   103  0007                     # 342 "C:\Program Files (x86)\Microchip\xc8\v2.00\pic\include\pic16f877a.h"
   104                           PORTD equ 08h ;# 
   105  0008                     # 404 "C:\Program Files (x86)\Microchip\xc8\v2.00\pic\include\pic16f877a.h"
   106                           PORTE equ 09h ;# 
   107  0009                     # 436 "C:\Program Files (x86)\Microchip\xc8\v2.00\pic\include\pic16f877a.h"
   108                           PCLATH equ 0Ah ;# 
   109  000A                     # 456 "C:\Program Files (x86)\Microchip\xc8\v2.00\pic\include\pic16f877a.h"
   110                           INTCON equ 0Bh ;# 
   111  000B                     # 534 "C:\Program Files (x86)\Microchip\xc8\v2.00\pic\include\pic16f877a.h"
   112                           PIR1 equ 0Ch ;# 
   113  000C                     # 596 "C:\Program Files (x86)\Microchip\xc8\v2.00\pic\include\pic16f877a.h"
   114                           PIR2 equ 0Dh ;# 
   115  000D                     # 636 "C:\Program Files (x86)\Microchip\xc8\v2.00\pic\include\pic16f877a.h"
   116                           TMR1 equ 0Eh ;# 
   117  000E                     # 643 "C:\Program Files (x86)\Microchip\xc8\v2.00\pic\include\pic16f877a.h"
   118                           TMR1L equ 0Eh ;# 
   119  000E                     # 650 "C:\Program Files (x86)\Microchip\xc8\v2.00\pic\include\pic16f877a.h"
   120                           TMR1H equ 0Fh ;# 
   121  000F                     # 657 "C:\Program Files (x86)\Microchip\xc8\v2.00\pic\include\pic16f877a.h"
   122                           T1CON equ 010h ;# 
   123  0010                     # 732 "C:\Program Files (x86)\Microchip\xc8\v2.00\pic\include\pic16f877a.h"
   124                           TMR2 equ 011h ;# 
   125  0011                     # 739 "C:\Program Files (x86)\Microchip\xc8\v2.00\pic\include\pic16f877a.h"
   126                           T2CON equ 012h ;# 
   127  0012                     # 810 "C:\Program Files (x86)\Microchip\xc8\v2.00\pic\include\pic16f877a.h"
   128                           SSPBUF equ 013h ;# 
   129  0013                     # 817 "C:\Program Files (x86)\Microchip\xc8\v2.00\pic\include\pic16f877a.h"
   130                           SSPCON equ 014h ;# 
   131  0014                     # 887 "C:\Program Files (x86)\Microchip\xc8\v2.00\pic\include\pic16f877a.h"
   132                           CCPR1 equ 015h ;# 
   133  0015                     # 894 "C:\Program Files (x86)\Microchip\xc8\v2.00\pic\include\pic16f877a.h"
   134                           CCPR1L equ 015h ;# 
   135  0015                     # 901 "C:\Program Files (x86)\Microchip\xc8\v2.00\pic\include\pic16f877a.h"
   136                           CCPR1H equ 016h ;# 
   137  0016                     # 908 "C:\Program Files (x86)\Microchip\xc8\v2.00\pic\include\pic16f877a.h"
   138                           CCP1CON equ 017h ;# 
   139  0017                     # 966 "C:\Program Files (x86)\Microchip\xc8\v2.00\pic\include\pic16f877a.h"
   140                           RCSTA equ 018h ;# 
   141  0018                     # 1061 "C:\Program Files (x86)\Microchip\xc8\v2.00\pic\include\pic16f877a.h"
   142                           TXREG equ 019h ;# 
   143  0019                     # 1068 "C:\Program Files (x86)\Microchip\xc8\v2.00\pic\include\pic16f877a.h"
   144                           RCREG equ 01Ah ;# 
   145  001A                     # 1075 "C:\Program Files (x86)\Microchip\xc8\v2.00\pic\include\pic16f877a.h"
   146                           CCPR2 equ 01Bh ;# 
   147  001B                     # 1082 "C:\Program Files (x86)\Microchip\xc8\v2.00\pic\include\pic16f877a.h"
   148                           CCPR2L equ 01Bh ;# 
   149  001B                     # 1089 "C:\Program Files (x86)\Microchip\xc8\v2.00\pic\include\pic16f877a.h"
   150                           CCPR2H equ 01Ch ;# 
   151  001C                     # 1096 "C:\Program Files (x86)\Microchip\xc8\v2.00\pic\include\pic16f877a.h"
   152                           CCP2CON equ 01Dh ;# 
   153  001D                     # 1154 "C:\Program Files (x86)\Microchip\xc8\v2.00\pic\include\pic16f877a.h"
   154                           ADRESH equ 01Eh ;# 
   155  001E                     # 1161 "C:\Program Files (x86)\Microchip\xc8\v2.00\pic\include\pic16f877a.h"
   156                           ADCON0 equ 01Fh ;# 
   157  001F                     # 1257 "C:\Program Files (x86)\Microchip\xc8\v2.00\pic\include\pic16f877a.h"
   158                           OPTION_REG equ 081h ;# 
   159  0081                     # 1327 "C:\Program Files (x86)\Microchip\xc8\v2.00\pic\include\pic16f877a.h"
   160                           TRISA equ 085h ;# 
   161  0085                     # 1377 "C:\Program Files (x86)\Microchip\xc8\v2.00\pic\include\pic16f877a.h"
   162                           TRISB equ 086h ;# 
   163  0086                     # 1439 "C:\Program Files (x86)\Microchip\xc8\v2.00\pic\include\pic16f877a.h"
   164                           TRISC equ 087h ;# 
   165  0087                     # 1501 "C:\Program Files (x86)\Microchip\xc8\v2.00\pic\include\pic16f877a.h"
   166                           TRISD equ 088h ;# 
   167  0088                     # 1563 "C:\Program Files (x86)\Microchip\xc8\v2.00\pic\include\pic16f877a.h"
   168                           TRISE equ 089h ;# 
   169  0089                     # 1620 "C:\Program Files (x86)\Microchip\xc8\v2.00\pic\include\pic16f877a.h"
   170                           PIE1 equ 08Ch ;# 
   171  008C                     # 1682 "C:\Program Files (x86)\Microchip\xc8\v2.00\pic\include\pic16f877a.h"
   172                           PIE2 equ 08Dh ;# 
   173  008D                     # 1722 "C:\Program Files (x86)\Microchip\xc8\v2.00\pic\include\pic16f877a.h"
   174                           PCON equ 08Eh ;# 
   175  008E                     # 1756 "C:\Program Files (x86)\Microchip\xc8\v2.00\pic\include\pic16f877a.h"
   176                           SSPCON2 equ 091h ;# 
   177  0091                     # 1818 "C:\Program Files (x86)\Microchip\xc8\v2.00\pic\include\pic16f877a.h"
   178                           PR2 equ 092h ;# 
   179  0092                     # 1825 "C:\Program Files (x86)\Microchip\xc8\v2.00\pic\include\pic16f877a.h"
   180                           SSPADD equ 093h ;# 
   181  0093                     # 1832 "C:\Program Files (x86)\Microchip\xc8\v2.00\pic\include\pic16f877a.h"
   182                           SSPSTAT equ 094h ;# 
   183  0094                     # 2001 "C:\Program Files (x86)\Microchip\xc8\v2.00\pic\include\pic16f877a.h"
   184                           TXSTA equ 098h ;# 
   185  0098                     # 2082 "C:\Program Files (x86)\Microchip\xc8\v2.00\pic\include\pic16f877a.h"
   186                           SPBRG equ 099h ;# 
   187  0099                     # 2089 "C:\Program Files (x86)\Microchip\xc8\v2.00\pic\include\pic16f877a.h"
   188                           CMCON equ 09Ch ;# 
   189  009C                     # 2159 "C:\Program Files (x86)\Microchip\xc8\v2.00\pic\include\pic16f877a.h"
   190                           CVRCON equ 09Dh ;# 
   191  009D                     # 2224 "C:\Program Files (x86)\Microchip\xc8\v2.00\pic\include\pic16f877a.h"
   192                           ADRESL equ 09Eh ;# 
   193  009E                     # 2231 "C:\Program Files (x86)\Microchip\xc8\v2.00\pic\include\pic16f877a.h"
   194                           ADCON1 equ 09Fh ;# 
   195  009F                     # 2290 "C:\Program Files (x86)\Microchip\xc8\v2.00\pic\include\pic16f877a.h"
   196                           EEDATA equ 010Ch ;# 
   197  010C                     # 2297 "C:\Program Files (x86)\Microchip\xc8\v2.00\pic\include\pic16f877a.h"
   198                           EEADR equ 010Dh ;# 
   199  010D                     # 2304 "C:\Program Files (x86)\Microchip\xc8\v2.00\pic\include\pic16f877a.h"
   200                           EEDATH equ 010Eh ;# 
   201  010E                     # 2311 "C:\Program Files (x86)\Microchip\xc8\v2.00\pic\include\pic16f877a.h"
   202                           EEADRH equ 010Fh ;# 
   203  010F                     # 2318 "C:\Program Files (x86)\Microchip\xc8\v2.00\pic\include\pic16f877a.h"
   204                           EECON1 equ 018Ch ;# 
   205  018C                     # 2363 "C:\Program Files (x86)\Microchip\xc8\v2.00\pic\include\pic16f877a.h"
   206                           EECON2 equ 018Dh ;# 
   207  018D                     # 54 "C:\Program Files (x86)\Microchip\xc8\v2.00\pic\include\pic16f877a.h"
   208                           INDF equ 00h ;# 
   209  0000                     # 61 "C:\Program Files (x86)\Microchip\xc8\v2.00\pic\include\pic16f877a.h"
   210                           TMR0 equ 01h ;# 
   211  0001                     # 68 "C:\Program Files (x86)\Microchip\xc8\v2.00\pic\include\pic16f877a.h"
   212                           PCL equ 02h ;# 
   213  0002                     # 75 "C:\Program Files (x86)\Microchip\xc8\v2.00\pic\include\pic16f877a.h"
   214                           STATUS equ 03h ;# 
   215  0003                     # 161 "C:\Program Files (x86)\Microchip\xc8\v2.00\pic\include\pic16f877a.h"
   216                           FSR equ 04h ;# 
   217  0004                     # 168 "C:\Program Files (x86)\Microchip\xc8\v2.00\pic\include\pic16f877a.h"
   218                           PORTA equ 05h ;# 
   219  0005                     # 218 "C:\Program Files (x86)\Microchip\xc8\v2.00\pic\include\pic16f877a.h"
   220                           PORTB equ 06h ;# 
   221  0006                     # 280 "C:\Program Files (x86)\Microchip\xc8\v2.00\pic\include\pic16f877a.h"
   222                           PORTC equ 07h ;# 
   223  0007                     # 342 "C:\Program Files (x86)\Microchip\xc8\v2.00\pic\include\pic16f877a.h"
   224                           PORTD equ 08h ;# 
   225  0008                     # 404 "C:\Program Files (x86)\Microchip\xc8\v2.00\pic\include\pic16f877a.h"
   226                           PORTE equ 09h ;# 
   227  0009                     # 436 "C:\Program Files (x86)\Microchip\xc8\v2.00\pic\include\pic16f877a.h"
   228                           PCLATH equ 0Ah ;# 
   229  000A                     # 456 "C:\Program Files (x86)\Microchip\xc8\v2.00\pic\include\pic16f877a.h"
   230                           INTCON equ 0Bh ;# 
   231  000B                     # 534 "C:\Program Files (x86)\Microchip\xc8\v2.00\pic\include\pic16f877a.h"
   232                           PIR1 equ 0Ch ;# 
   233  000C                     # 596 "C:\Program Files (x86)\Microchip\xc8\v2.00\pic\include\pic16f877a.h"
   234                           PIR2 equ 0Dh ;# 
   235  000D                     # 636 "C:\Program Files (x86)\Microchip\xc8\v2.00\pic\include\pic16f877a.h"
   236                           TMR1 equ 0Eh ;# 
   237  000E                     # 643 "C:\Program Files (x86)\Microchip\xc8\v2.00\pic\include\pic16f877a.h"
   238                           TMR1L equ 0Eh ;# 
   239  000E                     # 650 "C:\Program Files (x86)\Microchip\xc8\v2.00\pic\include\pic16f877a.h"
   240                           TMR1H equ 0Fh ;# 
   241  000F                     # 657 "C:\Program Files (x86)\Microchip\xc8\v2.00\pic\include\pic16f877a.h"
   242                           T1CON equ 010h ;# 
   243  0010                     # 732 "C:\Program Files (x86)\Microchip\xc8\v2.00\pic\include\pic16f877a.h"
   244                           TMR2 equ 011h ;# 
   245  0011                     # 739 "C:\Program Files (x86)\Microchip\xc8\v2.00\pic\include\pic16f877a.h"
   246                           T2CON equ 012h ;# 
   247  0012                     # 810 "C:\Program Files (x86)\Microchip\xc8\v2.00\pic\include\pic16f877a.h"
   248                           SSPBUF equ 013h ;# 
   249  0013                     # 817 "C:\Program Files (x86)\Microchip\xc8\v2.00\pic\include\pic16f877a.h"
   250                           SSPCON equ 014h ;# 
   251  0014                     # 887 "C:\Program Files (x86)\Microchip\xc8\v2.00\pic\include\pic16f877a.h"
   252                           CCPR1 equ 015h ;# 
   253  0015                     # 894 "C:\Program Files (x86)\Microchip\xc8\v2.00\pic\include\pic16f877a.h"
   254                           CCPR1L equ 015h ;# 
   255  0015                     # 901 "C:\Program Files (x86)\Microchip\xc8\v2.00\pic\include\pic16f877a.h"
   256                           CCPR1H equ 016h ;# 
   257  0016                     # 908 "C:\Program Files (x86)\Microchip\xc8\v2.00\pic\include\pic16f877a.h"
   258                           CCP1CON equ 017h ;# 
   259  0017                     # 966 "C:\Program Files (x86)\Microchip\xc8\v2.00\pic\include\pic16f877a.h"
   260                           RCSTA equ 018h ;# 
   261  0018                     # 1061 "C:\Program Files (x86)\Microchip\xc8\v2.00\pic\include\pic16f877a.h"
   262                           TXREG equ 019h ;# 
   263  0019                     # 1068 "C:\Program Files (x86)\Microchip\xc8\v2.00\pic\include\pic16f877a.h"
   264                           RCREG equ 01Ah ;# 
   265  001A                     # 1075 "C:\Program Files (x86)\Microchip\xc8\v2.00\pic\include\pic16f877a.h"
   266                           CCPR2 equ 01Bh ;# 
   267  001B                     # 1082 "C:\Program Files (x86)\Microchip\xc8\v2.00\pic\include\pic16f877a.h"
   268                           CCPR2L equ 01Bh ;# 
   269  001B                     # 1089 "C:\Program Files (x86)\Microchip\xc8\v2.00\pic\include\pic16f877a.h"
   270                           CCPR2H equ 01Ch ;# 
   271  001C                     # 1096 "C:\Program Files (x86)\Microchip\xc8\v2.00\pic\include\pic16f877a.h"
   272                           CCP2CON equ 01Dh ;# 
   273  001D                     # 1154 "C:\Program Files (x86)\Microchip\xc8\v2.00\pic\include\pic16f877a.h"
   274                           ADRESH equ 01Eh ;# 
   275  001E                     # 1161 "C:\Program Files (x86)\Microchip\xc8\v2.00\pic\include\pic16f877a.h"
   276                           ADCON0 equ 01Fh ;# 
   277  001F                     # 1257 "C:\Program Files (x86)\Microchip\xc8\v2.00\pic\include\pic16f877a.h"
   278                           OPTION_REG equ 081h ;# 
   279  0081                     # 1327 "C:\Program Files (x86)\Microchip\xc8\v2.00\pic\include\pic16f877a.h"
   280                           TRISA equ 085h ;# 
   281  0085                     # 1377 "C:\Program Files (x86)\Microchip\xc8\v2.00\pic\include\pic16f877a.h"
   282                           TRISB equ 086h ;# 
   283  0086                     # 1439 "C:\Program Files (x86)\Microchip\xc8\v2.00\pic\include\pic16f877a.h"
   284                           TRISC equ 087h ;# 
   285  0087                     # 1501 "C:\Program Files (x86)\Microchip\xc8\v2.00\pic\include\pic16f877a.h"
   286                           TRISD equ 088h ;# 
   287  0088                     # 1563 "C:\Program Files (x86)\Microchip\xc8\v2.00\pic\include\pic16f877a.h"
   288                           TRISE equ 089h ;# 
   289  0089                     # 1620 "C:\Program Files (x86)\Microchip\xc8\v2.00\pic\include\pic16f877a.h"
   290                           PIE1 equ 08Ch ;# 
   291  008C                     # 1682 "C:\Program Files (x86)\Microchip\xc8\v2.00\pic\include\pic16f877a.h"
   292                           PIE2 equ 08Dh ;# 
   293  008D                     # 1722 "C:\Program Files (x86)\Microchip\xc8\v2.00\pic\include\pic16f877a.h"
   294                           PCON equ 08Eh ;# 
   295  008E                     # 1756 "C:\Program Files (x86)\Microchip\xc8\v2.00\pic\include\pic16f877a.h"
   296                           SSPCON2 equ 091h ;# 
   297  0091                     # 1818 "C:\Program Files (x86)\Microchip\xc8\v2.00\pic\include\pic16f877a.h"
   298                           PR2 equ 092h ;# 
   299  0092                     # 1825 "C:\Program Files (x86)\Microchip\xc8\v2.00\pic\include\pic16f877a.h"
   300                           SSPADD equ 093h ;# 
   301  0093                     # 1832 "C:\Program Files (x86)\Microchip\xc8\v2.00\pic\include\pic16f877a.h"
   302                           SSPSTAT equ 094h ;# 
   303  0094                     # 2001 "C:\Program Files (x86)\Microchip\xc8\v2.00\pic\include\pic16f877a.h"
   304                           TXSTA equ 098h ;# 
   305  0098                     # 2082 "C:\Program Files (x86)\Microchip\xc8\v2.00\pic\include\pic16f877a.h"
   306                           SPBRG equ 099h ;# 
   307  0099                     # 2089 "C:\Program Files (x86)\Microchip\xc8\v2.00\pic\include\pic16f877a.h"
   308                           CMCON equ 09Ch ;# 
   309  009C                     # 2159 "C:\Program Files (x86)\Microchip\xc8\v2.00\pic\include\pic16f877a.h"
   310                           CVRCON equ 09Dh ;# 
   311  009D                     # 2224 "C:\Program Files (x86)\Microchip\xc8\v2.00\pic\include\pic16f877a.h"
   312                           ADRESL equ 09Eh ;# 
   313  009E                     # 2231 "C:\Program Files (x86)\Microchip\xc8\v2.00\pic\include\pic16f877a.h"
   314                           ADCON1 equ 09Fh ;# 
   315  009F                     # 2290 "C:\Program Files (x86)\Microchip\xc8\v2.00\pic\include\pic16f877a.h"
   316                           EEDATA equ 010Ch ;# 
   317  010C                     # 2297 "C:\Program Files (x86)\Microchip\xc8\v2.00\pic\include\pic16f877a.h"
   318                           EEADR equ 010Dh ;# 
   319  010D                     # 2304 "C:\Program Files (x86)\Microchip\xc8\v2.00\pic\include\pic16f877a.h"
   320                           EEDATH equ 010Eh ;# 
   321  010E                     # 2311 "C:\Program Files (x86)\Microchip\xc8\v2.00\pic\include\pic16f877a.h"
   322                           EEADRH equ 010Fh ;# 
   323  010F                     # 2318 "C:\Program Files (x86)\Microchip\xc8\v2.00\pic\include\pic16f877a.h"
   324                           EECON1 equ 018Ch ;# 
   325  018C                     # 2363 "C:\Program Files (x86)\Microchip\xc8\v2.00\pic\include\pic16f877a.h"
   326                           EECON2 equ 018Dh ;# 
   327  018D                     	FNCALL	_main,_adc_init
   328                           	FNCALL	_main,_adc_read
   329                           	FNCALL	_main,_adc_start
   330                           	FNCALL	_main,_sprintf
   331                           	FNCALL	_main,_str_transmit
   332                           	FNCALL	_main,_uart_init
   333                           	FNCALL	_str_transmit,_transmit
   334                           	FNCALL	_sprintf,___awdiv
   335                           	FNCALL	_sprintf,___fladd
   336                           	FNCALL	_sprintf,___fleq
   337                           	FNCALL	_sprintf,___flge
   338                           	FNCALL	_sprintf,___flmul
   339                           	FNCALL	_sprintf,___flneg
   340                           	FNCALL	_sprintf,___flsub
   341                           	FNCALL	_sprintf,___fltol
   342                           	FNCALL	_sprintf,___lldiv
   343                           	FNCALL	_sprintf,___llmod
   344                           	FNCALL	_sprintf,___wmul
   345                           	FNCALL	_sprintf,___xxtofl
   346                           	FNCALL	_sprintf,__div_to_l_
   347                           	FNCALL	_sprintf,__tdiv_to_l_
   348                           	FNCALL	_sprintf,_fround
   349                           	FNCALL	_sprintf,_scale
   350                           	FNCALL	_scale,___awdiv
   351                           	FNCALL	_scale,___awmod
   352                           	FNCALL	_scale,___flmul
   353                           	FNCALL	_fround,___flmul
   354                           	FNCALL	_fround,___lwdiv
   355                           	FNCALL	_fround,___lwmod
   356                           	FNCALL	___flsub,___fladd
   357                           	FNCALL	_adc_read,___fldiv
   358                           	FNCALL	_adc_read,___flmul
   359                           	FNCALL	_adc_read,___xxtofl
   360                           	FNCALL	___flmul,__Umul8_16
   361                           	FNROOT	_main
   362                           	global	__powers_
   363                           psect	strings,class=STRING,delta=2,noexec
   364                           global __pstrings
   365                           __pstrings:
   366  1800                     stringtab:
   367  1800                     	global    __stringtab
   368                           __stringtab:
   369  1800                     ;	String table - string pointers are 1 byte each
   370                           stringcode:stringdir:
   371  1800                     movlw high(stringdir)
      + 1800                     stringdir:	
   372  1800  3018               movwf pclath
   373  1801  008A               movf fsr,w
   374  1802  0804               incf fsr
   375  1803  0A84               	addwf pc
   376  1804  0782               	global __stringbase
   377                           __stringbase:
   378  1805                     	retlw	0
   379  1805  3400               psect	strings
   380                           	global    __end_of__stringtab
   381                           __end_of__stringtab:
   382  1806                     	file	"C:\Program Files (x86)\Microchip\xc8\v2.00\pic\sources\c90\common\powers.c"
   383                           	line	7
   384                           __powers_:
   385  1806                     	retlw	0x0
   386  1806  3400               	retlw	0x0
   387  1807  3400               	retlw	0x80
   388  1808  3480               	retlw	0x3f
   389  1809  343F               
   390                           	retlw	0x0
   391  180A  3400               	retlw	0x0
   392  180B  3400               	retlw	0x20
   393  180C  3420               	retlw	0x41
   394  180D  3441               
   395                           	retlw	0x0
   396  180E  3400               	retlw	0x0
   397  180F  3400               	retlw	0xc8
   398  1810  34C8               	retlw	0x42
   399  1811  3442               
   400                           	retlw	0x0
   401  1812  3400               	retlw	0x0
   402  1813  3400               	retlw	0x7a
   403  1814  347A               	retlw	0x44
   404  1815  3444               
   405                           	retlw	0x0
   406  1816  3400               	retlw	0x40
   407  1817  3440               	retlw	0x1c
   408  1818  341C               	retlw	0x46
   409  1819  3446               
   410                           	retlw	0x0
   411  181A  3400               	retlw	0x50
   412  181B  3450               	retlw	0xc3
   413  181C  34C3               	retlw	0x47
   414  181D  3447               
   415                           	retlw	0x0
   416  181E  3400               	retlw	0x24
   417  181F  3424               	retlw	0x74
   418  1820  3474               	retlw	0x49
   419  1821  3449               
   420                           	retlw	0x80
   421  1822  3480               	retlw	0x96
   422  1823  3496               	retlw	0x18
   423  1824  3418               	retlw	0x4b
   424  1825  344B               
   425                           	retlw	0x20
   426  1826  3420               	retlw	0xbc
   427  1827  34BC               	retlw	0xbe
   428  1828  34BE               	retlw	0x4c
   429  1829  344C               
   430                           	retlw	0x28
   431  182A  3428               	retlw	0x6b
   432  182B  346B               	retlw	0x6e
   433  182C  346E               	retlw	0x4e
   434  182D  344E               
   435                           	retlw	0xf9
   436  182E  34F9               	retlw	0x2
   437  182F  3402               	retlw	0x15
   438  1830  3415               	retlw	0x50
   439  1831  3450               
   440                           	retlw	0xec
   441  1832  34EC               	retlw	0x78
   442  1833  3478               	retlw	0xad
   443  1834  34AD               	retlw	0x60
   444  1835  3460               
   445                           	retlw	0xca
   446  1836  34CA               	retlw	0xf2
   447  1837  34F2               	retlw	0x49
   448  1838  3449               	retlw	0x71
   449  1839  3471               
   450                           	global __end_of__powers_
   451                           __end_of__powers_:
   452  183A                     	global	__npowers_
   453                           psect	strings
   454                           	file	"C:\Program Files (x86)\Microchip\xc8\v2.00\pic\sources\c90\common\powers.c"
   455                           	line	39
   456                           __npowers_:
   457  183A                     	retlw	0x0
   458  183A  3400               	retlw	0x0
   459  183B  3400               	retlw	0x80
   460  183C  3480               	retlw	0x3f
   461  183D  343F               
   462                           	retlw	0xcd
   463  183E  34CD               	retlw	0xcc
   464  183F  34CC               	retlw	0xcc
   465  1840  34CC               	retlw	0x3d
   466  1841  343D               
   467                           	retlw	0xa
   468  1842  340A               	retlw	0xd7
   469  1843  34D7               	retlw	0x23
   470  1844  3423               	retlw	0x3c
   471  1845  343C               
   472                           	retlw	0x6f
   473  1846  346F               	retlw	0x12
   474  1847  3412               	retlw	0x83
   475  1848  3483               	retlw	0x3a
   476  1849  343A               
   477                           	retlw	0x17
   478  184A  3417               	retlw	0xb7
   479  184B  34B7               	retlw	0xd1
   480  184C  34D1               	retlw	0x38
   481  184D  3438               
   482                           	retlw	0xac
   483  184E  34AC               	retlw	0xc5
   484  184F  34C5               	retlw	0x27
   485  1850  3427               	retlw	0x37
   486  1851  3437               
   487                           	retlw	0xbd
   488  1852  34BD               	retlw	0x37
   489  1853  3437               	retlw	0x86
   490  1854  3486               	retlw	0x35
   491  1855  3435               
   492                           	retlw	0x95
   493  1856  3495               	retlw	0xbf
   494  1857  34BF               	retlw	0xd6
   495  1858  34D6               	retlw	0x33
   496  1859  3433               
   497                           	retlw	0x77
   498  185A  3477               	retlw	0xcc
   499  185B  34CC               	retlw	0x2b
   500  185C  342B               	retlw	0x32
   501  185D  3432               
   502                           	retlw	0x5f
   503  185E  345F               	retlw	0x70
   504  185F  3470               	retlw	0x89
   505  1860  3489               	retlw	0x30
   506  1861  3430               
   507                           	retlw	0xff
   508  1862  34FF               	retlw	0xe6
   509  1863  34E6               	retlw	0xdb
   510  1864  34DB               	retlw	0x2e
   511  1865  342E               
   512                           	retlw	0x8
   513  1866  3408               	retlw	0xe5
   514  1867  34E5               	retlw	0x3c
   515  1868  343C               	retlw	0x1e
   516  1869  341E               
   517                           	retlw	0x60
   518  186A  3460               	retlw	0x42
   519  186B  3442               	retlw	0xa2
   520  186C  34A2               	retlw	0xd
   521  186D  340D               
   522                           	global __end_of__npowers_
   523                           __end_of__npowers_:
   524  186E                     	global	_dpowers
   525                           psect	strings
   526                           	file	"C:\Program Files (x86)\Microchip\xc8\v2.00\pic\sources\c90\common\doprnt.c"
   527                           	line	358
   528                           _dpowers:
   529  186E                     	retlw	01h
   530  186E  3401               	retlw	0
   531  186F  3400               	retlw	0
   532  1870  3400               	retlw	0
   533  1871  3400               
   534                           	retlw	0Ah
   535  1872  340A               	retlw	0
   536  1873  3400               	retlw	0
   537  1874  3400               	retlw	0
   538  1875  3400               
   539                           	retlw	064h
   540  1876  3464               	retlw	0
   541  1877  3400               	retlw	0
   542  1878  3400               	retlw	0
   543  1879  3400               
   544                           	retlw	0E8h
   545  187A  34E8               	retlw	03h
   546  187B  3403               	retlw	0
   547  187C  3400               	retlw	0
   548  187D  3400               
   549                           	retlw	010h
   550  187E  3410               	retlw	027h
   551  187F  3427               	retlw	0
   552  1880  3400               	retlw	0
   553  1881  3400               
   554                           	retlw	0A0h
   555  1882  34A0               	retlw	086h
   556  1883  3486               	retlw	01h
   557  1884  3401               	retlw	0
   558  1885  3400               
   559                           	retlw	040h
   560  1886  3440               	retlw	042h
   561  1887  3442               	retlw	0Fh
   562  1888  340F               	retlw	0
   563  1889  3400               
   564                           	retlw	080h
   565  188A  3480               	retlw	096h
   566  188B  3496               	retlw	098h
   567  188C  3498               	retlw	0
   568  188D  3400               
   569                           	retlw	0
   570  188E  3400               	retlw	0E1h
   571  188F  34E1               	retlw	0F5h
   572  1890  34F5               	retlw	05h
   573  1891  3405               
   574                           	retlw	0
   575  1892  3400               	retlw	0CAh
   576  1893  34CA               	retlw	09Ah
   577  1894  349A               	retlw	03Bh
   578  1895  343B               
   579                           	global __end_of_dpowers
   580                           __end_of_dpowers:
   581  1896                     	global	__powers_
   582                           	global	__npowers_
   583                           	global	_dpowers
   584                           	global	_str
   585                           	global	_adc_val
   586                           psect	nvBANK1,class=BANK1,space=1,noexec
   587                           global __pnvBANK1
   588                           __pnvBANK1:
   589  00E6                     _adc_val:
   590  00E6                            ds      4
   591  00E6                     
   592                           	global	_ADRESH
   593                           _ADRESH	set	0x1E
   594  001E                     	global	_TXREG
   595                           _TXREG	set	0x19
   596  0019                     	global	_RCSTA
   597                           _RCSTA	set	0x18
   598  0018                     	global	_GO_DONE
   599                           _GO_DONE	set	0xFA
   600  00FA                     	global	_ADON
   601                           _ADON	set	0xF8
   602  00F8                     	global	_ADRESL
   603                           _ADRESL	set	0x9E
   604  009E                     	global	_SPBRG
   605                           _SPBRG	set	0x99
   606  0099                     	global	_TXSTA
   607                           _TXSTA	set	0x98
   608  0098                     	global	_TRISC7
   609                           _TRISC7	set	0x43F
   610  043F                     	global	_TRISC6
   611                           _TRISC6	set	0x43E
   612  043E                     	global	_ADFM
   613                           _ADFM	set	0x4FF
   614  04FF                     	global	_TRMT
   615                           _TRMT	set	0x4C1
   616  04C1                     psect	strings
   617                           	
   618                           STR_1:	
   619  1896                     	retlw	58	;':'
   620  1896  343A               	retlw	32	;' '
   621  1897  3420               	retlw	37	;'%'
   622  1898  3425               	retlw	102	;'f'
   623  1899  3466               	retlw	32	;' '
   624  189A  3420               	retlw	86	;'V'
   625  189B  3456               	retlw	32	;' '
   626  189C  3420               	retlw	10
   627  189D  340A               	retlw	13
   628  189E  340D               	retlw	0
   629  189F  3400               psect	strings
   630                           ; #config settings
   631                           	file	"C:\Users\AJAY\AppData\Local\Temp\sa3o."
   632                           	line	#
   633                           psect cinit,class=CODE,delta=2
   634                           global start_initialization
   635                           start_initialization:
   636  07F3                     
   637                           global __initialization
   638                           __initialization:
   639  07F3                     psect	bssBANK1,class=BANK1,space=1,noexec
   640                           global __pbssBANK1
   641                           __pbssBANK1:
   642  00D2                     _str:
   643  00D2                            ds      20
   644  00D2                     
   645                           	file	"C:\Users\AJAY\AppData\Local\Temp\sa3o."
   646                           	line	#
   647                           psect clrtext,class=CODE,delta=2
   648                           global clear_ram0
   649                           ;	Called with FSR containing the base address, and
   650                           ;	W with the last address+1
   651                           clear_ram0:
   652  1B30                     	clrwdt			;clear the watchdog before getting into this loop
   653  1B30  0064               clrloop0:
   654  1B31                     	clrf	indf		;clear RAM location pointed to by FSR
   655  1B31  0180               	incf	fsr,f		;increment pointer
   656  1B32  0A84               	xorwf	fsr,w		;XOR with final address
   657  1B33  0604               	btfsc	status,2	;have we reached the end yet?
   658  1B34  1903               	retlw	0		;all done for this memory range, return
   659  1B35  3400               	xorwf	fsr,w		;XOR again to restore value
   660  1B36  0604               	goto	clrloop0		;do the next byte
   661  1B37  2B31               
   662                           ; Clear objects allocated to BANK1
   663                           psect cinit,class=CODE,delta=2,merge=1
   664                           	bcf	status, 7	;select IRP bank0
   665  07F3  1383               	movlw	low(__pbssBANK1)
   666  07F4  30D2               	movwf	fsr
   667  07F5  0084               	movlw	low((__pbssBANK1)+014h)
   668  07F6  30E6               	fcall	clear_ram0
   669  07F7  160A  158A  2330  120A  118A  psect cinit,class=CODE,delta=2,merge=1
   670                           global end_of_initialization,__end_of__initialization
   671                           
   672                           ;End of C runtime variable initialization code
   673                           
   674                           end_of_initialization:
   675  07FC                     __end_of__initialization:
   676  07FC                     clrf status
   677  07FC  0183               ljmp _main	;jump to C main() function
   678  07FD  160A  158A  2CE9   psect	cstackBANK1,class=BANK1,space=1,noexec
   679                           global __pcstackBANK1
   680                           __pcstackBANK1:
   681  00A0                     	global	___fladd@signs
   682                           ___fladd@signs:	; 1 bytes @ 0x0
   683  00A0                     	ds	1
   684  00A0                     	global	___fladd@aexp
   685                           ___fladd@aexp:	; 1 bytes @ 0x1
   686  00A1                     	ds	1
   687  00A1                     	global	___fladd@bexp
   688                           ___fladd@bexp:	; 1 bytes @ 0x2
   689  00A2                     	ds	1
   690  00A2                     	global	___fladd@grs
   691                           ___fladd@grs:	; 1 bytes @ 0x3
   692  00A3                     	ds	1
   693  00A3                     	global	?___flsub
   694                           ?___flsub:	; 4 bytes @ 0x4
   695  00A4                     	global	___flsub@a
   696                           ___flsub@a:	; 4 bytes @ 0x4
   697  00A4                     	ds	4
   698  00A4                     	global	___flsub@b
   699                           ___flsub@b:	; 4 bytes @ 0x8
   700  00A8                     	ds	4
   701  00A8                     	global	?_sprintf
   702                           ?_sprintf:	; 2 bytes @ 0xC
   703  00AC                     	global	sprintf@f
   704                           sprintf@f:	; 1 bytes @ 0xC
   705  00AC                     	ds	5
   706  00AC                     ??_sprintf:	; 1 bytes @ 0x11
   707  00B1                     	ds	5
   708  00B1                     	global	_sprintf$743
   709                           _sprintf$743:	; 4 bytes @ 0x16
   710  00B6                     	ds	4
   711  00B6                     	global	sprintf@ap
   712                           sprintf@ap:	; 1 bytes @ 0x1A
   713  00BA                     	ds	1
   714  00BA                     	global	sprintf@flag
   715                           sprintf@flag:	; 2 bytes @ 0x1B
   716  00BB                     	ds	2
   717  00BB                     	global	sprintf@prec
   718                           sprintf@prec:	; 2 bytes @ 0x1D
   719  00BD                     	ds	2
   720  00BD                     	global	sprintf@val
   721                           sprintf@val:	; 4 bytes @ 0x1F
   722  00BF                     	ds	4
   723  00BF                     	global	sprintf@eexp
   724                           sprintf@eexp:	; 2 bytes @ 0x23
   725  00C3                     	ds	2
   726  00C3                     	global	sprintf@tmpval
   727                           sprintf@tmpval:	; 4 bytes @ 0x25
   728  00C5                     	ds	4
   729  00C5                     	global	sprintf@sp
   730                           sprintf@sp:	; 1 bytes @ 0x29
   731  00C9                     	ds	1
   732  00C9                     	global	sprintf@fval
   733                           sprintf@fval:	; 4 bytes @ 0x2A
   734  00CA                     	ds	4
   735  00CA                     	global	sprintf@c
   736                           sprintf@c:	; 1 bytes @ 0x2E
   737  00CE                     	ds	1
   738  00CE                     ??_main:	; 1 bytes @ 0x2F
   739  00CF                     	ds	3
   740  00CF                     psect	cstackCOMMON,class=COMMON,space=1,noexec
   741                           global __pcstackCOMMON
   742                           __pcstackCOMMON:
   743  0070                     ?___fleq:	; 1 bit 
   744  0070                     ?___flge:	; 1 bit 
   745  0070                     ?_uart_init:	; 1 bytes @ 0x0
   746  0070                     ??_uart_init:	; 1 bytes @ 0x0
   747  0070                     ?_transmit:	; 1 bytes @ 0x0
   748  0070                     ??_transmit:	; 1 bytes @ 0x0
   749  0070                     ?_str_transmit:	; 1 bytes @ 0x0
   750  0070                     ?_adc_init:	; 1 bytes @ 0x0
   751  0070                     ??_adc_init:	; 1 bytes @ 0x0
   752  0070                     ?_adc_start:	; 1 bytes @ 0x0
   753  0070                     ??_adc_start:	; 1 bytes @ 0x0
   754  0070                     ?_main:	; 1 bytes @ 0x0
   755  0070                     	global	?__Umul8_16
   756                           ?__Umul8_16:	; 2 bytes @ 0x0
   757  0070                     	global	?___wmul
   758                           ?___wmul:	; 2 bytes @ 0x0
   759  0070                     	global	?___awmod
   760                           ?___awmod:	; 2 bytes @ 0x0
   761  0070                     	global	?___lwmod
   762                           ?___lwmod:	; 2 bytes @ 0x0
   763  0070                     	global	?__tdiv_to_l_
   764                           ?__tdiv_to_l_:	; 4 bytes @ 0x0
   765  0070                     	global	?__div_to_l_
   766                           ?__div_to_l_:	; 4 bytes @ 0x0
   767  0070                     	global	?___lldiv
   768                           ?___lldiv:	; 4 bytes @ 0x0
   769  0070                     	global	?___flneg
   770                           ?___flneg:	; 4 bytes @ 0x0
   771  0070                     	global	?___llmod
   772                           ?___llmod:	; 4 bytes @ 0x0
   773  0070                     	global	?___fldiv
   774                           ?___fldiv:	; 4 bytes @ 0x0
   775  0070                     	global	?___xxtofl
   776                           ?___xxtofl:	; 4 bytes @ 0x0
   777  0070                     	global	transmit@b
   778                           transmit@b:	; 1 bytes @ 0x0
   779  0070                     	global	__Umul8_16@multiplicand
   780                           __Umul8_16@multiplicand:	; 1 bytes @ 0x0
   781  0070                     	global	___wmul@multiplier
   782                           ___wmul@multiplier:	; 2 bytes @ 0x0
   783  0070                     	global	___awmod@divisor
   784                           ___awmod@divisor:	; 2 bytes @ 0x0
   785  0070                     	global	___lwmod@divisor
   786                           ___lwmod@divisor:	; 2 bytes @ 0x0
   787  0070                     	global	___lldiv@divisor
   788                           ___lldiv@divisor:	; 4 bytes @ 0x0
   789  0070                     	global	__div_to_l_@f1
   790                           __div_to_l_@f1:	; 4 bytes @ 0x0
   791  0070                     	global	___fleq@ff1
   792                           ___fleq@ff1:	; 4 bytes @ 0x0
   793  0070                     	global	___flge@ff1
   794                           ___flge@ff1:	; 4 bytes @ 0x0
   795  0070                     	global	___flneg@f1
   796                           ___flneg@f1:	; 4 bytes @ 0x0
   797  0070                     	global	__tdiv_to_l_@f1
   798                           __tdiv_to_l_@f1:	; 4 bytes @ 0x0
   799  0070                     	global	___llmod@divisor
   800                           ___llmod@divisor:	; 4 bytes @ 0x0
   801  0070                     	global	___fldiv@a
   802                           ___fldiv@a:	; 4 bytes @ 0x0
   803  0070                     	global	___xxtofl@val
   804                           ___xxtofl@val:	; 4 bytes @ 0x0
   805  0070                     	ds	1
   806  0070                     ??_str_transmit:	; 1 bytes @ 0x1
   807  0071                     	ds	1
   808  0071                     ??__Umul8_16:	; 1 bytes @ 0x2
   809  0072                     	global	str_transmit@p
   810                           str_transmit@p:	; 1 bytes @ 0x2
   811  0072                     	global	___wmul@multiplicand
   812                           ___wmul@multiplicand:	; 2 bytes @ 0x2
   813  0072                     	global	___awmod@dividend
   814                           ___awmod@dividend:	; 2 bytes @ 0x2
   815  0072                     	global	___lwmod@dividend
   816                           ___lwmod@dividend:	; 2 bytes @ 0x2
   817  0072                     	ds	2
   818  0072                     ??___wmul:	; 1 bytes @ 0x4
   819  0074                     ??___awmod:	; 1 bytes @ 0x4
   820  0074                     ??___flneg:	; 1 bytes @ 0x4
   821  0074                     ??___lwmod:	; 1 bytes @ 0x4
   822  0074                     ??___xxtofl:	; 1 bytes @ 0x4
   823  0074                     	global	___wmul@product
   824                           ___wmul@product:	; 2 bytes @ 0x4
   825  0074                     	global	__Umul8_16@product
   826                           __Umul8_16@product:	; 2 bytes @ 0x4
   827  0074                     	global	___lldiv@dividend
   828                           ___lldiv@dividend:	; 4 bytes @ 0x4
   829  0074                     	global	__div_to_l_@f2
   830                           __div_to_l_@f2:	; 4 bytes @ 0x4
   831  0074                     	global	___fleq@ff2
   832                           ___fleq@ff2:	; 4 bytes @ 0x4
   833  0074                     	global	___flge@ff2
   834                           ___flge@ff2:	; 4 bytes @ 0x4
   835  0074                     	global	__tdiv_to_l_@f2
   836                           __tdiv_to_l_@f2:	; 4 bytes @ 0x4
   837  0074                     	global	___llmod@dividend
   838                           ___llmod@dividend:	; 4 bytes @ 0x4
   839  0074                     	global	___fldiv@b
   840                           ___fldiv@b:	; 4 bytes @ 0x4
   841  0074                     	ds	1
   842  0074                     	global	___awmod@counter
   843                           ___awmod@counter:	; 1 bytes @ 0x5
   844  0075                     	global	___lwmod@counter
   845                           ___lwmod@counter:	; 1 bytes @ 0x5
   846  0075                     	ds	1
   847  0075                     	global	?___lwdiv
   848                           ?___lwdiv:	; 2 bytes @ 0x6
   849  0076                     	global	___awmod@sign
   850                           ___awmod@sign:	; 1 bytes @ 0x6
   851  0076                     	global	___lwdiv@divisor
   852                           ___lwdiv@divisor:	; 2 bytes @ 0x6
   853  0076                     	global	__Umul8_16@word_mpld
   854                           __Umul8_16@word_mpld:	; 2 bytes @ 0x6
   855  0076                     	ds	1
   856  0076                     	global	?___awdiv
   857                           ?___awdiv:	; 2 bytes @ 0x7
   858  0077                     	global	___awdiv@divisor
   859                           ___awdiv@divisor:	; 2 bytes @ 0x7
   860  0077                     	ds	1
   861  0077                     ??__tdiv_to_l_:	; 1 bytes @ 0x8
   862  0078                     ??__div_to_l_:	; 1 bytes @ 0x8
   863  0078                     ??___lldiv:	; 1 bytes @ 0x8
   864  0078                     ??___fleq:	; 1 bytes @ 0x8
   865  0078                     ??___llmod:	; 1 bytes @ 0x8
   866  0078                     ??___fldiv:	; 1 bytes @ 0x8
   867  0078                     	global	___xxtofl@sign
   868                           ___xxtofl@sign:	; 1 bytes @ 0x8
   869  0078                     	global	__Umul8_16@multiplier
   870                           __Umul8_16@multiplier:	; 1 bytes @ 0x8
   871  0078                     	global	___lwdiv@dividend
   872                           ___lwdiv@dividend:	; 2 bytes @ 0x8
   873  0078                     	ds	1
   874  0078                     	global	___llmod@counter
   875                           ___llmod@counter:	; 1 bytes @ 0x9
   876  0079                     	global	___xxtofl@exp
   877                           ___xxtofl@exp:	; 1 bytes @ 0x9
   878  0079                     	global	___awdiv@dividend
   879                           ___awdiv@dividend:	; 2 bytes @ 0x9
   880  0079                     	global	___lldiv@quotient
   881                           ___lldiv@quotient:	; 4 bytes @ 0x9
   882  0079                     	ds	1
   883  0079                     ??___lwdiv:	; 1 bytes @ 0xA
   884  007A                     	global	___xxtofl@arg
   885                           ___xxtofl@arg:	; 4 bytes @ 0xA
   886  007A                     	ds	1
   887  007A                     ??___awdiv:	; 1 bytes @ 0xB
   888  007B                     	global	___lwdiv@quotient
   889                           ___lwdiv@quotient:	; 2 bytes @ 0xB
   890  007B                     	ds	2
   891  007B                     	global	___lldiv@counter
   892                           ___lldiv@counter:	; 1 bytes @ 0xD
   893  007D                     	global	___lwdiv@counter
   894                           ___lwdiv@counter:	; 1 bytes @ 0xD
   895  007D                     	ds	1
   896  007D                     ??_adc_read:	; 1 bytes @ 0xE
   897  007E                     ??___flsub:	; 1 bytes @ 0xE
   898  007E                     psect	cstackBANK0,class=BANK0,space=1,noexec
   899                           global __pcstackBANK0
   900                           __pcstackBANK0:
   901  0020                     ??___flge:	; 1 bytes @ 0x0
   902  0020                     	global	___awdiv@counter
   903                           ___awdiv@counter:	; 1 bytes @ 0x0
   904  0020                     	global	__div_to_l_@quot
   905                           __div_to_l_@quot:	; 4 bytes @ 0x0
   906  0020                     	global	__tdiv_to_l_@quot
   907                           __tdiv_to_l_@quot:	; 4 bytes @ 0x0
   908  0020                     	global	___fldiv@rem
   909                           ___fldiv@rem:	; 4 bytes @ 0x0
   910  0020                     	ds	1
   911  0020                     	global	___awdiv@sign
   912                           ___awdiv@sign:	; 1 bytes @ 0x1
   913  0021                     	ds	1
   914  0021                     	global	___awdiv@quotient
   915                           ___awdiv@quotient:	; 2 bytes @ 0x2
   916  0022                     	ds	2
   917  0022                     	global	__div_to_l_@cntr
   918                           __div_to_l_@cntr:	; 1 bytes @ 0x4
   919  0024                     	global	__tdiv_to_l_@cntr
   920                           __tdiv_to_l_@cntr:	; 1 bytes @ 0x4
   921  0024                     	global	___fldiv@sign
   922                           ___fldiv@sign:	; 1 bytes @ 0x4
   923  0024                     	ds	1
   924  0024                     	global	__div_to_l_@exp1
   925                           __div_to_l_@exp1:	; 1 bytes @ 0x5
   926  0025                     	global	__tdiv_to_l_@exp1
   927                           __tdiv_to_l_@exp1:	; 1 bytes @ 0x5
   928  0025                     	global	___fldiv@new_exp
   929                           ___fldiv@new_exp:	; 2 bytes @ 0x5
   930  0025                     	ds	2
   931  0025                     	global	___fldiv@grs
   932                           ___fldiv@grs:	; 4 bytes @ 0x7
   933  0027                     	ds	4
   934  0027                     	global	___fldiv@bexp
   935                           ___fldiv@bexp:	; 1 bytes @ 0xB
   936  002B                     	ds	1
   937  002B                     	global	___fldiv@aexp
   938                           ___fldiv@aexp:	; 1 bytes @ 0xC
   939  002C                     	ds	1
   940  002C                     	global	?___flmul
   941                           ?___flmul:	; 4 bytes @ 0xD
   942  002D                     	global	___flmul@b
   943                           ___flmul@b:	; 4 bytes @ 0xD
   944  002D                     	ds	4
   945  002D                     	global	___flmul@a
   946                           ___flmul@a:	; 4 bytes @ 0x11
   947  0031                     	ds	4
   948  0031                     ??___flmul:	; 1 bytes @ 0x15
   949  0035                     	ds	5
   950  0035                     	global	___flmul@sign
   951                           ___flmul@sign:	; 1 bytes @ 0x1A
   952  003A                     	ds	1
   953  003A                     	global	___flmul@grs
   954                           ___flmul@grs:	; 4 bytes @ 0x1B
   955  003B                     	ds	4
   956  003B                     	global	___flmul@aexp
   957                           ___flmul@aexp:	; 1 bytes @ 0x1F
   958  003F                     	ds	1
   959  003F                     	global	___flmul@bexp
   960                           ___flmul@bexp:	; 1 bytes @ 0x20
   961  0040                     	ds	1
   962  0040                     	global	___flmul@prod
   963                           ___flmul@prod:	; 4 bytes @ 0x21
   964  0041                     	ds	4
   965  0041                     	global	___flmul@temp
   966                           ___flmul@temp:	; 2 bytes @ 0x25
   967  0045                     	ds	2
   968  0045                     	global	?_adc_read
   969                           ?_adc_read:	; 4 bytes @ 0x27
   970  0047                     	global	?_fround
   971                           ?_fround:	; 4 bytes @ 0x27
   972  0047                     	global	?_scale
   973                           ?_scale:	; 4 bytes @ 0x27
   974  0047                     	ds	4
   975  0047                     ??_fround:	; 1 bytes @ 0x2B
   976  004B                     ??_scale:	; 1 bytes @ 0x2B
   977  004B                     	ds	7
   978  004B                     	global	_fround$741
   979                           _fround$741:	; 4 bytes @ 0x32
   980  0052                     	ds	3
   981  0052                     	global	_scale$742
   982                           _scale$742:	; 4 bytes @ 0x35
   983  0055                     	ds	1
   984  0055                     	global	_fround$740
   985                           _fround$740:	; 4 bytes @ 0x36
   986  0056                     	ds	3
   987  0056                     	global	scale@scl
   988                           scale@scl:	; 1 bytes @ 0x39
   989  0059                     	ds	1
   990  0059                     	global	?___fltol
   991                           ?___fltol:	; 4 bytes @ 0x3A
   992  005A                     	global	fround@prec
   993                           fround@prec:	; 1 bytes @ 0x3A
   994  005A                     	global	___fltol@f1
   995                           ___fltol@f1:	; 4 bytes @ 0x3A
   996  005A                     	ds	1
   997  005A                     	global	?___fladd
   998                           ?___fladd:	; 4 bytes @ 0x3B
   999  005B                     	global	___fladd@b
  1000                           ___fladd@b:	; 4 bytes @ 0x3B
  1001  005B                     	ds	3
  1002  005B                     ??___fltol:	; 1 bytes @ 0x3E
  1003  005E                     	ds	1
  1004  005E                     	global	___fladd@a
  1005                           ___fladd@a:	; 4 bytes @ 0x3F
  1006  005F                     	ds	4
  1007  005F                     ??___fladd:	; 1 bytes @ 0x43
  1008  0063                     	global	___fltol@sign1
  1009                           ___fltol@sign1:	; 1 bytes @ 0x43
  1010  0063                     	ds	1
  1011  0063                     	global	___fltol@exp1
  1012                           ___fltol@exp1:	; 1 bytes @ 0x44
  1013  0064                     	ds	11
  1014  0064                     ;!
  1015                           ;!Data Sizes:
  1016                           ;!    Strings     10
  1017                           ;!    Constant    144
  1018                           ;!    Data        0
  1019                           ;!    BSS         20
  1020                           ;!    Persistent  4
  1021                           ;!    Stack       0
  1022                           ;!
  1023                           ;!Auto Spaces:
  1024                           ;!    Space          Size  Autos    Used
  1025                           ;!    COMMON           14     14      14
  1026                           ;!    BANK0            80     79      79
  1027                           ;!    BANK1            80     50      74
  1028                           ;!    BANK3            96      0       0
  1029                           ;!    BANK2            96      0       0
  1030                           
  1031                           ;!
  1032                           ;!Pointer List with Targets:
  1033                           ;!
  1034                           ;!    sprintf@f	PTR const unsigned char  size(1) Largest target is 10
  1035                           ;!		 -> STR_1(CODE[10]), 
  1036                           ;!
  1037                           ;!    sprintf@sp	PTR unsigned char  size(1) Largest target is 20
  1038                           ;!		 -> str(BANK1[20]), 
  1039                           ;!
  1040                           ;!    sprintf@ap	PTR void [1] size(1) Largest target is 2
  1041                           ;!		 -> ?_sprintf(BANK1[2]), 
  1042                           ;!
  1043                           ;!    str_transmit@p	PTR unsigned char  size(1) Largest target is 20
  1044                           ;!		 -> str(BANK1[20]), 
  1045                           ;!
  1046                           
  1047                           
  1048                           ;!
  1049                           ;!Critical Paths under _main in COMMON
  1050                           ;!
  1051                           ;!    _str_transmit->_transmit
  1052                           ;!    _sprintf->___lldiv
  1053                           ;!    _sprintf->___xxtofl
  1054                           ;!    ___awdiv->___awmod
  1055                           ;!    _fround->___lwdiv
  1056                           ;!    ___lwdiv->___lwmod
  1057                           ;!    ___flsub->___xxtofl
  1058                           ;!    _adc_read->___xxtofl
  1059                           ;!    ___flmul->___lwdiv
  1060                           ;!
  1061                           ;!Critical Paths under _main in BANK0
  1062                           ;!
  1063                           ;!    _sprintf->___fladd
  1064                           ;!    _scale->___flmul
  1065                           ;!    _fround->___flmul
  1066                           ;!    ___fltol->_scale
  1067                           ;!    ___flsub->___fladd
  1068                           ;!    ___fladd->_fround
  1069                           ;!    _adc_read->___flmul
  1070                           ;!    ___flmul->___fldiv
  1071                           ;!
  1072                           ;!Critical Paths under _main in BANK1
  1073                           ;!
  1074                           ;!    _main->_sprintf
  1075                           ;!    _sprintf->___flsub
  1076                           ;!    ___flsub->___fladd
  1077                           ;!
  1078                           ;!Critical Paths under _main in BANK3
  1079                           ;!
  1080                           ;!    None.
  1081                           ;!
  1082                           ;!Critical Paths under _main in BANK2
  1083                           ;!
  1084                           ;!    None.
  1085                           
  1086 ;;
  1087 ;;Main: autosize = 0, tempsize = 3, incstack = 0, save=0
  1088 ;;
  1089                           
  1090                           ;!
  1091                           ;!Call Graph Tables:
  1092                           ;!
  1093                           ;! ---------------------------------------------------------------------------------
  1094                           ;! (Depth) Function   	        Calls       Base Space   Used Autos Params    Refs
  1095                           ;! ---------------------------------------------------------------------------------
  1096                           ;! (0) _main                                                 3     3      0   36829
  1097                           ;!                                             47 BANK1      3     3      0
  1098                           ;!                           _adc_init
  1099                           ;!                           _adc_read
  1100                           ;!                          _adc_start
  1101                           ;!                            _sprintf
  1102                           ;!                       _str_transmit
  1103                           ;!                          _uart_init
  1104                           ;! ---------------------------------------------------------------------------------
  1105                           ;! (1) _uart_init                                            0     0      0       0
  1106                           ;! ---------------------------------------------------------------------------------
  1107                           ;! (1) _str_transmit                                         2     2      0     100
  1108                           ;!                                              1 COMMON     2     2      0
  1109                           ;!                           _transmit
  1110                           ;! ---------------------------------------------------------------------------------
  1111                           ;! (2) _transmit                                             1     1      0      22
  1112                           ;!                                              0 COMMON     1     1      0
  1113                           ;! ---------------------------------------------------------------------------------
  1114                           ;! (1) _sprintf                                             42    37      5   30437
  1115                           ;!                                             12 BANK1     35    30      5
  1116                           ;!                            ___awdiv
  1117                           ;!                            ___fladd
  1118                           ;!                             ___fleq
  1119                           ;!                             ___flge
  1120                           ;!                            ___flmul
  1121                           ;!                            ___flneg
  1122                           ;!                            ___flsub
  1123                           ;!                            ___fltol
  1124                           ;!                            ___lldiv
  1125                           ;!                            ___llmod
  1126                           ;!                             ___wmul
  1127                           ;!                           ___xxtofl
  1128                           ;!                         __div_to_l_
  1129                           ;!                        __tdiv_to_l_
  1130                           ;!                             _fround
  1131                           ;!                              _scale
  1132                           ;! ---------------------------------------------------------------------------------
  1133                           ;! (2) _scale                                               19    15      4    7560
  1134                           ;!                                             39 BANK0     19    15      4
  1135                           ;!                            ___awdiv
  1136                           ;!                            ___awmod
  1137                           ;!                            ___flmul
  1138                           ;! ---------------------------------------------------------------------------------
  1139                           ;! (3) ___awmod                                              7     3      4    1208
  1140                           ;!                                              0 COMMON     7     3      4
  1141                           ;! ---------------------------------------------------------------------------------
  1142                           ;! (3) ___awdiv                                              9     5      4    1364
  1143                           ;!                                              7 COMMON     5     1      4
  1144                           ;!                                              0 BANK0      4     4      0
  1145                           ;!                            ___awmod (ARG)
  1146                           ;! ---------------------------------------------------------------------------------
  1147                           ;! (2) _fround                                              20    16      4    6023
  1148                           ;!                                             39 BANK0     20    16      4
  1149                           ;!                            ___flmul
  1150                           ;!                            ___lwdiv
  1151                           ;!                            ___lwmod
  1152                           ;! ---------------------------------------------------------------------------------
  1153                           ;! (3) ___lwmod                                              6     2      4     615
  1154                           ;!                                              0 COMMON     6     2      4
  1155                           ;! ---------------------------------------------------------------------------------
  1156                           ;! (3) ___lwdiv                                              8     4      4     618
  1157                           ;!                                              6 COMMON     8     4      4
  1158                           ;!                            ___lwmod (ARG)
  1159                           ;! ---------------------------------------------------------------------------------
  1160                           ;! (2) __tdiv_to_l_                                         18    10      8     455
  1161                           ;!                                              0 COMMON    12     4      8
  1162                           ;!                                              0 BANK0      6     6      0
  1163                           ;! ---------------------------------------------------------------------------------
  1164                           ;! (2) __div_to_l_                                          19    11      8     455
  1165                           ;!                                              0 COMMON    13     5      8
  1166                           ;!                                              0 BANK0      6     6      0
  1167                           ;! ---------------------------------------------------------------------------------
  1168                           ;! (2) ___wmul                                               6     2      4     244
  1169                           ;!                                              0 COMMON     6     2      4
  1170                           ;! ---------------------------------------------------------------------------------
  1171                           ;! (2) ___llmod                                             10     2      8     615
  1172                           ;!                                              0 COMMON    10     2      8
  1173                           ;! ---------------------------------------------------------------------------------
  1174                           ;! (2) ___lldiv                                             14     6      8     466
  1175                           ;!                                              0 COMMON    14     6      8
  1176                           ;! ---------------------------------------------------------------------------------
  1177                           ;! (2) ___fltol                                             11     7      4     457
  1178                           ;!                                             58 BANK0     11     7      4
  1179                           ;!                            ___flmul (ARG)
  1180                           ;!                              _scale (ARG)
  1181                           ;! ---------------------------------------------------------------------------------
  1182                           ;! (2) ___flsub                                              8     0      8    2485
  1183                           ;!                                              4 BANK1      8     0      8
  1184                           ;!                            ___fladd
  1185                           ;!                           ___xxtofl (ARG)
  1186                           ;! ---------------------------------------------------------------------------------
  1187                           ;! (3) ___fladd                                             24    16      8    2288
  1188                           ;!                                             59 BANK0     20    12      8
  1189                           ;!                                              0 BANK1      4     4      0
  1190                           ;!                             _fround (ARG)
  1191                           ;! ---------------------------------------------------------------------------------
  1192                           ;! (2) ___flneg                                              4     0      4     121
  1193                           ;!                                              0 COMMON     4     0      4
  1194                           ;! ---------------------------------------------------------------------------------
  1195                           ;! (2) ___flge                                              16     8      8     790
  1196                           ;!                                              0 COMMON     8     0      8
  1197                           ;!                                              0 BANK0      8     8      0
  1198                           ;! ---------------------------------------------------------------------------------
  1199                           ;! (2) ___fleq                                              12     4      8     394
  1200                           ;!                                              0 COMMON    12     4      8
  1201                           ;! ---------------------------------------------------------------------------------
  1202                           ;! (1) _adc_start                                            0     0      0       0
  1203                           ;! ---------------------------------------------------------------------------------
  1204                           ;! (1) _adc_read                                             4     0      4    6292
  1205                           ;!                                             39 BANK0      4     0      4
  1206                           ;!                            ___fldiv
  1207                           ;!                            ___flmul
  1208                           ;!                           ___xxtofl
  1209                           ;! ---------------------------------------------------------------------------------
  1210                           ;! (2) ___xxtofl                                            14    10      4     474
  1211                           ;!                                              0 COMMON    14    10      4
  1212                           ;! ---------------------------------------------------------------------------------
  1213                           ;! (3) ___flmul                                             26    18      8    4545
  1214                           ;!                                             13 BANK0     26    18      8
  1215                           ;!                          __Umul8_16
  1216                           ;!                            ___awdiv (ARG)
  1217                           ;!                            ___awmod (ARG)
  1218                           ;!                            ___fldiv (ARG)
  1219                           ;!                            ___lwdiv (ARG)
  1220                           ;!                            ___lwmod (ARG)
  1221                           ;! ---------------------------------------------------------------------------------
  1222                           ;! (4) __Umul8_16                                            9     7      2     799
  1223                           ;!                                              0 COMMON     9     7      2
  1224                           ;! ---------------------------------------------------------------------------------
  1225                           ;! (2) ___fldiv                                             26    18      8    1273
  1226                           ;!                                              0 COMMON    13     5      8
  1227                           ;!                                              0 BANK0     13    13      0
  1228                           ;! ---------------------------------------------------------------------------------
  1229                           ;! (1) _adc_init                                             0     0      0       0
  1230                           ;! ---------------------------------------------------------------------------------
  1231                           ;! Estimated maximum stack depth 4
  1232                           ;! ---------------------------------------------------------------------------------
  1233                           ;!
  1234                           ;! Call Graph Graphs:
  1235                           ;!
  1236                           ;! _main (ROOT)
  1237                           ;!   _adc_init
  1238                           ;!   _adc_read
  1239                           ;!     ___fldiv
  1240                           ;!     ___flmul
  1241                           ;!       __Umul8_16
  1242                           ;!       ___awdiv (ARG)
  1243                           ;!         ___awmod (ARG)
  1244                           ;!       ___awmod (ARG)
  1245                           ;!       ___fldiv (ARG)
  1246                           ;!       ___lwdiv (ARG)
  1247                           ;!         ___lwmod (ARG)
  1248                           ;!       ___lwmod (ARG)
  1249                           ;!     ___xxtofl
  1250                           ;!   _adc_start
  1251                           ;!   _sprintf
  1252                           ;!     ___awdiv
  1253                           ;!       ___awmod (ARG)
  1254                           ;!     ___fladd
  1255                           ;!       _fround (ARG)
  1256                           ;!         ___flmul
  1257                           ;!           __Umul8_16
  1258                           ;!           ___awdiv (ARG)
  1259                           ;!             ___awmod (ARG)
  1260                           ;!           ___awmod (ARG)
  1261                           ;!           ___fldiv (ARG)
  1262                           ;!           ___lwdiv (ARG)
  1263                           ;!             ___lwmod (ARG)
  1264                           ;!           ___lwmod (ARG)
  1265                           ;!         ___lwdiv
  1266                           ;!           ___lwmod (ARG)
  1267                           ;!         ___lwmod
  1268                           ;!     ___fleq
  1269                           ;!     ___flge
  1270                           ;!     ___flmul
  1271                           ;!       __Umul8_16
  1272                           ;!       ___awdiv (ARG)
  1273                           ;!         ___awmod (ARG)
  1274                           ;!       ___awmod (ARG)
  1275                           ;!       ___fldiv (ARG)
  1276                           ;!       ___lwdiv (ARG)
  1277                           ;!         ___lwmod (ARG)
  1278                           ;!       ___lwmod (ARG)
  1279                           ;!     ___flneg
  1280                           ;!     ___flsub
  1281                           ;!       ___fladd
  1282                           ;!         _fround (ARG)
  1283                           ;!           ___flmul
  1284                           ;!             __Umul8_16
  1285                           ;!             ___awdiv (ARG)
  1286                           ;!               ___awmod (ARG)
  1287                           ;!             ___awmod (ARG)
  1288                           ;!             ___fldiv (ARG)
  1289                           ;!             ___lwdiv (ARG)
  1290                           ;!               ___lwmod (ARG)
  1291                           ;!             ___lwmod (ARG)
  1292                           ;!           ___lwdiv
  1293                           ;!             ___lwmod (ARG)
  1294                           ;!           ___lwmod
  1295                           ;!       ___xxtofl (ARG)
  1296                           ;!     ___fltol
  1297                           ;!       ___flmul (ARG)
  1298                           ;!         __Umul8_16
  1299                           ;!         ___awdiv (ARG)
  1300                           ;!           ___awmod (ARG)
  1301                           ;!         ___awmod (ARG)
  1302                           ;!         ___fldiv (ARG)
  1303                           ;!         ___lwdiv (ARG)
  1304                           ;!           ___lwmod (ARG)
  1305                           ;!         ___lwmod (ARG)
  1306                           ;!       _scale (ARG)
  1307                           ;!         ___awdiv
  1308                           ;!           ___awmod (ARG)
  1309                           ;!         ___awmod
  1310                           ;!         ___flmul
  1311                           ;!           __Umul8_16
  1312                           ;!           ___awdiv (ARG)
  1313                           ;!             ___awmod (ARG)
  1314                           ;!           ___awmod (ARG)
  1315                           ;!           ___fldiv (ARG)
  1316                           ;!           ___lwdiv (ARG)
  1317                           ;!             ___lwmod (ARG)
  1318                           ;!           ___lwmod (ARG)
  1319                           ;!     ___lldiv
  1320                           ;!     ___llmod
  1321                           ;!     ___wmul
  1322                           ;!     ___xxtofl
  1323                           ;!     __div_to_l_
  1324                           ;!     __tdiv_to_l_
  1325                           ;!     _fround
  1326                           ;!       ___flmul
  1327                           ;!         __Umul8_16
  1328                           ;!         ___awdiv (ARG)
  1329                           ;!           ___awmod (ARG)
  1330                           ;!         ___awmod (ARG)
  1331                           ;!         ___fldiv (ARG)
  1332                           ;!         ___lwdiv (ARG)
  1333                           ;!           ___lwmod (ARG)
  1334                           ;!         ___lwmod (ARG)
  1335                           ;!       ___lwdiv
  1336                           ;!         ___lwmod (ARG)
  1337                           ;!       ___lwmod
  1338                           ;!     _scale
  1339                           ;!       ___awdiv
  1340                           ;!         ___awmod (ARG)
  1341                           ;!       ___awmod
  1342                           ;!       ___flmul
  1343                           ;!         __Umul8_16
  1344                           ;!         ___awdiv (ARG)
  1345                           ;!           ___awmod (ARG)
  1346                           ;!         ___awmod (ARG)
  1347                           ;!         ___fldiv (ARG)
  1348                           ;!         ___lwdiv (ARG)
  1349                           ;!           ___lwmod (ARG)
  1350                           ;!         ___lwmod (ARG)
  1351                           ;!   _str_transmit
  1352                           ;!     _transmit
  1353                           ;!   _uart_init
  1354                           ;!
  1355                           
  1356                           ;! Address spaces:
  1357                           
  1358                           ;!Name               Size   Autos  Total    Cost      Usage
  1359                           ;!BITCOMMON            E      0       0       0        0.0%
  1360                           ;!EEDATA             100      0       0       0        0.0%
  1361                           ;!NULL                 0      0       0       0        0.0%
  1362                           ;!CODE                 0      0       0       0        0.0%
  1363                           ;!COMMON               E      E       E       1      100.0%
  1364                           ;!BITSFR0              0      0       0       1        0.0%
  1365                           ;!SFR0                 0      0       0       1        0.0%
  1366                           ;!BITSFR1              0      0       0       2        0.0%
  1367                           ;!SFR1                 0      0       0       2        0.0%
  1368                           ;!STACK                0      0       0       2        0.0%
  1369                           ;!ABS                  0      0      A7       3        0.0%
  1370                           ;!BITBANK0            50      0       0       4        0.0%
  1371                           ;!BITSFR3              0      0       0       4        0.0%
  1372                           ;!SFR3                 0      0       0       4        0.0%
  1373                           ;!BANK0               50     4F      4F       5       98.8%
  1374                           ;!BITSFR2              0      0       0       5        0.0%
  1375                           ;!SFR2                 0      0       0       5        0.0%
  1376                           ;!BITBANK1            50      0       0       6        0.0%
  1377                           ;!BANK1               50     32      4A       7       92.5%
  1378                           ;!BITBANK3            60      0       0       8        0.0%
  1379                           ;!BANK3               60      0       0       9        0.0%
  1380                           ;!BITBANK2            60      0       0      10        0.0%
  1381                           ;!BANK2               60      0       0      11        0.0%
  1382                           ;!DATA                 0      0      A7      12        0.0%
  1383                           
  1384                           	global	_main
  1385                           
  1386 ;; *************** function _main *****************
  1387 ;; Defined at:
  1388 ;;		line 74 in file "newmain.c"
  1389 ;; Parameters:    Size  Location     Type
  1390 ;;		None
  1391 ;; Auto vars:     Size  Location     Type
  1392 ;;		None
  1393 ;; Return value:  Size  Location     Type
  1394 ;;                  1    wreg      void 
  1395 ;; Registers used:
  1396 ;;		wreg, fsr0l, fsr0h, status,2, status,0, btemp+1, pclath, cstack
  1397 ;; Tracked objects:
  1398 ;;		On entry : B00/0
  1399 ;;		On exit  : 0/0
  1400 ;;		Unchanged: 0/0
  1401 ;; Data sizes:     COMMON   BANK0   BANK1   BANK3   BANK2
  1402 ;;      Params:         0       0       0       0       0
  1403 ;;      Locals:         0       0       0       0       0
  1404 ;;      Temps:          0       0       3       0       0
  1405 ;;      Totals:         0       0       3       0       0
  1406 ;;Total ram usage:        3 bytes
  1407 ;; Hardware stack levels required when called:    4
  1408 ;; This function calls:
  1409 ;;		_adc_init
  1410 ;;		_adc_read
  1411 ;;		_adc_start
  1412 ;;		_sprintf
  1413 ;;		_str_transmit
  1414 ;;		_uart_init
  1415 ;; This function is called by:
  1416 ;;		Startup code after reset
  1417 ;; This function uses a non-reentrant model
  1418 ;;
  1419                           psect	maintext,global,class=CODE,delta=2,split=1,group=0
  1420                           	file	"newmain.c"
  1421                           	line	74
  1422                           global __pmaintext
  1423                           __pmaintext:	;psect for function _main
  1424  1CE9                     psect	maintext
  1425                           	file	"newmain.c"
  1426                           	line	74
  1427                           	global	__size_of_main
  1428                           	__size_of_main	equ	__end_of_main-_main
  1429  005D                     	
  1430                           _main:	
  1431  1CE9                     ;incstack = 0
  1432                           	opt	stack 4
  1433                           ; Regs used in _main: [wreg-fsr0h+status,2+status,0+btemp+1+pclath+cstack]
  1434                           	line	76
  1435                           	
  1436                           l3161:	
  1437  1CE9                     ;newmain.c: 76:  TRISC6=0;
  1438                           	bsf	status, 5	;RP0=1, select bank1
  1439  1CE9  1683               	bcf	status, 6	;RP1=0, select bank1
  1440  1CEA  1303               	bcf	(1086/8)^080h,(1086)&7	;volatile
  1441  1CEB  1307               	line	77
  1442                           ;newmain.c: 77:  TRISC7=1;
  1443                           	bsf	(1087/8)^080h,(1087)&7	;volatile
  1444  1CEC  1787               	line	78
  1445                           	
  1446                           l3163:	
  1447  1CED                     ;newmain.c: 78:  uart_init();
  1448                           	fcall	_uart_init
  1449  1CED  160A  158A  2345  160A  158A  	line	79
  1450                           	
  1451                           l3165:	
  1452  1CF2                     ;newmain.c: 79:     adc_init();
  1453                           	fcall	_adc_init
  1454  1CF2  120A  158A  2000  160A  158A  	goto	l3167
  1455  1CF7  2CF8               	line	80
  1456                           ;newmain.c: 80: while(1)
  1457                           	
  1458                           l64:	
  1459  1CF8                     	line	82
  1460                           	
  1461                           l3167:	
  1462  1CF8                     ;newmain.c: 81: {;newmain.c: 82:     adc_start();
  1463                           	fcall	_adc_start
  1464  1CF8  120A  118A  2003  160A  158A  	line	83
  1465                           	
  1466                           l3169:	
  1467  1CFD                     ;newmain.c: 83:     adc_val=adc_read();
  1468                           	fcall	_adc_read
  1469  1CFD  160A  158A  261C  160A  158A  	bcf	status, 5	;RP0=0, select bank0
  1470  1D02  1283               	bcf	status, 6	;RP1=0, select bank0
  1471  1D03  1303               	movf	(3+(?_adc_read)),w
  1472  1D04  084A               	bsf	status, 5	;RP0=1, select bank1
  1473  1D05  1683               	bcf	status, 6	;RP1=0, select bank1
  1474  1D06  1303               	movwf	(_adc_val+3)^080h
  1475  1D07  00E9               	bcf	status, 5	;RP0=0, select bank0
  1476  1D08  1283               	bcf	status, 6	;RP1=0, select bank0
  1477  1D09  1303               	movf	(2+(?_adc_read)),w
  1478  1D0A  0849               	bsf	status, 5	;RP0=1, select bank1
  1479  1D0B  1683               	bcf	status, 6	;RP1=0, select bank1
  1480  1D0C  1303               	movwf	(_adc_val+2)^080h
  1481  1D0D  00E8               	bcf	status, 5	;RP0=0, select bank0
  1482  1D0E  1283               	bcf	status, 6	;RP1=0, select bank0
  1483  1D0F  1303               	movf	(1+(?_adc_read)),w
  1484  1D10  0848               	bsf	status, 5	;RP0=1, select bank1
  1485  1D11  1683               	bcf	status, 6	;RP1=0, select bank1
  1486  1D12  1303               	movwf	(_adc_val+1)^080h
  1487  1D13  00E7               	bcf	status, 5	;RP0=0, select bank0
  1488  1D14  1283               	bcf	status, 6	;RP1=0, select bank0
  1489  1D15  1303               	movf	(0+(?_adc_read)),w
  1490  1D16  0847               	bsf	status, 5	;RP0=1, select bank1
  1491  1D17  1683               	bcf	status, 6	;RP1=0, select bank1
  1492  1D18  1303               	movwf	(_adc_val)^080h
  1493  1D19  00E6               
  1494                           	line	84
  1495                           	
  1496                           l3171:	
  1497  1D1A                     ;newmain.c: 84:     sprintf(str,": %f V \n\r",adc_val);
  1498                           	movlw	(low((((STR_1)-__stringbase)|8000h)))&0ffh
  1499  1D1A  3091               	movwf	(??_main+0)^080h+0
  1500  1D1B  00CF               	movf	(??_main+0)^080h+0,w
  1501  1D1C  084F               	movwf	(sprintf@f)^080h
  1502  1D1D  00AC               	movf	(_adc_val+3)^080h,w
  1503  1D1E  0869               	movwf	3+(?_sprintf)^080h+01h
  1504  1D1F  00B0               	movf	(_adc_val+2)^080h,w
  1505  1D20  0868               	movwf	2+(?_sprintf)^080h+01h
  1506  1D21  00AF               	movf	(_adc_val+1)^080h,w
  1507  1D22  0867               	movwf	1+(?_sprintf)^080h+01h
  1508  1D23  00AE               	movf	(_adc_val)^080h,w
  1509  1D24  0866               	movwf	0+(?_sprintf)^080h+01h
  1510  1D25  00AD               
  1511                           	movlw	(low(_str|((0x0)<<8)))&0ffh
  1512  1D26  30D2               	fcall	_sprintf
  1513  1D27  120A  118A  21F4  160A  158A  	line	85
  1514                           ;newmain.c: 85:  str_transmit(str);
  1515                           	movlw	(low(_str|((0x0)<<8)))&0ffh
  1516  1D2C  30D2               	fcall	_str_transmit
  1517  1D2D  120A  118A  2007  160A  158A  	line	86
  1518                           	
  1519                           l3173:	
  1520  1D32                     ;newmain.c: 86:     _delay((unsigned long)((300)*(16000000/4000.0)));
  1521                           	opt asmopt_push
  1522                           opt asmopt_off
  1523                           movlw  7
  1524  1D32  3007               	bsf	status, 5	;RP0=1, select bank1
  1525  1D33  1683               	bcf	status, 6	;RP1=0, select bank1
  1526  1D34  1303               movwf	((??_main+0)^080h+0+2),f
  1527  1D35  00D1               movlw	23
  1528  1D36  3017               movwf	((??_main+0)^080h+0+1),f
  1529  1D37  00D0               	movlw	105
  1530  1D38  3069               movwf	((??_main+0)^080h+0),f
  1531  1D39  00CF               	u5677:
  1532  1D3A                     decfsz	((??_main+0)^080h+0),f
  1533  1D3A  0BCF               	goto	u5677
  1534  1D3B  2D3A               	decfsz	((??_main+0)^080h+0+1),f
  1535  1D3C  0BD0               	goto	u5677
  1536  1D3D  2D3A               	decfsz	((??_main+0)^080h+0+2),f
  1537  1D3E  0BD1               	goto	u5677
  1538  1D3F  2D3A               	nop2
  1539  1D40  2D41               opt asmopt_pop
  1540                           
  1541                           	goto	l3167
  1542  1D41  2CF8               	line	87
  1543                           ;newmain.c: 87: }
  1544                           	
  1545                           l65:	
  1546  1D42                     	goto	l3167
  1547  1D42  2CF8               	
  1548                           l66:	
  1549  1D43                     	line	88
  1550                           	
  1551                           l67:	
  1552  1D43                     	global	start
  1553                           	ljmp	start
  1554  1D43  120A  118A  2800   	opt stack 0
  1555                           GLOBAL	__end_of_main
  1556                           	__end_of_main:
  1557  1D46                     	signat	_main,89
  1558                           	global	_uart_init
  1559                           
  1560 ;; *************** function _uart_init *****************
  1561 ;; Defined at:
  1562 ;;		line 18 in file "newmain.c"
  1563 ;; Parameters:    Size  Location     Type
  1564 ;;		None
  1565 ;; Auto vars:     Size  Location     Type
  1566 ;;		None
  1567 ;; Return value:  Size  Location     Type
  1568 ;;                  1    wreg      void 
  1569 ;; Registers used:
  1570 ;;		wreg
  1571 ;; Tracked objects:
  1572 ;;		On entry : 0/0
  1573 ;;		On exit  : 0/0
  1574 ;;		Unchanged: 0/0
  1575 ;; Data sizes:     COMMON   BANK0   BANK1   BANK3   BANK2
  1576 ;;      Params:         0       0       0       0       0
  1577 ;;      Locals:         0       0       0       0       0
  1578 ;;      Temps:          0       0       0       0       0
  1579 ;;      Totals:         0       0       0       0       0
  1580 ;;Total ram usage:        0 bytes
  1581 ;; Hardware stack levels used:    1
  1582 ;; This function calls:
  1583 ;;		Nothing
  1584 ;; This function is called by:
  1585 ;;		_main
  1586 ;; This function uses a non-reentrant model
  1587 ;;
  1588                           psect	text1,local,class=CODE,delta=2,merge=1,group=0
  1589                           	line	18
  1590                           global __ptext1
  1591                           __ptext1:	;psect for function _uart_init
  1592  1B45                     psect	text1
  1593                           	file	"newmain.c"
  1594                           	line	18
  1595                           	global	__size_of_uart_init
  1596                           	__size_of_uart_init	equ	__end_of_uart_init-_uart_init
  1597  000D                     	
  1598                           _uart_init:	
  1599  1B45                     ;incstack = 0
  1600                           	opt	stack 7
  1601                           ; Regs used in _uart_init: [wreg]
  1602                           	line	20
  1603                           	
  1604                           l2967:	
  1605  1B45                     ;newmain.c: 20:  TXSTA=0x24;
  1606                           	movlw	low(024h)
  1607  1B45  3024               	bsf	status, 5	;RP0=1, select bank1
  1608  1B46  1683               	bcf	status, 6	;RP1=0, select bank1
  1609  1B47  1303               	movwf	(152)^080h	;volatile
  1610  1B48  0098               	line	21
  1611                           ;newmain.c: 21:  RCSTA=0x90;
  1612                           	movlw	low(090h)
  1613  1B49  3090               	bcf	status, 5	;RP0=0, select bank0
  1614  1B4A  1283               	bcf	status, 6	;RP1=0, select bank0
  1615  1B4B  1303               	movwf	(24)	;volatile
  1616  1B4C  0098               	line	22
  1617                           ;newmain.c: 22:  SPBRG=103;
  1618                           	movlw	low(067h)
  1619  1B4D  3067               	bsf	status, 5	;RP0=1, select bank1
  1620  1B4E  1683               	bcf	status, 6	;RP1=0, select bank1
  1621  1B4F  1303               	movwf	(153)^080h	;volatile
  1622  1B50  0099               	line	23
  1623                           	
  1624                           l35:	
  1625  1B51                     	return
  1626  1B51  0008               	opt stack 0
  1627                           GLOBAL	__end_of_uart_init
  1628                           	__end_of_uart_init:
  1629  1B52                     	signat	_uart_init,89
  1630                           	global	_str_transmit
  1631                           
  1632 ;; *************** function _str_transmit *****************
  1633 ;; Defined at:
  1634 ;;		line 31 in file "newmain.c"
  1635 ;; Parameters:    Size  Location     Type
  1636 ;;  p               1    wreg     PTR unsigned char 
  1637 ;;		 -> str(20), 
  1638 ;; Auto vars:     Size  Location     Type
  1639 ;;  p               1    2[COMMON] PTR unsigned char 
  1640 ;;		 -> str(20), 
  1641 ;; Return value:  Size  Location     Type
  1642 ;;                  1    wreg      void 
  1643 ;; Registers used:
  1644 ;;		wreg, fsr0l, fsr0h, status,2, status,0, pclath, cstack
  1645 ;; Tracked objects:
  1646 ;;		On entry : 0/0
  1647 ;;		On exit  : 0/0
  1648 ;;		Unchanged: 0/0
  1649 ;; Data sizes:     COMMON   BANK0   BANK1   BANK3   BANK2
  1650 ;;      Params:         0       0       0       0       0
  1651 ;;      Locals:         1       0       0       0       0
  1652 ;;      Temps:          1       0       0       0       0
  1653 ;;      Totals:         2       0       0       0       0
  1654 ;;Total ram usage:        2 bytes
  1655 ;; Hardware stack levels used:    1
  1656 ;; Hardware stack levels required when called:    1
  1657 ;; This function calls:
  1658 ;;		_transmit
  1659 ;; This function is called by:
  1660 ;;		_main
  1661 ;; This function uses a non-reentrant model
  1662 ;;
  1663                           psect	text2,local,class=CODE,delta=2,merge=1,group=0
  1664                           	line	31
  1665                           global __ptext2
  1666                           __ptext2:	;psect for function _str_transmit
  1667  0007                     psect	text2
  1668                           	file	"newmain.c"
  1669                           	line	31
  1670                           	global	__size_of_str_transmit
  1671                           	__size_of_str_transmit	equ	__end_of_str_transmit-_str_transmit
  1672  001A                     	
  1673                           _str_transmit:	
  1674  0007                     ;incstack = 0
  1675                           	opt	stack 6
  1676                           ; Regs used in _str_transmit: [wreg-fsr0h+status,2+status,0+pclath+cstack]
  1677                           ;str_transmit@p stored from wreg
  1678                           	movwf	(str_transmit@p)
  1679  0007  00F2               	line	33
  1680                           	
  1681                           l2969:	
  1682  0008                     ;newmain.c: 31: void str_transmit(char *p);newmain.c: 32: {;newmain.c: 33:  while(*p!='\
                                 0')
  1683                           	goto	l2975
  1684  0008  2817               	
  1685                           l45:	
  1686  0009                     	line	35
  1687                           	
  1688                           l2971:	
  1689  0009                     ;newmain.c: 34:   {;newmain.c: 35:    transmit(*p);
  1690                           	movf	(str_transmit@p),w
  1691  0009  0872               	movwf	fsr0
  1692  000A  0084               	bcf	status, 7	;select IRP bank0
  1693  000B  1383               	movf	indf,w
  1694  000C  0800               	fcall	_transmit
  1695  000D  160A  158A  2352  120A  118A  	line	36
  1696                           	
  1697                           l2973:	
  1698  0012                     ;newmain.c: 36:    p++;
  1699                           	movlw	low(01h)
  1700  0012  3001               	movwf	(??_str_transmit+0)+0
  1701  0013  00F1               	movf	(??_str_transmit+0)+0,w
  1702  0014  0871               	addwf	(str_transmit@p),f
  1703  0015  07F2               	goto	l2975
  1704  0016  2817               	line	37
  1705                           ;newmain.c: 37:    }
  1706                           	
  1707                           l44:	
  1708  0017                     	line	33
  1709                           	
  1710                           l2975:	
  1711  0017                     ;newmain.c: 33:  while(*p!='\0')
  1712                           	movf	(str_transmit@p),w
  1713  0017  0872               	movwf	fsr0
  1714  0018  0084               	bcf	status, 7	;select IRP bank0
  1715  0019  1383               	movf	(indf),w
  1716  001A  0800               	btfss	status,2
  1717  001B  1D03               	goto	u5361
  1718  001C  281E               	goto	u5360
  1719  001D  281F               u5361:
  1720  001E                     	goto	l2971
  1721  001E  2809               u5360:
  1722  001F                     	goto	l47
  1723  001F  2820               	
  1724                           l46:	
  1725  0020                     	line	38
  1726                           	
  1727                           l47:	
  1728  0020                     	return
  1729  0020  0008               	opt stack 0
  1730                           GLOBAL	__end_of_str_transmit
  1731                           	__end_of_str_transmit:
  1732  0021                     	signat	_str_transmit,4217
  1733                           	global	_transmit
  1734                           
  1735 ;; *************** function _transmit *****************
  1736 ;; Defined at:
  1737 ;;		line 25 in file "newmain.c"
  1738 ;; Parameters:    Size  Location     Type
  1739 ;;  b               1    wreg     unsigned char 
  1740 ;; Auto vars:     Size  Location     Type
  1741 ;;  b               1    0[COMMON] unsigned char 
  1742 ;; Return value:  Size  Location     Type
  1743 ;;                  1    wreg      void 
  1744 ;; Registers used:
  1745 ;;		wreg
  1746 ;; Tracked objects:
  1747 ;;		On entry : 0/0
  1748 ;;		On exit  : 0/0
  1749 ;;		Unchanged: 0/0
  1750 ;; Data sizes:     COMMON   BANK0   BANK1   BANK3   BANK2
  1751 ;;      Params:         0       0       0       0       0
  1752 ;;      Locals:         1       0       0       0       0
  1753 ;;      Temps:          0       0       0       0       0
  1754 ;;      Totals:         1       0       0       0       0
  1755 ;;Total ram usage:        1 bytes
  1756 ;; Hardware stack levels used:    1
  1757 ;; This function calls:
  1758 ;;		Nothing
  1759 ;; This function is called by:
  1760 ;;		_str_transmit
  1761 ;; This function uses a non-reentrant model
  1762 ;;
  1763                           psect	text3,local,class=CODE,delta=2,merge=1,group=0
  1764                           	line	25
  1765                           global __ptext3
  1766                           __ptext3:	;psect for function _transmit
  1767  1B52                     psect	text3
  1768                           	file	"newmain.c"
  1769                           	line	25
  1770                           	global	__size_of_transmit
  1771                           	__size_of_transmit	equ	__end_of_transmit-_transmit
  1772  000E                     	
  1773                           _transmit:	
  1774  1B52                     ;incstack = 0
  1775                           	opt	stack 6
  1776                           ; Regs used in _transmit: [wreg]
  1777                           ;transmit@b stored from wreg
  1778                           	movwf	(transmit@b)
  1779  1B52  00F0               	line	27
  1780                           	
  1781                           l2471:	
  1782  1B53                     ;newmain.c: 25: void transmit(char b);newmain.c: 26: {;newmain.c: 27:  TXREG=b;
  1783                           	movf	(transmit@b),w
  1784  1B53  0870               	bcf	status, 5	;RP0=0, select bank0
  1785  1B54  1283               	bcf	status, 6	;RP1=0, select bank0
  1786  1B55  1303               	movwf	(25)	;volatile
  1787  1B56  0099               	line	28
  1788                           ;newmain.c: 28:  while(!TRMT);
  1789                           	goto	l38
  1790  1B57  2B58               	
  1791                           l39:	
  1792  1B58                     	
  1793                           l38:	
  1794  1B58                     	bsf	status, 5	;RP0=1, select bank1
  1795  1B58  1683               	bcf	status, 6	;RP1=0, select bank1
  1796  1B59  1303               	btfss	(1217/8)^080h,(1217)&7	;volatile
  1797  1B5A  1C98               	goto	u4021
  1798  1B5B  2B5D               	goto	u4020
  1799  1B5C  2B5E               u4021:
  1800  1B5D                     	goto	l38
  1801  1B5D  2B58               u4020:
  1802  1B5E                     	goto	l41
  1803  1B5E  2B5F               	
  1804                           l40:	
  1805  1B5F                     	line	29
  1806                           	
  1807                           l41:	
  1808  1B5F                     	return
  1809  1B5F  0008               	opt stack 0
  1810                           GLOBAL	__end_of_transmit
  1811                           	__end_of_transmit:
  1812  1B60                     	signat	_transmit,4217
  1813                           	global	_sprintf
  1814                           
  1815 ;; *************** function _sprintf *****************
  1816 ;; Defined at:
  1817 ;;		line 500 in file "C:\Program Files (x86)\Microchip\xc8\v2.00\pic\sources\c90\common\doprnt.c"
  1818 ;; Parameters:    Size  Location     Type
  1819 ;;  sp              1    wreg     PTR unsigned char 
  1820 ;;		 -> str(20), 
  1821 ;;  f               1   12[BANK1 ] PTR const unsigned char 
  1822 ;;		 -> STR_1(10), 
  1823 ;; Auto vars:     Size  Location     Type
  1824 ;;  sp              1   41[BANK1 ] PTR unsigned char 
  1825 ;;		 -> str(20), 
  1826 ;;  fval            4   42[BANK1 ] PTR unsigned char 
  1827 ;;  tmpval          4   37[BANK1 ] struct .
  1828 ;;  val             4   31[BANK1 ] unsigned long 
  1829 ;;  eexp            2   35[BANK1 ] int 
  1830 ;;  prec            2   29[BANK1 ] int 
  1831 ;;  flag            2   27[BANK1 ] unsigned short 
  1832 ;;  cp              2    0        PTR const unsigned char 
  1833 ;;  len             2    0        unsigned int 
  1834 ;;  width           2    0        int 
  1835 ;;  c               1   46[BANK1 ] unsigned char 
  1836 ;;  ap              1   26[BANK1 ] PTR void [1]
  1837 ;;		 -> ?_sprintf(2), 
  1838 ;;  d               1    0        unsigned char 
  1839 ;; Return value:  Size  Location     Type
  1840 ;;                  2   12[BANK1 ] int 
  1841 ;; Registers used:
  1842 ;;		wreg, fsr0l, fsr0h, status,2, status,0, btemp+1, pclath, cstack
  1843 ;; Tracked objects:
  1844 ;;		On entry : 0/0
  1845 ;;		On exit  : 0/0
  1846 ;;		Unchanged: 0/0
  1847 ;; Data sizes:     COMMON   BANK0   BANK1   BANK3   BANK2
  1848 ;;      Params:         0       0       5       0       0
  1849 ;;      Locals:         0       0      25       0       0
  1850 ;;      Temps:          0       0       5       0       0
  1851 ;;      Totals:         0       0      35       0       0
  1852 ;;Total ram usage:       35 bytes
  1853 ;; Hardware stack levels used:    1
  1854 ;; Hardware stack levels required when called:    3
  1855 ;; This function calls:
  1856 ;;		___awdiv
  1857 ;;		___fladd
  1858 ;;		___fleq
  1859 ;;		___flge
  1860 ;;		___flmul
  1861 ;;		___flneg
  1862 ;;		___flsub
  1863 ;;		___fltol
  1864 ;;		___lldiv
  1865 ;;		___llmod
  1866 ;;		___wmul
  1867 ;;		___xxtofl
  1868 ;;		__div_to_l_
  1869 ;;		__tdiv_to_l_
  1870 ;;		_fround
  1871 ;;		_scale
  1872 ;; This function is called by:
  1873 ;;		_main
  1874 ;; This function uses a non-reentrant model
  1875 ;;
  1876                           psect	text4,local,class=CODE,delta=2,merge=1,group=0
  1877                           	file	"C:\Program Files (x86)\Microchip\xc8\v2.00\pic\sources\c90\common\doprnt.c"
  1878                           	line	500
  1879                           global __ptext4
  1880                           __ptext4:	;psect for function _sprintf
  1881  01F4                     psect	text4
  1882                           	file	"C:\Program Files (x86)\Microchip\xc8\v2.00\pic\sources\c90\common\doprnt.c"
  1883                           	line	500
  1884                           	global	__size_of_sprintf
  1885                           	__size_of_sprintf	equ	__end_of_sprintf-_sprintf
  1886  05FF                     	
  1887                           _sprintf:	
  1888  01F4                     ;incstack = 0
  1889                           	opt	stack 4
  1890                           ; Regs used in _sprintf: [wreg-fsr0h+status,2+status,0+btemp+1+pclath+cstack]
  1891                           ;sprintf@sp stored from wreg
  1892                           	bsf	status, 5	;RP0=1, select bank1
  1893  01F4  1683               	bcf	status, 6	;RP1=0, select bank1
  1894  01F5  1303               	movwf	(sprintf@sp)^080h
  1895  01F6  00C9               	line	545
  1896                           	
  1897                           l2991:	
  1898  01F7                     ;C:\Program Files (x86)\Microchip\xc8\v2.00\pic\sources\c90\common\doprnt.c: 500: sprint
                                 f(char * sp, const char * f, ...);C:\Program Files (x86)\Microchip\xc8\v2.00\pic\sources
                                 \c90\common\doprnt.c: 501: {;C:\Program Files (x86)\Microchip\xc8\v2.00\pic\sources\c90\
                                 common\doprnt.c: 502:  va_list ap;;C:\Program Files (x86)\Microchip\xc8\v2.00\pic\source
                                 s\c90\common\doprnt.c: 507:  char c;;C:\Program Files (x86)\Microchip\xc8\v2.00\pic\sour
                                 ces\c90\common\doprnt.c: 509:  int width;;C:\Program Files (x86)\Microchip\xc8\v2.00\pic
                                 \sources\c90\common\doprnt.c: 512:  int prec;
  1899                           	movlw	(low(?_sprintf|((0x0)<<8)+01h))&0ffh
  1900  01F7  30AD               	movwf	(??_sprintf+0)^080h+0
  1901  01F8  00B1               	movf	(??_sprintf+0)^080h+0,w
  1902  01F9  0831               	movwf	(sprintf@ap)^080h
  1903  01FA  00BA               	line	548
  1904                           ;C:\Program Files (x86)\Microchip\xc8\v2.00\pic\sources\c90\common\doprnt.c: 548:  while
                                 ((c = *f++)) {
  1905                           	goto	l3151
  1906  01FB  2FD9               	
  1907                           l183:	
  1908  01FC                     	line	550
  1909                           	
  1910                           l2993:	
  1911  01FC                     ;C:\Program Files (x86)\Microchip\xc8\v2.00\pic\sources\c90\common\doprnt.c: 550:   if(c
                                  != '%')
  1912                           		movlw	37
  1913  01FC  3025               	xorwf	((sprintf@c)^080h),w
  1914  01FD  064E               	btfsc	status,2
  1915  01FE  1903               	goto	u5381
  1916  01FF  2A01               	goto	u5380
  1917  0200  2A02               u5381:
  1918  0201                     	goto	l2999
  1919  0201  2A0E               u5380:
  1920  0202                     	line	553
  1921                           	
  1922                           l2995:	
  1923  0202                     ;C:\Program Files (x86)\Microchip\xc8\v2.00\pic\sources\c90\common\doprnt.c: 552:   {;C:
                                 \Program Files (x86)\Microchip\xc8\v2.00\pic\sources\c90\common\doprnt.c: 553:    ((*sp+
                                 + = (c)));
  1924                           	movf	(sprintf@c)^080h,w
  1925  0202  084E               	movwf	(??_sprintf+0)^080h+0
  1926  0203  00B1               	movf	(sprintf@sp)^080h,w
  1927  0204  0849               	movwf	fsr0
  1928  0205  0084               	movf	(??_sprintf+0)^080h+0,w
  1929  0206  0831               	bcf	status, 7	;select IRP bank0
  1930  0207  1383               	movwf	indf
  1931  0208  0080               	
  1932                           l2997:	
  1933  0209                     	movlw	low(01h)
  1934  0209  3001               	movwf	(??_sprintf+0)^080h+0
  1935  020A  00B1               	movf	(??_sprintf+0)^080h+0,w
  1936  020B  0831               	addwf	(sprintf@sp)^080h,f
  1937  020C  07C9               	line	554
  1938                           ;C:\Program Files (x86)\Microchip\xc8\v2.00\pic\sources\c90\common\doprnt.c: 554:    con
                                 tinue;
  1939                           	goto	l3151
  1940  020D  2FD9               	line	555
  1941                           ;C:\Program Files (x86)\Microchip\xc8\v2.00\pic\sources\c90\common\doprnt.c: 555:   }
  1942                           	
  1943                           l184:	
  1944  020E                     	line	560
  1945                           	
  1946                           l2999:	
  1947  020E                     ;C:\Program Files (x86)\Microchip\xc8\v2.00\pic\sources\c90\common\doprnt.c: 560:   flag
                                  = 0;
  1948                           	clrf	(sprintf@flag)^080h
  1949  020E  01BB               	clrf	(sprintf@flag+1)^080h
  1950  020F  01BC               	line	654
  1951                           ;C:\Program Files (x86)\Microchip\xc8\v2.00\pic\sources\c90\common\doprnt.c: 654:   swit
                                 ch(c = *f++) {
  1952                           	goto	l3003
  1953  0210  2A16               	line	656
  1954                           ;C:\Program Files (x86)\Microchip\xc8\v2.00\pic\sources\c90\common\doprnt.c: 656:   case
                                  0:
  1955                           	
  1956                           l186:	
  1957  0211                     	line	657
  1958                           ;C:\Program Files (x86)\Microchip\xc8\v2.00\pic\sources\c90\common\doprnt.c: 657:    got
                                 o alldone;
  1959                           	goto	l3153
  1960  0211  2FED               	line	681
  1961                           ;C:\Program Files (x86)\Microchip\xc8\v2.00\pic\sources\c90\common\doprnt.c: 681:   case
                                  'f':
  1962                           	
  1963                           l188:	
  1964  0212                     	line	682
  1965                           ;C:\Program Files (x86)\Microchip\xc8\v2.00\pic\sources\c90\common\doprnt.c: 682:    fla
                                 g |= 0x400;
  1966                           	bsf	(sprintf@flag)^080h+(10/8),(10)&7
  1967  0212  153C               	line	683
  1968                           ;C:\Program Files (x86)\Microchip\xc8\v2.00\pic\sources\c90\common\doprnt.c: 683:    bre
                                 ak;
  1969                           	goto	l3005
  1970  0213  2A30               	line	821
  1971                           ;C:\Program Files (x86)\Microchip\xc8\v2.00\pic\sources\c90\common\doprnt.c: 821:   defa
                                 ult:
  1972                           	
  1973                           l190:	
  1974  0214                     	line	832
  1975                           ;C:\Program Files (x86)\Microchip\xc8\v2.00\pic\sources\c90\common\doprnt.c: 832:    con
                                 tinue;
  1976                           	goto	l3151
  1977  0214  2FD9               	line	841
  1978                           	
  1979                           l3001:	
  1980  0215                     ;C:\Program Files (x86)\Microchip\xc8\v2.00\pic\sources\c90\common\doprnt.c: 841:   }
  1981                           	goto	l3005
  1982  0215  2A30               	
  1983                           l185:	
  1984  0216                     	
  1985                           l3003:	
  1986  0216                     	movlw	01h
  1987  0216  3001               	addwf	(sprintf@f)^080h,f
  1988  0217  07AC               	movlw	-01h
  1989  0218  30FF               	addwf	(sprintf@f)^080h,w
  1990  0219  072C               	movwf	fsr0
  1991  021A  0084               	fcall	stringdir
  1992  021B  160A  158A  2000  120A  118A  	movwf	(sprintf@c)^080h
  1993  0220  00CE               	movwf	(??_sprintf+0)^080h+0
  1994  0221  00B1               	clrf	(??_sprintf+0)^080h+0+1
  1995  0222  01B2               	; Switch on 2 bytes has been partitioned into a top level switch of size 1, and 1 sub-s
                                 witches
  1996                           ; Switch size 1, requested type "space"
  1997                           ; Number of cases is 1, Range of values is 0 to 0
  1998                           ; switch strategies available:
  1999                           ; Name         Instructions Cycles
  2000                           ; simple_byte            4     3 (average)
  2001                           ; direct_byte           11     8 (fixed)
  2002                           ; jumptable            260     6 (fixed)
  2003                           ;	Chosen strategy is simple_byte
  2004                           
  2005                           	movf 1+(??_sprintf+0)^080h+0,w
  2006  0223  0832               	opt asmopt_push
  2007                           	opt asmopt_off
  2008                           	xorlw	0^0	; case 0
  2009  0224  3A00               	skipnz
  2010  0225  1903               	goto	l3195
  2011  0226  2A28               	goto	l3151
  2012  0227  2FD9               	opt asmopt_pop
  2013                           	
  2014                           l3195:	
  2015  0228                     ; Switch size 1, requested type "space"
  2016                           ; Number of cases is 2, Range of values is 0 to 102
  2017                           ; switch strategies available:
  2018                           ; Name         Instructions Cycles
  2019                           ; simple_byte            7     4 (average)
  2020                           ; jumptable            260     6 (fixed)
  2021                           ;	Chosen strategy is simple_byte
  2022                           
  2023                           	movf 0+(??_sprintf+0)^080h+0,w
  2024  0228  0831               	opt asmopt_push
  2025                           	opt asmopt_off
  2026                           	xorlw	0^0	; case 0
  2027  0229  3A00               	skipnz
  2028  022A  1903               	goto	l3153
  2029  022B  2FED               	xorlw	102^0	; case 102
  2030  022C  3A66               	skipnz
  2031  022D  1903               	goto	l188
  2032  022E  2A12               	goto	l3151
  2033  022F  2FD9               	opt asmopt_pop
  2034                           
  2035                           	
  2036                           l189:	
  2037  0230                     	line	844
  2038                           	
  2039                           l3005:	
  2040  0230                     ;C:\Program Files (x86)\Microchip\xc8\v2.00\pic\sources\c90\common\doprnt.c: 844:   if(f
                                 lag & (0x700)) {
  2041                           	movlw	0
  2042  0230  3000               	andwf	(sprintf@flag)^080h,w
  2043  0231  053B               	movwf	(??_sprintf+0)^080h+0
  2044  0232  00B1               	movlw	07h
  2045  0233  3007               	andwf	(sprintf@flag+1)^080h,w
  2046  0234  053C               	movwf	1+(??_sprintf+0)^080h+0
  2047  0235  00B2               	movf	((??_sprintf+0)^080h+0),w
  2048  0236  0831               iorwf	((??_sprintf+0)^080h+1),w
  2049  0237  0432               	btfsc	status,2
  2050  0238  1903               	goto	u5391
  2051  0239  2A3B               	goto	u5390
  2052  023A  2A3C               u5391:
  2053  023B                     	goto	l3145
  2054  023B  2FC0               u5390:
  2055  023C                     	line	848
  2056                           	
  2057                           l3007:	
  2058  023C                     ;C:\Program Files (x86)\Microchip\xc8\v2.00\pic\sources\c90\common\doprnt.c: 848:     pr
                                 ec = 6;
  2059                           	movlw	06h
  2060  023C  3006               	movwf	(sprintf@prec)^080h
  2061  023D  00BD               	movlw	0
  2062  023E  3000               	movwf	((sprintf@prec)^080h)+1
  2063  023F  00BE               	line	849
  2064                           	
  2065                           l3009:	
  2066  0240                     ;C:\Program Files (x86)\Microchip\xc8\v2.00\pic\sources\c90\common\doprnt.c: 849:    fva
                                 l = (*(double *)__va_arg((*(double **)ap), (double)0));
  2067                           	movf	(sprintf@ap)^080h,w
  2068  0240  083A               	movwf	fsr0
  2069  0241  0084               	bcf	status, 7	;select IRP bank0
  2070  0242  1383               	movf	indf,w
  2071  0243  0800               	movwf	(sprintf@fval)^080h
  2072  0244  00CA               	incf	fsr0,f
  2073  0245  0A84               	movf	indf,w
  2074  0246  0800               	movwf	(sprintf@fval+1)^080h
  2075  0247  00CB               	incf	fsr0,f
  2076  0248  0A84               	movf	indf,w
  2077  0249  0800               	movwf	(sprintf@fval+2)^080h
  2078  024A  00CC               	incf	fsr0,f
  2079  024B  0A84               	movf	indf,w
  2080  024C  0800               	movwf	(sprintf@fval+3)^080h
  2081  024D  00CD               	
  2082                           l3011:	
  2083  024E                     	movlw	low(04h)
  2084  024E  3004               	movwf	(??_sprintf+0)^080h+0
  2085  024F  00B1               	movf	(??_sprintf+0)^080h+0,w
  2086  0250  0831               	addwf	(sprintf@ap)^080h,f
  2087  0251  07BA               	line	850
  2088                           	
  2089                           l3013:	
  2090  0252                     ;C:\Program Files (x86)\Microchip\xc8\v2.00\pic\sources\c90\common\doprnt.c: 850:    if(
                                 fval < 0.0) {
  2091                           	movf	(sprintf@fval+3)^080h,w
  2092  0252  084D               	movwf	(___flge@ff1+3)
  2093  0253  00F3               	movf	(sprintf@fval+2)^080h,w
  2094  0254  084C               	movwf	(___flge@ff1+2)
  2095  0255  00F2               	movf	(sprintf@fval+1)^080h,w
  2096  0256  084B               	movwf	(___flge@ff1+1)
  2097  0257  00F1               	movf	(sprintf@fval)^080h,w
  2098  0258  084A               	movwf	(___flge@ff1)
  2099  0259  00F0               
  2100                           	movlw	0x0
  2101  025A  3000               	movwf	(___flge@ff2+3)
  2102  025B  00F7               	movlw	0x0
  2103  025C  3000               	movwf	(___flge@ff2+2)
  2104  025D  00F6               	movlw	0x0
  2105  025E  3000               	movwf	(___flge@ff2+1)
  2106  025F  00F5               	movlw	0x0
  2107  0260  3000               	movwf	(___flge@ff2)
  2108  0261  00F4               
  2109                           	fcall	___flge
  2110  0262  120A  158A  2058  120A  118A  	btfsc	status,0
  2111  0267  1803               	goto	u5401
  2112  0268  2A6A               	goto	u5400
  2113  0269  2A6B               u5401:
  2114  026A                     	goto	l3019
  2115  026A  2A89               u5400:
  2116  026B                     	line	851
  2117                           	
  2118                           l3015:	
  2119  026B                     ;C:\Program Files (x86)\Microchip\xc8\v2.00\pic\sources\c90\common\doprnt.c: 851:     fv
                                 al = -fval;
  2120                           	bsf	status, 5	;RP0=1, select bank1
  2121  026B  1683               	bcf	status, 6	;RP1=0, select bank1
  2122  026C  1303               	movf	(sprintf@fval+3)^080h,w
  2123  026D  084D               	movwf	(___flneg@f1+3)
  2124  026E  00F3               	movf	(sprintf@fval+2)^080h,w
  2125  026F  084C               	movwf	(___flneg@f1+2)
  2126  0270  00F2               	movf	(sprintf@fval+1)^080h,w
  2127  0271  084B               	movwf	(___flneg@f1+1)
  2128  0272  00F1               	movf	(sprintf@fval)^080h,w
  2129  0273  084A               	movwf	(___flneg@f1)
  2130  0274  00F0               
  2131                           	fcall	___flneg
  2132  0275  160A  158A  2338  120A  118A  	movf	(3+(?___flneg)),w
  2133  027A  0873               	bsf	status, 5	;RP0=1, select bank1
  2134  027B  1683               	bcf	status, 6	;RP1=0, select bank1
  2135  027C  1303               	movwf	(sprintf@fval+3)^080h
  2136  027D  00CD               	movf	(2+(?___flneg)),w
  2137  027E  0872               	movwf	(sprintf@fval+2)^080h
  2138  027F  00CC               	movf	(1+(?___flneg)),w
  2139  0280  0871               	movwf	(sprintf@fval+1)^080h
  2140  0281  00CB               	movf	(0+(?___flneg)),w
  2141  0282  0870               	movwf	(sprintf@fval)^080h
  2142  0283  00CA               
  2143                           	line	852
  2144                           	
  2145                           l3017:	
  2146  0284                     ;C:\Program Files (x86)\Microchip\xc8\v2.00\pic\sources\c90\common\doprnt.c: 852:     fl
                                 ag |= 0x03;
  2147                           	movlw	03h
  2148  0284  3003               	iorwf	(sprintf@flag)^080h,f
  2149  0285  04BB               	movlw	0
  2150  0286  3000               	iorwf	(sprintf@flag+1)^080h,f
  2151  0287  04BC               	goto	l3019
  2152  0288  2A89               	line	853
  2153                           ;C:\Program Files (x86)\Microchip\xc8\v2.00\pic\sources\c90\common\doprnt.c: 853:    }
  2154                           	
  2155                           l192:	
  2156  0289                     	line	854
  2157                           	
  2158                           l3019:	
  2159  0289                     ;C:\Program Files (x86)\Microchip\xc8\v2.00\pic\sources\c90\common\doprnt.c: 854:    eex
                                 p = 0;
  2160                           	bsf	status, 5	;RP0=1, select bank1
  2161  0289  1683               	bcf	status, 6	;RP1=0, select bank1
  2162  028A  1303               	clrf	(sprintf@eexp)^080h
  2163  028B  01C3               	clrf	(sprintf@eexp+1)^080h
  2164  028C  01C4               	line	855
  2165                           	
  2166                           l3021:	
  2167  028D                     ;C:\Program Files (x86)\Microchip\xc8\v2.00\pic\sources\c90\common\doprnt.c: 855:    if(
                                  fval!=0) {
  2168                           	movf	(sprintf@fval+3)^080h,w
  2169  028D  084D               	movwf	(___fleq@ff1+3)
  2170  028E  00F3               	movf	(sprintf@fval+2)^080h,w
  2171  028F  084C               	movwf	(___fleq@ff1+2)
  2172  0290  00F2               	movf	(sprintf@fval+1)^080h,w
  2173  0291  084B               	movwf	(___fleq@ff1+1)
  2174  0292  00F1               	movf	(sprintf@fval)^080h,w
  2175  0293  084A               	movwf	(___fleq@ff1)
  2176  0294  00F0               
  2177                           	movlw	0x0
  2178  0295  3000               	movwf	(___fleq@ff2+3)
  2179  0296  00F7               	movlw	0x0
  2180  0297  3000               	movwf	(___fleq@ff2+2)
  2181  0298  00F6               	movlw	0x0
  2182  0299  3000               	movwf	(___fleq@ff2+1)
  2183  029A  00F5               	movlw	0x0
  2184  029B  3000               	movwf	(___fleq@ff2)
  2185  029C  00F4               
  2186                           	fcall	___fleq
  2187  029D  160A  158A  243E  120A  118A  	btfsc	status,0
  2188  02A2  1803               	goto	u5411
  2189  02A3  2AA5               	goto	u5410
  2190  02A4  2AA6               u5411:
  2191  02A5                     	goto	l3047
  2192  02A5  2BA2               u5410:
  2193  02A6                     	line	856
  2194                           	
  2195                           l3023:	
  2196  02A6                     ;C:\Program Files (x86)\Microchip\xc8\v2.00\pic\sources\c90\common\doprnt.c: 856:     (v
                                 oid)(*(&eexp) = (unsigned char)((*(unsigned long *)&fval >> 23) & 255) - 126);
  2197                           	bsf	status, 5	;RP0=1, select bank1
  2198  02A6  1683               	bcf	status, 6	;RP1=0, select bank1
  2199  02A7  1303               	movf	(sprintf@fval)^080h,w
  2200  02A8  084A               	movwf	(??_sprintf+0)^080h+0
  2201  02A9  00B1               	movf	(sprintf@fval+1)^080h,w
  2202  02AA  084B               	movwf	((??_sprintf+0)^080h+0+1)
  2203  02AB  00B2               	movf	(sprintf@fval+2)^080h,w
  2204  02AC  084C               	movwf	((??_sprintf+0)^080h+0+2)
  2205  02AD  00B3               	movf	(sprintf@fval+3)^080h,w
  2206  02AE  084D               	movwf	((??_sprintf+0)^080h+0+3)
  2207  02AF  00B4               	clrc
  2208  02B0  1003               	rlf	(??_sprintf+0)^080h+2,w
  2209  02B1  0D33               	rlf	(??_sprintf+0)^080h+3,w
  2210  02B2  0D34               	addlw	low(-126)
  2211  02B3  3E82               	movwf	(sprintf@eexp)^080h
  2212  02B4  00C3               	movlw	high(-126)
  2213  02B5  30FF               	skipnc
  2214  02B6  1803               	movlw	(high(-126)+1)&0ffh
  2215  02B7  3000               	movwf	((sprintf@eexp)^080h)+1
  2216  02B8  00C4               	line	857
  2217                           	
  2218                           l3025:	
  2219  02B9                     ;C:\Program Files (x86)\Microchip\xc8\v2.00\pic\sources\c90\common\doprnt.c: 857:     ee
                                 xp--;
  2220                           	movlw	0FFh
  2221  02B9  30FF               	addwf	(sprintf@eexp)^080h,f
  2222  02BA  07C3               	skipnc
  2223  02BB  1803               	incf	(sprintf@eexp+1)^080h,f
  2224  02BC  0AC4               	movlw	0FFh
  2225  02BD  30FF               	addwf	(sprintf@eexp+1)^080h,f
  2226  02BE  07C4               	line	858
  2227                           	
  2228                           l3027:	
  2229  02BF                     ;C:\Program Files (x86)\Microchip\xc8\v2.00\pic\sources\c90\common\doprnt.c: 858:     ee
                                 xp *= 3;
  2230                           	movlw	03h
  2231  02BF  3003               	movwf	(___wmul@multiplier)
  2232  02C0  00F0               	movlw	0
  2233  02C1  3000               	movwf	((___wmul@multiplier))+1
  2234  02C2  00F1               	movf	(sprintf@eexp+1)^080h,w
  2235  02C3  0844               	movwf	(___wmul@multiplicand+1)
  2236  02C4  00F3               	movf	(sprintf@eexp)^080h,w
  2237  02C5  0843               	movwf	(___wmul@multiplicand)
  2238  02C6  00F2               	fcall	___wmul
  2239  02C7  160A  158A  2360  120A  118A  	movf	(1+(?___wmul)),w
  2240  02CC  0871               	bsf	status, 5	;RP0=1, select bank1
  2241  02CD  1683               	bcf	status, 6	;RP1=0, select bank1
  2242  02CE  1303               	movwf	(sprintf@eexp+1)^080h
  2243  02CF  00C4               	movf	(0+(?___wmul)),w
  2244  02D0  0870               	movwf	(sprintf@eexp)^080h
  2245  02D1  00C3               	line	859
  2246                           	
  2247                           l3029:	
  2248  02D2                     ;C:\Program Files (x86)\Microchip\xc8\v2.00\pic\sources\c90\common\doprnt.c: 859:     ee
                                 xp /= 10;
  2249                           	movlw	0Ah
  2250  02D2  300A               	movwf	(___awdiv@divisor)
  2251  02D3  00F7               	movlw	0
  2252  02D4  3000               	movwf	((___awdiv@divisor))+1
  2253  02D5  00F8               	movf	(sprintf@eexp+1)^080h,w
  2254  02D6  0844               	movwf	(___awdiv@dividend+1)
  2255  02D7  00FA               	movf	(sprintf@eexp)^080h,w
  2256  02D8  0843               	movwf	(___awdiv@dividend)
  2257  02D9  00F9               	fcall	___awdiv
  2258  02DA  160A  158A  25A9  120A  118A  	movf	(1+(?___awdiv)),w
  2259  02DF  0878               	bsf	status, 5	;RP0=1, select bank1
  2260  02E0  1683               	bcf	status, 6	;RP1=0, select bank1
  2261  02E1  1303               	movwf	(sprintf@eexp+1)^080h
  2262  02E2  00C4               	movf	(0+(?___awdiv)),w
  2263  02E3  0877               	movwf	(sprintf@eexp)^080h
  2264  02E4  00C3               	line	860
  2265                           	
  2266                           l3031:	
  2267  02E5                     ;C:\Program Files (x86)\Microchip\xc8\v2.00\pic\sources\c90\common\doprnt.c: 860:     if
                                 (eexp < 0)
  2268                           	btfss	(sprintf@eexp+1)^080h,7
  2269  02E5  1FC4               	goto	u5421
  2270  02E6  2AE8               	goto	u5420
  2271  02E7  2AE9               u5421:
  2272  02E8                     	goto	l3035
  2273  02E8  2AF0               u5420:
  2274  02E9                     	line	861
  2275                           	
  2276                           l3033:	
  2277  02E9                     ;C:\Program Files (x86)\Microchip\xc8\v2.00\pic\sources\c90\common\doprnt.c: 861:      e
                                 exp--;
  2278                           	movlw	0FFh
  2279  02E9  30FF               	addwf	(sprintf@eexp)^080h,f
  2280  02EA  07C3               	skipnc
  2281  02EB  1803               	incf	(sprintf@eexp+1)^080h,f
  2282  02EC  0AC4               	movlw	0FFh
  2283  02ED  30FF               	addwf	(sprintf@eexp+1)^080h,f
  2284  02EE  07C4               	goto	l3035
  2285  02EF  2AF0               	
  2286                           l194:	
  2287  02F0                     	line	865
  2288                           	
  2289                           l3035:	
  2290  02F0                     ;C:\Program Files (x86)\Microchip\xc8\v2.00\pic\sources\c90\common\doprnt.c: 865:     tm
                                 pval.integ = scale(-eexp);
  2291                           	decf	(sprintf@eexp)^080h,w
  2292  02F0  0343               	xorlw	0ffh
  2293  02F1  3AFF               	fcall	_scale
  2294  02F2  160A  118A  2491  120A  118A  	bcf	status, 5	;RP0=0, select bank0
  2295  02F7  1283               	bcf	status, 6	;RP1=0, select bank0
  2296  02F8  1303               	movf	(3+(?_scale)),w
  2297  02F9  084A               	bsf	status, 5	;RP0=1, select bank1
  2298  02FA  1683               	bcf	status, 6	;RP1=0, select bank1
  2299  02FB  1303               	movwf	(sprintf@tmpval+3)^080h
  2300  02FC  00C8               	bcf	status, 5	;RP0=0, select bank0
  2301  02FD  1283               	bcf	status, 6	;RP1=0, select bank0
  2302  02FE  1303               	movf	(2+(?_scale)),w
  2303  02FF  0849               	bsf	status, 5	;RP0=1, select bank1
  2304  0300  1683               	bcf	status, 6	;RP1=0, select bank1
  2305  0301  1303               	movwf	(sprintf@tmpval+2)^080h
  2306  0302  00C7               	bcf	status, 5	;RP0=0, select bank0
  2307  0303  1283               	bcf	status, 6	;RP1=0, select bank0
  2308  0304  1303               	movf	(1+(?_scale)),w
  2309  0305  0848               	bsf	status, 5	;RP0=1, select bank1
  2310  0306  1683               	bcf	status, 6	;RP1=0, select bank1
  2311  0307  1303               	movwf	(sprintf@tmpval+1)^080h
  2312  0308  00C6               	bcf	status, 5	;RP0=0, select bank0
  2313  0309  1283               	bcf	status, 6	;RP1=0, select bank0
  2314  030A  1303               	movf	(0+(?_scale)),w
  2315  030B  0847               	bsf	status, 5	;RP0=1, select bank1
  2316  030C  1683               	bcf	status, 6	;RP1=0, select bank1
  2317  030D  1303               	movwf	(sprintf@tmpval)^080h
  2318  030E  00C5               
  2319                           	line	866
  2320                           	
  2321                           l3037:	
  2322  030F                     ;C:\Program Files (x86)\Microchip\xc8\v2.00\pic\sources\c90\common\doprnt.c: 866:     tm
                                 pval.integ *= fval;
  2323                           	movf	(sprintf@fval+3)^080h,w
  2324  030F  084D               	bcf	status, 5	;RP0=0, select bank0
  2325  0310  1283               	bcf	status, 6	;RP1=0, select bank0
  2326  0311  1303               	movwf	(___flmul@b+3)
  2327  0312  00B0               	bsf	status, 5	;RP0=1, select bank1
  2328  0313  1683               	bcf	status, 6	;RP1=0, select bank1
  2329  0314  1303               	movf	(sprintf@fval+2)^080h,w
  2330  0315  084C               	bcf	status, 5	;RP0=0, select bank0
  2331  0316  1283               	bcf	status, 6	;RP1=0, select bank0
  2332  0317  1303               	movwf	(___flmul@b+2)
  2333  0318  00AF               	bsf	status, 5	;RP0=1, select bank1
  2334  0319  1683               	bcf	status, 6	;RP1=0, select bank1
  2335  031A  1303               	movf	(sprintf@fval+1)^080h,w
  2336  031B  084B               	bcf	status, 5	;RP0=0, select bank0
  2337  031C  1283               	bcf	status, 6	;RP1=0, select bank0
  2338  031D  1303               	movwf	(___flmul@b+1)
  2339  031E  00AE               	bsf	status, 5	;RP0=1, select bank1
  2340  031F  1683               	bcf	status, 6	;RP1=0, select bank1
  2341  0320  1303               	movf	(sprintf@fval)^080h,w
  2342  0321  084A               	bcf	status, 5	;RP0=0, select bank0
  2343  0322  1283               	bcf	status, 6	;RP1=0, select bank0
  2344  0323  1303               	movwf	(___flmul@b)
  2345  0324  00AD               
  2346                           	bsf	status, 5	;RP0=1, select bank1
  2347  0325  1683               	bcf	status, 6	;RP1=0, select bank1
  2348  0326  1303               	movf	(sprintf@tmpval+3)^080h,w
  2349  0327  0848               	bcf	status, 5	;RP0=0, select bank0
  2350  0328  1283               	bcf	status, 6	;RP1=0, select bank0
  2351  0329  1303               	movwf	(___flmul@a+3)
  2352  032A  00B4               	bsf	status, 5	;RP0=1, select bank1
  2353  032B  1683               	bcf	status, 6	;RP1=0, select bank1
  2354  032C  1303               	movf	(sprintf@tmpval+2)^080h,w
  2355  032D  0847               	bcf	status, 5	;RP0=0, select bank0
  2356  032E  1283               	bcf	status, 6	;RP1=0, select bank0
  2357  032F  1303               	movwf	(___flmul@a+2)
  2358  0330  00B3               	bsf	status, 5	;RP0=1, select bank1
  2359  0331  1683               	bcf	status, 6	;RP1=0, select bank1
  2360  0332  1303               	movf	(sprintf@tmpval+1)^080h,w
  2361  0333  0846               	bcf	status, 5	;RP0=0, select bank0
  2362  0334  1283               	bcf	status, 6	;RP1=0, select bank0
  2363  0335  1303               	movwf	(___flmul@a+1)
  2364  0336  00B2               	bsf	status, 5	;RP0=1, select bank1
  2365  0337  1683               	bcf	status, 6	;RP1=0, select bank1
  2366  0338  1303               	movf	(sprintf@tmpval)^080h,w
  2367  0339  0845               	bcf	status, 5	;RP0=0, select bank0
  2368  033A  1283               	bcf	status, 6	;RP1=0, select bank0
  2369  033B  1303               	movwf	(___flmul@a)
  2370  033C  00B1               
  2371                           	fcall	___flmul
  2372  033D  120A  158A  248B  120A  118A  	bcf	status, 5	;RP0=0, select bank0
  2373  0342  1283               	bcf	status, 6	;RP1=0, select bank0
  2374  0343  1303               	movf	(3+(?___flmul)),w
  2375  0344  0830               	bsf	status, 5	;RP0=1, select bank1
  2376  0345  1683               	bcf	status, 6	;RP1=0, select bank1
  2377  0346  1303               	movwf	(sprintf@tmpval+3)^080h
  2378  0347  00C8               	bcf	status, 5	;RP0=0, select bank0
  2379  0348  1283               	bcf	status, 6	;RP1=0, select bank0
  2380  0349  1303               	movf	(2+(?___flmul)),w
  2381  034A  082F               	bsf	status, 5	;RP0=1, select bank1
  2382  034B  1683               	bcf	status, 6	;RP1=0, select bank1
  2383  034C  1303               	movwf	(sprintf@tmpval+2)^080h
  2384  034D  00C7               	bcf	status, 5	;RP0=0, select bank0
  2385  034E  1283               	bcf	status, 6	;RP1=0, select bank0
  2386  034F  1303               	movf	(1+(?___flmul)),w
  2387  0350  082E               	bsf	status, 5	;RP0=1, select bank1
  2388  0351  1683               	bcf	status, 6	;RP1=0, select bank1
  2389  0352  1303               	movwf	(sprintf@tmpval+1)^080h
  2390  0353  00C6               	bcf	status, 5	;RP0=0, select bank0
  2391  0354  1283               	bcf	status, 6	;RP1=0, select bank0
  2392  0355  1303               	movf	(0+(?___flmul)),w
  2393  0356  082D               	bsf	status, 5	;RP0=1, select bank1
  2394  0357  1683               	bcf	status, 6	;RP1=0, select bank1
  2395  0358  1303               	movwf	(sprintf@tmpval)^080h
  2396  0359  00C5               
  2397                           	line	867
  2398                           	
  2399                           l3039:	
  2400  035A                     ;C:\Program Files (x86)\Microchip\xc8\v2.00\pic\sources\c90\common\doprnt.c: 867:     if
                                 (tmpval.integ < 1.0)
  2401                           	movf	(sprintf@tmpval+3)^080h,w
  2402  035A  0848               	movwf	(___flge@ff1+3)
  2403  035B  00F3               	movf	(sprintf@tmpval+2)^080h,w
  2404  035C  0847               	movwf	(___flge@ff1+2)
  2405  035D  00F2               	movf	(sprintf@tmpval+1)^080h,w
  2406  035E  0846               	movwf	(___flge@ff1+1)
  2407  035F  00F1               	movf	(sprintf@tmpval)^080h,w
  2408  0360  0845               	movwf	(___flge@ff1)
  2409  0361  00F0               
  2410                           	movlw	0x3f
  2411  0362  303F               	movwf	(___flge@ff2+3)
  2412  0363  00F7               	movlw	0x80
  2413  0364  3080               	movwf	(___flge@ff2+2)
  2414  0365  00F6               	movlw	0x0
  2415  0366  3000               	movwf	(___flge@ff2+1)
  2416  0367  00F5               	movlw	0x0
  2417  0368  3000               	movwf	(___flge@ff2)
  2418  0369  00F4               
  2419                           	fcall	___flge
  2420  036A  120A  158A  2058  120A  118A  	btfsc	status,0
  2421  036F  1803               	goto	u5431
  2422  0370  2B72               	goto	u5430
  2423  0371  2B73               u5431:
  2424  0372                     	goto	l3043
  2425  0372  2B7C               u5430:
  2426  0373                     	line	868
  2427                           	
  2428                           l3041:	
  2429  0373                     ;C:\Program Files (x86)\Microchip\xc8\v2.00\pic\sources\c90\common\doprnt.c: 868:      e
                                 exp--;
  2430                           	movlw	0FFh
  2431  0373  30FF               	bsf	status, 5	;RP0=1, select bank1
  2432  0374  1683               	bcf	status, 6	;RP1=0, select bank1
  2433  0375  1303               	addwf	(sprintf@eexp)^080h,f
  2434  0376  07C3               	skipnc
  2435  0377  1803               	incf	(sprintf@eexp+1)^080h,f
  2436  0378  0AC4               	movlw	0FFh
  2437  0379  30FF               	addwf	(sprintf@eexp+1)^080h,f
  2438  037A  07C4               	goto	l3047
  2439  037B  2BA2               	line	869
  2440                           ;C:\Program Files (x86)\Microchip\xc8\v2.00\pic\sources\c90\common\doprnt.c: 869:     el
                                 se if(tmpval.integ >= 10.0)
  2441                           	
  2442                           l195:	
  2443  037C                     	
  2444                           l3043:	
  2445  037C                     	bsf	status, 5	;RP0=1, select bank1
  2446  037C  1683               	bcf	status, 6	;RP1=0, select bank1
  2447  037D  1303               	movf	(sprintf@tmpval+3)^080h,w
  2448  037E  0848               	movwf	(___flge@ff1+3)
  2449  037F  00F3               	movf	(sprintf@tmpval+2)^080h,w
  2450  0380  0847               	movwf	(___flge@ff1+2)
  2451  0381  00F2               	movf	(sprintf@tmpval+1)^080h,w
  2452  0382  0846               	movwf	(___flge@ff1+1)
  2453  0383  00F1               	movf	(sprintf@tmpval)^080h,w
  2454  0384  0845               	movwf	(___flge@ff1)
  2455  0385  00F0               
  2456                           	movlw	0x41
  2457  0386  3041               	movwf	(___flge@ff2+3)
  2458  0387  00F7               	movlw	0x20
  2459  0388  3020               	movwf	(___flge@ff2+2)
  2460  0389  00F6               	movlw	0x0
  2461  038A  3000               	movwf	(___flge@ff2+1)
  2462  038B  00F5               	movlw	0x0
  2463  038C  3000               	movwf	(___flge@ff2)
  2464  038D  00F4               
  2465                           	fcall	___flge
  2466  038E  120A  158A  2058  120A  118A  	btfss	status,0
  2467  0393  1C03               	goto	u5441
  2468  0394  2B96               	goto	u5440
  2469  0395  2B97               u5441:
  2470  0396                     	goto	l3047
  2471  0396  2BA2               u5440:
  2472  0397                     	line	870
  2473                           	
  2474                           l3045:	
  2475  0397                     ;C:\Program Files (x86)\Microchip\xc8\v2.00\pic\sources\c90\common\doprnt.c: 870:      e
                                 exp++;
  2476                           	movlw	01h
  2477  0397  3001               	bsf	status, 5	;RP0=1, select bank1
  2478  0398  1683               	bcf	status, 6	;RP1=0, select bank1
  2479  0399  1303               	addwf	(sprintf@eexp)^080h,f
  2480  039A  07C3               	skipnc
  2481  039B  1803               	incf	(sprintf@eexp+1)^080h,f
  2482  039C  0AC4               	movlw	0
  2483  039D  3000               	addwf	(sprintf@eexp+1)^080h,f
  2484  039E  07C4               	goto	l3047
  2485  039F  2BA2               	
  2486                           l197:	
  2487  03A0                     	goto	l3047
  2488  03A0  2BA2               	
  2489                           l196:	
  2490  03A1                     	goto	l3047
  2491  03A1  2BA2               	line	871
  2492                           ;C:\Program Files (x86)\Microchip\xc8\v2.00\pic\sources\c90\common\doprnt.c: 871:    }
  2493                           	
  2494                           l193:	
  2495  03A2                     	line	1131
  2496                           	
  2497                           l3047:	
  2498  03A2                     ;C:\Program Files (x86)\Microchip\xc8\v2.00\pic\sources\c90\common\doprnt.c: 1131:      
                                 if(prec <= 12)
  2499                           	bsf	status, 5	;RP0=1, select bank1
  2500  03A2  1683               	bcf	status, 6	;RP1=0, select bank1
  2501  03A3  1303               	movf	(sprintf@prec+1)^080h,w
  2502  03A4  083E               	xorlw	80h
  2503  03A5  3A80               	movwf	btemp+1
  2504  03A6  00FF               	movlw	(0)^80h
  2505  03A7  3080               	subwf	btemp+1,w
  2506  03A8  027F               	skipz
  2507  03A9  1D03               	goto	u5455
  2508  03AA  2BAD               	movlw	0Dh
  2509  03AB  300D               	subwf	(sprintf@prec)^080h,w
  2510  03AC  023D               u5455:
  2511  03AD                     
  2512                           	skipnc
  2513  03AD  1803               	goto	u5451
  2514  03AE  2BB0               	goto	u5450
  2515  03AF  2BB1               u5451:
  2516  03B0                     	goto	l3051
  2517  03B0  2BF9               u5450:
  2518  03B1                     	line	1132
  2519                           	
  2520                           l3049:	
  2521  03B1                     ;C:\Program Files (x86)\Microchip\xc8\v2.00\pic\sources\c90\common\doprnt.c: 1132:      
                                  fval += fround((unsigned int)prec);
  2522                           	bsf	status, 5	;RP0=1, select bank1
  2523  03B1  1683               	bcf	status, 6	;RP1=0, select bank1
  2524  03B2  1303               	movf	(sprintf@prec)^080h,w
  2525  03B3  083D               	fcall	_fround
  2526  03B4  160A  118A  227E  120A  118A  	bcf	status, 5	;RP0=0, select bank0
  2527  03B9  1283               	bcf	status, 6	;RP1=0, select bank0
  2528  03BA  1303               	movf	(3+(?_fround)),w
  2529  03BB  084A               	movwf	(___fladd@b+3)
  2530  03BC  00DE               	movf	(2+(?_fround)),w
  2531  03BD  0849               	movwf	(___fladd@b+2)
  2532  03BE  00DD               	movf	(1+(?_fround)),w
  2533  03BF  0848               	movwf	(___fladd@b+1)
  2534  03C0  00DC               	movf	(0+(?_fround)),w
  2535  03C1  0847               	movwf	(___fladd@b)
  2536  03C2  00DB               
  2537                           	bsf	status, 5	;RP0=1, select bank1
  2538  03C3  1683               	bcf	status, 6	;RP1=0, select bank1
  2539  03C4  1303               	movf	(sprintf@fval+3)^080h,w
  2540  03C5  084D               	bcf	status, 5	;RP0=0, select bank0
  2541  03C6  1283               	bcf	status, 6	;RP1=0, select bank0
  2542  03C7  1303               	movwf	(___fladd@a+3)
  2543  03C8  00E2               	bsf	status, 5	;RP0=1, select bank1
  2544  03C9  1683               	bcf	status, 6	;RP1=0, select bank1
  2545  03CA  1303               	movf	(sprintf@fval+2)^080h,w
  2546  03CB  084C               	bcf	status, 5	;RP0=0, select bank0
  2547  03CC  1283               	bcf	status, 6	;RP1=0, select bank0
  2548  03CD  1303               	movwf	(___fladd@a+2)
  2549  03CE  00E1               	bsf	status, 5	;RP0=1, select bank1
  2550  03CF  1683               	bcf	status, 6	;RP1=0, select bank1
  2551  03D0  1303               	movf	(sprintf@fval+1)^080h,w
  2552  03D1  084B               	bcf	status, 5	;RP0=0, select bank0
  2553  03D2  1283               	bcf	status, 6	;RP1=0, select bank0
  2554  03D3  1303               	movwf	(___fladd@a+1)
  2555  03D4  00E0               	bsf	status, 5	;RP0=1, select bank1
  2556  03D5  1683               	bcf	status, 6	;RP1=0, select bank1
  2557  03D6  1303               	movf	(sprintf@fval)^080h,w
  2558  03D7  084A               	bcf	status, 5	;RP0=0, select bank0
  2559  03D8  1283               	bcf	status, 6	;RP1=0, select bank0
  2560  03D9  1303               	movwf	(___fladd@a)
  2561  03DA  00DF               
  2562                           	fcall	___fladd
  2563  03DB  120A  158A  211B  120A  118A  	bcf	status, 5	;RP0=0, select bank0
  2564  03E0  1283               	bcf	status, 6	;RP1=0, select bank0
  2565  03E1  1303               	movf	(3+(?___fladd)),w
  2566  03E2  085E               	bsf	status, 5	;RP0=1, select bank1
  2567  03E3  1683               	bcf	status, 6	;RP1=0, select bank1
  2568  03E4  1303               	movwf	(sprintf@fval+3)^080h
  2569  03E5  00CD               	bcf	status, 5	;RP0=0, select bank0
  2570  03E6  1283               	bcf	status, 6	;RP1=0, select bank0
  2571  03E7  1303               	movf	(2+(?___fladd)),w
  2572  03E8  085D               	bsf	status, 5	;RP0=1, select bank1
  2573  03E9  1683               	bcf	status, 6	;RP1=0, select bank1
  2574  03EA  1303               	movwf	(sprintf@fval+2)^080h
  2575  03EB  00CC               	bcf	status, 5	;RP0=0, select bank0
  2576  03EC  1283               	bcf	status, 6	;RP1=0, select bank0
  2577  03ED  1303               	movf	(1+(?___fladd)),w
  2578  03EE  085C               	bsf	status, 5	;RP0=1, select bank1
  2579  03EF  1683               	bcf	status, 6	;RP1=0, select bank1
  2580  03F0  1303               	movwf	(sprintf@fval+1)^080h
  2581  03F1  00CB               	bcf	status, 5	;RP0=0, select bank0
  2582  03F2  1283               	bcf	status, 6	;RP1=0, select bank0
  2583  03F3  1303               	movf	(0+(?___fladd)),w
  2584  03F4  085B               	bsf	status, 5	;RP0=1, select bank1
  2585  03F5  1683               	bcf	status, 6	;RP1=0, select bank1
  2586  03F6  1303               	movwf	(sprintf@fval)^080h
  2587  03F7  00CA               
  2588                           	goto	l3051
  2589  03F8  2BF9               	
  2590                           l198:	
  2591  03F9                     	line	1135
  2592                           	
  2593                           l3051:	
  2594  03F9                     ;C:\Program Files (x86)\Microchip\xc8\v2.00\pic\sources\c90\common\doprnt.c: 1135:     i
                                 f((eexp > 9)||(fval != 0 && (unsigned long)fval == 0 && eexp > 1)) {
  2595                           	bsf	status, 5	;RP0=1, select bank1
  2596  03F9  1683               	bcf	status, 6	;RP1=0, select bank1
  2597  03FA  1303               	movf	(sprintf@eexp+1)^080h,w
  2598  03FB  0844               	xorlw	80h
  2599  03FC  3A80               	movwf	btemp+1
  2600  03FD  00FF               	movlw	(0)^80h
  2601  03FE  3080               	subwf	btemp+1,w
  2602  03FF  027F               	skipz
  2603  0400  1D03               	goto	u5465
  2604  0401  2C04               	movlw	0Ah
  2605  0402  300A               	subwf	(sprintf@eexp)^080h,w
  2606  0403  0243               u5465:
  2607  0404                     
  2608                           	skipnc
  2609  0404  1803               	goto	u5461
  2610  0405  2C07               	goto	u5460
  2611  0406  2C08               u5461:
  2612  0407                     	goto	l3059
  2613  0407  2C5A               u5460:
  2614  0408                     	
  2615                           l3053:	
  2616  0408                     	bsf	status, 5	;RP0=1, select bank1
  2617  0408  1683               	bcf	status, 6	;RP1=0, select bank1
  2618  0409  1303               	movf	(sprintf@fval+3)^080h,w
  2619  040A  084D               	movwf	(___fleq@ff1+3)
  2620  040B  00F3               	movf	(sprintf@fval+2)^080h,w
  2621  040C  084C               	movwf	(___fleq@ff1+2)
  2622  040D  00F2               	movf	(sprintf@fval+1)^080h,w
  2623  040E  084B               	movwf	(___fleq@ff1+1)
  2624  040F  00F1               	movf	(sprintf@fval)^080h,w
  2625  0410  084A               	movwf	(___fleq@ff1)
  2626  0411  00F0               
  2627                           	movlw	0x0
  2628  0412  3000               	movwf	(___fleq@ff2+3)
  2629  0413  00F7               	movlw	0x0
  2630  0414  3000               	movwf	(___fleq@ff2+2)
  2631  0415  00F6               	movlw	0x0
  2632  0416  3000               	movwf	(___fleq@ff2+1)
  2633  0417  00F5               	movlw	0x0
  2634  0418  3000               	movwf	(___fleq@ff2)
  2635  0419  00F4               
  2636                           	fcall	___fleq
  2637  041A  160A  158A  243E  120A  118A  	btfsc	status,0
  2638  041F  1803               	goto	u5471
  2639  0420  2C22               	goto	u5470
  2640  0421  2C23               u5471:
  2641  0422                     	goto	l3073
  2642  0422  2CEE               u5470:
  2643  0423                     	
  2644                           l3055:	
  2645  0423                     	bsf	status, 5	;RP0=1, select bank1
  2646  0423  1683               	bcf	status, 6	;RP1=0, select bank1
  2647  0424  1303               	movf	(sprintf@fval+3)^080h,w
  2648  0425  084D               	bcf	status, 5	;RP0=0, select bank0
  2649  0426  1283               	bcf	status, 6	;RP1=0, select bank0
  2650  0427  1303               	movwf	(___fltol@f1+3)
  2651  0428  00DD               	bsf	status, 5	;RP0=1, select bank1
  2652  0429  1683               	bcf	status, 6	;RP1=0, select bank1
  2653  042A  1303               	movf	(sprintf@fval+2)^080h,w
  2654  042B  084C               	bcf	status, 5	;RP0=0, select bank0
  2655  042C  1283               	bcf	status, 6	;RP1=0, select bank0
  2656  042D  1303               	movwf	(___fltol@f1+2)
  2657  042E  00DC               	bsf	status, 5	;RP0=1, select bank1
  2658  042F  1683               	bcf	status, 6	;RP1=0, select bank1
  2659  0430  1303               	movf	(sprintf@fval+1)^080h,w
  2660  0431  084B               	bcf	status, 5	;RP0=0, select bank0
  2661  0432  1283               	bcf	status, 6	;RP1=0, select bank0
  2662  0433  1303               	movwf	(___fltol@f1+1)
  2663  0434  00DB               	bsf	status, 5	;RP0=1, select bank1
  2664  0435  1683               	bcf	status, 6	;RP1=0, select bank1
  2665  0436  1303               	movf	(sprintf@fval)^080h,w
  2666  0437  084A               	bcf	status, 5	;RP0=0, select bank0
  2667  0438  1283               	bcf	status, 6	;RP1=0, select bank0
  2668  0439  1303               	movwf	(___fltol@f1)
  2669  043A  00DA               
  2670                           	fcall	___fltol
  2671  043B  160A  158A  26A2  120A  118A  	bcf	status, 5	;RP0=0, select bank0
  2672  0440  1283               	bcf	status, 6	;RP1=0, select bank0
  2673  0441  1303               	movf	(3+(?___fltol)),w
  2674  0442  085D               	iorwf	(2+(?___fltol)),w
  2675  0443  045C               	iorwf	(1+(?___fltol)),w
  2676  0444  045B               	iorwf	(0+(?___fltol)),w
  2677  0445  045A               	skipz
  2678  0446  1D03               	goto	u5481
  2679  0447  2C49               	goto	u5480
  2680  0448  2C4A               u5481:
  2681  0449                     	goto	l3073
  2682  0449  2CEE               u5480:
  2683  044A                     	
  2684                           l3057:	
  2685  044A                     	bsf	status, 5	;RP0=1, select bank1
  2686  044A  1683               	bcf	status, 6	;RP1=0, select bank1
  2687  044B  1303               	movf	(sprintf@eexp+1)^080h,w
  2688  044C  0844               	xorlw	80h
  2689  044D  3A80               	movwf	btemp+1
  2690  044E  00FF               	movlw	(0)^80h
  2691  044F  3080               	subwf	btemp+1,w
  2692  0450  027F               	skipz
  2693  0451  1D03               	goto	u5495
  2694  0452  2C55               	movlw	02h
  2695  0453  3002               	subwf	(sprintf@eexp)^080h,w
  2696  0454  0243               u5495:
  2697  0455                     
  2698                           	skipc
  2699  0455  1C03               	goto	u5491
  2700  0456  2C58               	goto	u5490
  2701  0457  2C59               u5491:
  2702  0458                     	goto	l3073
  2703  0458  2CEE               u5490:
  2704  0459                     	goto	l3059
  2705  0459  2C5A               	
  2706                           l201:	
  2707  045A                     	line	1139
  2708                           	
  2709                           l3059:	
  2710  045A                     ;C:\Program Files (x86)\Microchip\xc8\v2.00\pic\sources\c90\common\doprnt.c: 1139:      
                                 if(tmpval.integ < 4.294967296){
  2711                           	bsf	status, 5	;RP0=1, select bank1
  2712  045A  1683               	bcf	status, 6	;RP1=0, select bank1
  2713  045B  1303               	movf	(sprintf@tmpval+3)^080h,w
  2714  045C  0848               	movwf	(___flge@ff1+3)
  2715  045D  00F3               	movf	(sprintf@tmpval+2)^080h,w
  2716  045E  0847               	movwf	(___flge@ff1+2)
  2717  045F  00F2               	movf	(sprintf@tmpval+1)^080h,w
  2718  0460  0846               	movwf	(___flge@ff1+1)
  2719  0461  00F1               	movf	(sprintf@tmpval)^080h,w
  2720  0462  0845               	movwf	(___flge@ff1)
  2721  0463  00F0               
  2722                           	movlw	0x40
  2723  0464  3040               	movwf	(___flge@ff2+3)
  2724  0465  00F7               	movlw	0x89
  2725  0466  3089               	movwf	(___flge@ff2+2)
  2726  0467  00F6               	movlw	0x70
  2727  0468  3070               	movwf	(___flge@ff2+1)
  2728  0469  00F5               	movlw	0x5f
  2729  046A  305F               	movwf	(___flge@ff2)
  2730  046B  00F4               
  2731                           	fcall	___flge
  2732  046C  120A  158A  2058  120A  118A  	btfsc	status,0
  2733  0471  1803               	goto	u5501
  2734  0472  2C74               	goto	u5500
  2735  0473  2C75               u5501:
  2736  0474                     	goto	l3063
  2737  0474  2C7E               u5500:
  2738  0475                     	line	1140
  2739                           	
  2740                           l3061:	
  2741  0475                     ;C:\Program Files (x86)\Microchip\xc8\v2.00\pic\sources\c90\common\doprnt.c: 1140:      
                                  eexp -= (sizeof dpowers/sizeof dpowers[0])-1;
  2742                           	movlw	0F7h
  2743  0475  30F7               	bsf	status, 5	;RP0=1, select bank1
  2744  0476  1683               	bcf	status, 6	;RP1=0, select bank1
  2745  0477  1303               	addwf	(sprintf@eexp)^080h,f
  2746  0478  07C3               	skipnc
  2747  0479  1803               	incf	(sprintf@eexp+1)^080h,f
  2748  047A  0AC4               	movlw	0FFh
  2749  047B  30FF               	addwf	(sprintf@eexp+1)^080h,f
  2750  047C  07C4               	line	1141
  2751                           ;C:\Program Files (x86)\Microchip\xc8\v2.00\pic\sources\c90\common\doprnt.c: 1141:      
                                 }else{
  2752                           	goto	l3065
  2753  047D  2C87               	
  2754                           l202:	
  2755  047E                     	line	1142
  2756                           	
  2757                           l3063:	
  2758  047E                     ;C:\Program Files (x86)\Microchip\xc8\v2.00\pic\sources\c90\common\doprnt.c: 1142:      
                                  eexp -= (sizeof dpowers/sizeof dpowers[0])-2;
  2759                           	movlw	0F8h
  2760  047E  30F8               	bsf	status, 5	;RP0=1, select bank1
  2761  047F  1683               	bcf	status, 6	;RP1=0, select bank1
  2762  0480  1303               	addwf	(sprintf@eexp)^080h,f
  2763  0481  07C3               	skipnc
  2764  0482  1803               	incf	(sprintf@eexp+1)^080h,f
  2765  0483  0AC4               	movlw	0FFh
  2766  0484  30FF               	addwf	(sprintf@eexp+1)^080h,f
  2767  0485  07C4               	goto	l3065
  2768  0486  2C87               	line	1143
  2769                           ;C:\Program Files (x86)\Microchip\xc8\v2.00\pic\sources\c90\common\doprnt.c: 1143:      
                                 }
  2770                           	
  2771                           l203:	
  2772  0487                     	line	1144
  2773                           	
  2774                           l3065:	
  2775  0487                     ;C:\Program Files (x86)\Microchip\xc8\v2.00\pic\sources\c90\common\doprnt.c: 1145:      
                                 val = ((sizeof(double)== 3) ? _tdiv_to_l_(fval,tmpval.integ) : _div_to_l_(fval,tmpval.in
                                 teg));
  2776                           	movf	(sprintf@eexp)^080h,w
  2777  0487  0843               	fcall	_scale
  2778  0488  160A  118A  2491  120A  118A  	bcf	status, 5	;RP0=0, select bank0
  2779  048D  1283               	bcf	status, 6	;RP1=0, select bank0
  2780  048E  1303               	movf	(3+(?_scale)),w
  2781  048F  084A               	bsf	status, 5	;RP0=1, select bank1
  2782  0490  1683               	bcf	status, 6	;RP1=0, select bank1
  2783  0491  1303               	movwf	(sprintf@tmpval+3)^080h
  2784  0492  00C8               	bcf	status, 5	;RP0=0, select bank0
  2785  0493  1283               	bcf	status, 6	;RP1=0, select bank0
  2786  0494  1303               	movf	(2+(?_scale)),w
  2787  0495  0849               	bsf	status, 5	;RP0=1, select bank1
  2788  0496  1683               	bcf	status, 6	;RP1=0, select bank1
  2789  0497  1303               	movwf	(sprintf@tmpval+2)^080h
  2790  0498  00C7               	bcf	status, 5	;RP0=0, select bank0
  2791  0499  1283               	bcf	status, 6	;RP1=0, select bank0
  2792  049A  1303               	movf	(1+(?_scale)),w
  2793  049B  0848               	bsf	status, 5	;RP0=1, select bank1
  2794  049C  1683               	bcf	status, 6	;RP1=0, select bank1
  2795  049D  1303               	movwf	(sprintf@tmpval+1)^080h
  2796  049E  00C6               	bcf	status, 5	;RP0=0, select bank0
  2797  049F  1283               	bcf	status, 6	;RP1=0, select bank0
  2798  04A0  1303               	movf	(0+(?_scale)),w
  2799  04A1  0847               	bsf	status, 5	;RP0=1, select bank1
  2800  04A2  1683               	bcf	status, 6	;RP1=0, select bank1
  2801  04A3  1303               	movwf	(sprintf@tmpval)^080h
  2802  04A4  00C5               
  2803                           	line	1145
  2804                           	
  2805                           l3067:	
  2806  04A5                     	movf	(sprintf@fval+3)^080h,w
  2807  04A5  084D               	movwf	(__div_to_l_@f1+3)
  2808  04A6  00F3               	movf	(sprintf@fval+2)^080h,w
  2809  04A7  084C               	movwf	(__div_to_l_@f1+2)
  2810  04A8  00F2               	movf	(sprintf@fval+1)^080h,w
  2811  04A9  084B               	movwf	(__div_to_l_@f1+1)
  2812  04AA  00F1               	movf	(sprintf@fval)^080h,w
  2813  04AB  084A               	movwf	(__div_to_l_@f1)
  2814  04AC  00F0               
  2815                           	movf	(sprintf@tmpval+3)^080h,w
  2816  04AD  0848               	movwf	(__div_to_l_@f2+3)
  2817  04AE  00F7               	movf	(sprintf@tmpval+2)^080h,w
  2818  04AF  0847               	movwf	(__div_to_l_@f2+2)
  2819  04B0  00F6               	movf	(sprintf@tmpval+1)^080h,w
  2820  04B1  0846               	movwf	(__div_to_l_@f2+1)
  2821  04B2  00F5               	movf	(sprintf@tmpval)^080h,w
  2822  04B3  0845               	movwf	(__div_to_l_@f2)
  2823  04B4  00F4               
  2824                           	fcall	__div_to_l_
  2825  04B5  120A  118A  2102  120A  118A  	movf	(3+(?__div_to_l_)),w
  2826  04BA  0873               	bsf	status, 5	;RP0=1, select bank1
  2827  04BB  1683               	bcf	status, 6	;RP1=0, select bank1
  2828  04BC  1303               	movwf	(sprintf@val+3)^080h
  2829  04BD  00C2               	movf	(2+(?__div_to_l_)),w
  2830  04BE  0872               	movwf	(sprintf@val+2)^080h
  2831  04BF  00C1               	movf	(1+(?__div_to_l_)),w
  2832  04C0  0871               	movwf	(sprintf@val+1)^080h
  2833  04C1  00C0               	movf	(0+(?__div_to_l_)),w
  2834  04C2  0870               	movwf	(sprintf@val)^080h
  2835  04C3  00BF               
  2836                           	goto	l3071
  2837  04C4  2CE5               	
  2838                           l205:	
  2839  04C5                     	
  2840                           l3069:	
  2841  04C5                     	movf	(sprintf@fval+3)^080h,w
  2842  04C5  084D               	movwf	(__tdiv_to_l_@f1+3)
  2843  04C6  00F3               	movf	(sprintf@fval+2)^080h,w
  2844  04C7  084C               	movwf	(__tdiv_to_l_@f1+2)
  2845  04C8  00F2               	movf	(sprintf@fval+1)^080h,w
  2846  04C9  084B               	movwf	(__tdiv_to_l_@f1+1)
  2847  04CA  00F1               	movf	(sprintf@fval)^080h,w
  2848  04CB  084A               	movwf	(__tdiv_to_l_@f1)
  2849  04CC  00F0               
  2850                           	movf	(sprintf@tmpval+3)^080h,w
  2851  04CD  0848               	movwf	(__tdiv_to_l_@f2+3)
  2852  04CE  00F7               	movf	(sprintf@tmpval+2)^080h,w
  2853  04CF  0847               	movwf	(__tdiv_to_l_@f2+2)
  2854  04D0  00F6               	movf	(sprintf@tmpval+1)^080h,w
  2855  04D1  0846               	movwf	(__tdiv_to_l_@f2+1)
  2856  04D2  00F5               	movf	(sprintf@tmpval)^080h,w
  2857  04D3  0845               	movwf	(__tdiv_to_l_@f2)
  2858  04D4  00F4               
  2859                           	fcall	__tdiv_to_l_
  2860  04D5  120A  118A  2021  120A  118A  	movf	(3+(?__tdiv_to_l_)),w
  2861  04DA  0873               	bsf	status, 5	;RP0=1, select bank1
  2862  04DB  1683               	bcf	status, 6	;RP1=0, select bank1
  2863  04DC  1303               	movwf	(sprintf@val+3)^080h
  2864  04DD  00C2               	movf	(2+(?__tdiv_to_l_)),w
  2865  04DE  0872               	movwf	(sprintf@val+2)^080h
  2866  04DF  00C1               	movf	(1+(?__tdiv_to_l_)),w
  2867  04E0  0871               	movwf	(sprintf@val+1)^080h
  2868  04E1  00C0               	movf	(0+(?__tdiv_to_l_)),w
  2869  04E2  0870               	movwf	(sprintf@val)^080h
  2870  04E3  00BF               
  2871                           	goto	l3071
  2872  04E4  2CE5               	
  2873                           l207:	
  2874  04E5                     	line	1148
  2875                           	
  2876                           l3071:	
  2877  04E5                     ;C:\Program Files (x86)\Microchip\xc8\v2.00\pic\sources\c90\common\doprnt.c: 1148:      
                                 fval = 0.0;
  2878                           	movlw	0x0
  2879  04E5  3000               	movwf	(sprintf@fval+3)^080h
  2880  04E6  00CD               	movlw	0x0
  2881  04E7  3000               	movwf	(sprintf@fval+2)^080h
  2882  04E8  00CC               	movlw	0x0
  2883  04E9  3000               	movwf	(sprintf@fval+1)^080h
  2884  04EA  00CB               	movlw	0x0
  2885  04EB  3000               	movwf	(sprintf@fval)^080h
  2886  04EC  00CA               
  2887                           	line	1149
  2888                           ;C:\Program Files (x86)\Microchip\xc8\v2.00\pic\sources\c90\common\doprnt.c: 1149:     }
                                  else {
  2889                           	goto	l3079
  2890  04ED  2D55               	
  2891                           l199:	
  2892  04EE                     	line	1150
  2893                           	
  2894                           l3073:	
  2895  04EE                     ;C:\Program Files (x86)\Microchip\xc8\v2.00\pic\sources\c90\common\doprnt.c: 1150:      
                                 val = (unsigned long)fval;
  2896                           	bsf	status, 5	;RP0=1, select bank1
  2897  04EE  1683               	bcf	status, 6	;RP1=0, select bank1
  2898  04EF  1303               	movf	(sprintf@fval+3)^080h,w
  2899  04F0  084D               	bcf	status, 5	;RP0=0, select bank0
  2900  04F1  1283               	bcf	status, 6	;RP1=0, select bank0
  2901  04F2  1303               	movwf	(___fltol@f1+3)
  2902  04F3  00DD               	bsf	status, 5	;RP0=1, select bank1
  2903  04F4  1683               	bcf	status, 6	;RP1=0, select bank1
  2904  04F5  1303               	movf	(sprintf@fval+2)^080h,w
  2905  04F6  084C               	bcf	status, 5	;RP0=0, select bank0
  2906  04F7  1283               	bcf	status, 6	;RP1=0, select bank0
  2907  04F8  1303               	movwf	(___fltol@f1+2)
  2908  04F9  00DC               	bsf	status, 5	;RP0=1, select bank1
  2909  04FA  1683               	bcf	status, 6	;RP1=0, select bank1
  2910  04FB  1303               	movf	(sprintf@fval+1)^080h,w
  2911  04FC  084B               	bcf	status, 5	;RP0=0, select bank0
  2912  04FD  1283               	bcf	status, 6	;RP1=0, select bank0
  2913  04FE  1303               	movwf	(___fltol@f1+1)
  2914  04FF  00DB               	bsf	status, 5	;RP0=1, select bank1
  2915  0500  1683               	bcf	status, 6	;RP1=0, select bank1
  2916  0501  1303               	movf	(sprintf@fval)^080h,w
  2917  0502  084A               	bcf	status, 5	;RP0=0, select bank0
  2918  0503  1283               	bcf	status, 6	;RP1=0, select bank0
  2919  0504  1303               	movwf	(___fltol@f1)
  2920  0505  00DA               
  2921                           	fcall	___fltol
  2922  0506  160A  158A  26A2  120A  118A  	bcf	status, 5	;RP0=0, select bank0
  2923  050B  1283               	bcf	status, 6	;RP1=0, select bank0
  2924  050C  1303               	movf	(3+(?___fltol)),w
  2925  050D  085D               	bsf	status, 5	;RP0=1, select bank1
  2926  050E  1683               	bcf	status, 6	;RP1=0, select bank1
  2927  050F  1303               	movwf	(sprintf@val+3)^080h
  2928  0510  00C2               	bcf	status, 5	;RP0=0, select bank0
  2929  0511  1283               	bcf	status, 6	;RP1=0, select bank0
  2930  0512  1303               	movf	(2+(?___fltol)),w
  2931  0513  085C               	bsf	status, 5	;RP0=1, select bank1
  2932  0514  1683               	bcf	status, 6	;RP1=0, select bank1
  2933  0515  1303               	movwf	(sprintf@val+2)^080h
  2934  0516  00C1               	bcf	status, 5	;RP0=0, select bank0
  2935  0517  1283               	bcf	status, 6	;RP1=0, select bank0
  2936  0518  1303               	movf	(1+(?___fltol)),w
  2937  0519  085B               	bsf	status, 5	;RP0=1, select bank1
  2938  051A  1683               	bcf	status, 6	;RP1=0, select bank1
  2939  051B  1303               	movwf	(sprintf@val+1)^080h
  2940  051C  00C0               	bcf	status, 5	;RP0=0, select bank0
  2941  051D  1283               	bcf	status, 6	;RP1=0, select bank0
  2942  051E  1303               	movf	(0+(?___fltol)),w
  2943  051F  085A               	bsf	status, 5	;RP0=1, select bank1
  2944  0520  1683               	bcf	status, 6	;RP1=0, select bank1
  2945  0521  1303               	movwf	(sprintf@val)^080h
  2946  0522  00BF               
  2947                           	line	1151
  2948                           	
  2949                           l3075:	
  2950  0523                     ;C:\Program Files (x86)\Microchip\xc8\v2.00\pic\sources\c90\common\doprnt.c: 1151:      
                                 fval -= (double)val;
  2951                           	movf	(sprintf@val+3)^080h,w
  2952  0523  0842               	movwf	(___xxtofl@val+3)
  2953  0524  00F3               	movf	(sprintf@val+2)^080h,w
  2954  0525  0841               	movwf	(___xxtofl@val+2)
  2955  0526  00F2               	movf	(sprintf@val+1)^080h,w
  2956  0527  0840               	movwf	(___xxtofl@val+1)
  2957  0528  00F1               	movf	(sprintf@val)^080h,w
  2958  0529  083F               	movwf	(___xxtofl@val)
  2959  052A  00F0               
  2960                           	movlw	low(0)
  2961  052B  3000               	fcall	___xxtofl
  2962  052C  160A  158A  273E  120A  118A  	movf	(3+(?___xxtofl)),w
  2963  0531  0873               	bsf	status, 5	;RP0=1, select bank1
  2964  0532  1683               	bcf	status, 6	;RP1=0, select bank1
  2965  0533  1303               	movwf	(___flsub@a+3)^080h
  2966  0534  00A7               	movf	(2+(?___xxtofl)),w
  2967  0535  0872               	movwf	(___flsub@a+2)^080h
  2968  0536  00A6               	movf	(1+(?___xxtofl)),w
  2969  0537  0871               	movwf	(___flsub@a+1)^080h
  2970  0538  00A5               	movf	(0+(?___xxtofl)),w
  2971  0539  0870               	movwf	(___flsub@a)^080h
  2972  053A  00A4               
  2973                           	movf	(sprintf@fval+3)^080h,w
  2974  053B  084D               	movwf	(___flsub@b+3)^080h
  2975  053C  00AB               	movf	(sprintf@fval+2)^080h,w
  2976  053D  084C               	movwf	(___flsub@b+2)^080h
  2977  053E  00AA               	movf	(sprintf@fval+1)^080h,w
  2978  053F  084B               	movwf	(___flsub@b+1)^080h
  2979  0540  00A9               	movf	(sprintf@fval)^080h,w
  2980  0541  084A               	movwf	(___flsub@b)^080h
  2981  0542  00A8               
  2982                           	fcall	___flsub
  2983  0543  120A  158A  2007  120A  118A  	bsf	status, 5	;RP0=1, select bank1
  2984  0548  1683               	bcf	status, 6	;RP1=0, select bank1
  2985  0549  1303               	movf	(3+(?___flsub))^080h,w
  2986  054A  0827               	movwf	(sprintf@fval+3)^080h
  2987  054B  00CD               	movf	(2+(?___flsub))^080h,w
  2988  054C  0826               	movwf	(sprintf@fval+2)^080h
  2989  054D  00CC               	movf	(1+(?___flsub))^080h,w
  2990  054E  0825               	movwf	(sprintf@fval+1)^080h
  2991  054F  00CB               	movf	(0+(?___flsub))^080h,w
  2992  0550  0824               	movwf	(sprintf@fval)^080h
  2993  0551  00CA               
  2994                           	line	1152
  2995                           	
  2996                           l3077:	
  2997  0552                     ;C:\Program Files (x86)\Microchip\xc8\v2.00\pic\sources\c90\common\doprnt.c: 1152:      
                                 eexp = 0;
  2998                           	clrf	(sprintf@eexp)^080h
  2999  0552  01C3               	clrf	(sprintf@eexp+1)^080h
  3000  0553  01C4               	goto	l3079
  3001  0554  2D55               	line	1153
  3002                           ;C:\Program Files (x86)\Microchip\xc8\v2.00\pic\sources\c90\common\doprnt.c: 1153:     }
                                 
  3003                           	
  3004                           l208:	
  3005  0555                     	line	1155
  3006                           	
  3007                           l3079:	
  3008  0555                     ;C:\Program Files (x86)\Microchip\xc8\v2.00\pic\sources\c90\common\doprnt.c: 1155:     f
                                 or(c = 1 ; c != (sizeof dpowers/sizeof dpowers[0]) ; c++)
  3009                           	clrf	(sprintf@c)^080h
  3010  0555  01CE               	incf	(sprintf@c)^080h,f
  3011  0556  0ACE               	
  3012                           l3081:	
  3013  0557                     		movlw	10
  3014  0557  300A               	xorwf	((sprintf@c)^080h),w
  3015  0558  064E               	btfss	status,2
  3016  0559  1D03               	goto	u5511
  3017  055A  2D5C               	goto	u5510
  3018  055B  2D5D               u5511:
  3019  055C                     	goto	l3085
  3020  055C  2D5F               u5510:
  3021  055D                     	goto	l3091
  3022  055D  2DA2               	
  3023                           l3083:	
  3024  055E                     	goto	l3091
  3025  055E  2DA2               	
  3026                           l209:	
  3027  055F                     	line	1156
  3028                           	
  3029                           l3085:	
  3030  055F                     ;C:\Program Files (x86)\Microchip\xc8\v2.00\pic\sources\c90\common\doprnt.c: 1156:      
                                 if(val < dpowers[c])
  3031                           	movf	(sprintf@c)^080h,w
  3032  055F  084E               	movwf	(??_sprintf+0)^080h+0
  3033  0560  00B1               	movlw	(02h)-1
  3034  0561  3001               u5525:
  3035  0562                     	clrc
  3036  0562  1003               	rlf	(??_sprintf+0)^080h+0,f
  3037  0563  0DB1               	addlw	-1
  3038  0564  3EFF               	skipz
  3039  0565  1D03               	goto	u5525
  3040  0566  2D62               	clrc
  3041  0567  1003               	rlf	(??_sprintf+0)^080h+0,w
  3042  0568  0D31               	addlw	low((((_dpowers)-__stringbase)|8000h))
  3043  0569  3E69               	movwf	fsr0
  3044  056A  0084               	fcall	stringdir
  3045  056B  160A  158A  2000  120A  118A  	movwf	((??_sprintf+1)^080h+0)
  3046  0570  00B2               	fcall	stringdir
  3047  0571  160A  158A  2000  120A  118A  	movwf	((??_sprintf+1)^080h+0+1)
  3048  0576  00B3               	fcall	stringdir
  3049  0577  160A  158A  2000  120A  118A  	movwf	((??_sprintf+1)^080h+0+2)
  3050  057C  00B4               	fcall	stringdir
  3051  057D  160A  158A  2000  120A  118A  	movwf	((??_sprintf+1)^080h+0+3)
  3052  0582  00B5               	movf	3+(??_sprintf+1)^080h+0,w
  3053  0583  0835               	subwf	(sprintf@val+3)^080h,w
  3054  0584  0242               	skipz
  3055  0585  1D03               	goto	u5535
  3056  0586  2D91               	movf	2+(??_sprintf+1)^080h+0,w
  3057  0587  0834               	subwf	(sprintf@val+2)^080h,w
  3058  0588  0241               	skipz
  3059  0589  1D03               	goto	u5535
  3060  058A  2D91               	movf	1+(??_sprintf+1)^080h+0,w
  3061  058B  0833               	subwf	(sprintf@val+1)^080h,w
  3062  058C  0240               	skipz
  3063  058D  1D03               	goto	u5535
  3064  058E  2D91               	movf	0+(??_sprintf+1)^080h+0,w
  3065  058F  0832               	subwf	(sprintf@val)^080h,w
  3066  0590  023F               u5535:
  3067  0591                     	skipnc
  3068  0591  1803               	goto	u5531
  3069  0592  2D94               	goto	u5530
  3070  0593  2D95               u5531:
  3071  0594                     	goto	l3089
  3072  0594  2D97               u5530:
  3073  0595                     	goto	l3091
  3074  0595  2DA2               	line	1157
  3075                           	
  3076                           l3087:	
  3077  0596                     ;C:\Program Files (x86)\Microchip\xc8\v2.00\pic\sources\c90\common\doprnt.c: 1157:      
                                  break;
  3078                           	goto	l3091
  3079  0596  2DA2               	
  3080                           l211:	
  3081  0597                     	
  3082                           l3089:	
  3083  0597                     	movlw	low(01h)
  3084  0597  3001               	movwf	(??_sprintf+0)^080h+0
  3085  0598  00B1               	movf	(??_sprintf+0)^080h+0,w
  3086  0599  0831               	addwf	(sprintf@c)^080h,f
  3087  059A  07CE               		movlw	10
  3088  059B  300A               	xorwf	((sprintf@c)^080h),w
  3089  059C  064E               	btfss	status,2
  3090  059D  1D03               	goto	u5541
  3091  059E  2DA0               	goto	u5540
  3092  059F  2DA1               u5541:
  3093  05A0                     	goto	l3085
  3094  05A0  2D5F               u5540:
  3095  05A1                     	goto	l3091
  3096  05A1  2DA2               	
  3097                           l210:	
  3098  05A2                     	line	1207
  3099                           	
  3100                           l3091:	
  3101  05A2                     ;C:\Program Files (x86)\Microchip\xc8\v2.00\pic\sources\c90\common\doprnt.c: 1194:     {
                                 ;C:\Program Files (x86)\Microchip\xc8\v2.00\pic\sources\c90\common\doprnt.c: 1207:     i
                                 f(flag & 0x03)
  3102                           	movlw	03h
  3103  05A2  3003               	andwf	(sprintf@flag)^080h,w
  3104  05A3  053B               	movwf	(??_sprintf+0)^080h+0
  3105  05A4  00B1               	movlw	0
  3106  05A5  3000               	andwf	(sprintf@flag+1)^080h,w
  3107  05A6  053C               	movwf	1+(??_sprintf+0)^080h+0
  3108  05A7  00B2               	movf	((??_sprintf+0)^080h+0),w
  3109  05A8  0831               iorwf	((??_sprintf+0)^080h+1),w
  3110  05A9  0432               	btfsc	status,2
  3111  05AA  1903               	goto	u5551
  3112  05AB  2DAD               	goto	u5550
  3113  05AC  2DAE               u5551:
  3114  05AD                     	goto	l213
  3115  05AD  2E21               u5550:
  3116  05AE                     	line	1209
  3117                           	
  3118                           l3093:	
  3119  05AE                     ;C:\Program Files (x86)\Microchip\xc8\v2.00\pic\sources\c90\common\doprnt.c: 1209:      
                                 ((*sp++ = ('-')));
  3120                           	movlw	low(02Dh)
  3121  05AE  302D               	movwf	(??_sprintf+0)^080h+0
  3122  05AF  00B1               	movf	(sprintf@sp)^080h,w
  3123  05B0  0849               	movwf	fsr0
  3124  05B1  0084               	movf	(??_sprintf+0)^080h+0,w
  3125  05B2  0831               	bcf	status, 7	;select IRP bank0
  3126  05B3  1383               	movwf	indf
  3127  05B4  0080               	
  3128                           l3095:	
  3129  05B5                     	movlw	low(01h)
  3130  05B5  3001               	movwf	(??_sprintf+0)^080h+0
  3131  05B6  00B1               	movf	(??_sprintf+0)^080h+0,w
  3132  05B7  0831               	addwf	(sprintf@sp)^080h,f
  3133  05B8  07C9               	goto	l213
  3134  05B9  2E21               	
  3135                           l212:	
  3136  05BA                     	line	1215
  3137                           ;C:\Program Files (x86)\Microchip\xc8\v2.00\pic\sources\c90\common\doprnt.c: 1214:    };
                                 C:\Program Files (x86)\Microchip\xc8\v2.00\pic\sources\c90\common\doprnt.c: 1215:    whi
                                 le(c--) {
  3138                           	goto	l213
  3139  05BA  2E21               	
  3140                           l214:	
  3141  05BB                     	line	1220
  3142                           	
  3143                           l3097:	
  3144  05BB                     ;C:\Program Files (x86)\Microchip\xc8\v2.00\pic\sources\c90\common\doprnt.c: 1219:     {
                                 ;C:\Program Files (x86)\Microchip\xc8\v2.00\pic\sources\c90\common\doprnt.c: 1220:      
                                 tmpval.vd = val/dpowers[c];
  3145                           	movf	(sprintf@c)^080h,w
  3146  05BB  084E               	movwf	(??_sprintf+0)^080h+0
  3147  05BC  00B1               	movlw	(02h)-1
  3148  05BD  3001               u5565:
  3149  05BE                     	clrc
  3150  05BE  1003               	rlf	(??_sprintf+0)^080h+0,f
  3151  05BF  0DB1               	addlw	-1
  3152  05C0  3EFF               	skipz
  3153  05C1  1D03               	goto	u5565
  3154  05C2  2DBE               	clrc
  3155  05C3  1003               	rlf	(??_sprintf+0)^080h+0,w
  3156  05C4  0D31               	addlw	low((((_dpowers)-__stringbase)|8000h))
  3157  05C5  3E69               	movwf	fsr0
  3158  05C6  0084               	fcall	stringdir
  3159  05C7  160A  158A  2000  120A  118A  	movwf	(___lldiv@divisor)
  3160  05CC  00F0               	fcall	stringdir
  3161  05CD  160A  158A  2000  120A  118A  	movwf	(___lldiv@divisor+1)
  3162  05D2  00F1               	fcall	stringdir
  3163  05D3  160A  158A  2000  120A  118A  	movwf	(___lldiv@divisor+2)
  3164  05D8  00F2               	fcall	stringdir
  3165  05D9  160A  158A  2000  120A  118A  	movwf	(___lldiv@divisor+3)
  3166  05DE  00F3               	movf	(sprintf@val+3)^080h,w
  3167  05DF  0842               	movwf	(___lldiv@dividend+3)
  3168  05E0  00F7               	movf	(sprintf@val+2)^080h,w
  3169  05E1  0841               	movwf	(___lldiv@dividend+2)
  3170  05E2  00F6               	movf	(sprintf@val+1)^080h,w
  3171  05E3  0840               	movwf	(___lldiv@dividend+1)
  3172  05E4  00F5               	movf	(sprintf@val)^080h,w
  3173  05E5  083F               	movwf	(___lldiv@dividend)
  3174  05E6  00F4               
  3175                           	fcall	___lldiv
  3176  05E7  160A  118A  2002  120A  118A  	movf	(3+(?___lldiv)),w
  3177  05EC  0873               	bsf	status, 5	;RP0=1, select bank1
  3178  05ED  1683               	bcf	status, 6	;RP1=0, select bank1
  3179  05EE  1303               	movwf	(sprintf@tmpval+3)^080h
  3180  05EF  00C8               	movf	(2+(?___lldiv)),w
  3181  05F0  0872               	movwf	(sprintf@tmpval+2)^080h
  3182  05F1  00C7               	movf	(1+(?___lldiv)),w
  3183  05F2  0871               	movwf	(sprintf@tmpval+1)^080h
  3184  05F3  00C6               	movf	(0+(?___lldiv)),w
  3185  05F4  0870               	movwf	(sprintf@tmpval)^080h
  3186  05F5  00C5               
  3187                           	line	1221
  3188                           	
  3189                           l3099:	
  3190  05F6                     ;C:\Program Files (x86)\Microchip\xc8\v2.00\pic\sources\c90\common\doprnt.c: 1221:      
                                 tmpval.vd %= 10;
  3191                           	movlw	0
  3192  05F6  3000               	movwf	(___llmod@divisor+3)
  3193  05F7  00F3               	movlw	0
  3194  05F8  3000               	movwf	(___llmod@divisor+2)
  3195  05F9  00F2               	movlw	0
  3196  05FA  3000               	movwf	(___llmod@divisor+1)
  3197  05FB  00F1               	movlw	0Ah
  3198  05FC  300A               	movwf	(___llmod@divisor)
  3199  05FD  00F0               
  3200                           	movf	(sprintf@tmpval+3)^080h,w
  3201  05FE  0848               	movwf	(___llmod@dividend+3)
  3202  05FF  00F7               	movf	(sprintf@tmpval+2)^080h,w
  3203  0600  0847               	movwf	(___llmod@dividend+2)
  3204  0601  00F6               	movf	(sprintf@tmpval+1)^080h,w
  3205  0602  0846               	movwf	(___llmod@dividend+1)
  3206  0603  00F5               	movf	(sprintf@tmpval)^080h,w
  3207  0604  0845               	movwf	(___llmod@dividend)
  3208  0605  00F4               
  3209                           	fcall	___llmod
  3210  0606  160A  158A  248E  120A  118A  	movf	(3+(?___llmod)),w
  3211  060B  0873               	bsf	status, 5	;RP0=1, select bank1
  3212  060C  1683               	bcf	status, 6	;RP1=0, select bank1
  3213  060D  1303               	movwf	(sprintf@tmpval+3)^080h
  3214  060E  00C8               	movf	(2+(?___llmod)),w
  3215  060F  0872               	movwf	(sprintf@tmpval+2)^080h
  3216  0610  00C7               	movf	(1+(?___llmod)),w
  3217  0611  0871               	movwf	(sprintf@tmpval+1)^080h
  3218  0612  00C6               	movf	(0+(?___llmod)),w
  3219  0613  0870               	movwf	(sprintf@tmpval)^080h
  3220  0614  00C5               
  3221                           	line	1222
  3222                           	
  3223                           l3101:	
  3224  0615                     ;C:\Program Files (x86)\Microchip\xc8\v2.00\pic\sources\c90\common\doprnt.c: 1222:      
                                 ((*sp++ = ('0' + tmpval.vd)));
  3225                           	movf	(sprintf@tmpval)^080h,w
  3226  0615  0845               	addlw	030h
  3227  0616  3E30               	movwf	(??_sprintf+0)^080h+0
  3228  0617  00B1               	movf	(sprintf@sp)^080h,w
  3229  0618  0849               	movwf	fsr0
  3230  0619  0084               	movf	(??_sprintf+0)^080h+0,w
  3231  061A  0831               	bcf	status, 7	;select IRP bank0
  3232  061B  1383               	movwf	indf
  3233  061C  0080               	movlw	low(01h)
  3234  061D  3001               	movwf	(??_sprintf+0)^080h+0
  3235  061E  00B1               	movf	(??_sprintf+0)^080h+0,w
  3236  061F  0831               	addwf	(sprintf@sp)^080h,f
  3237  0620  07C9               	line	1225
  3238                           ;C:\Program Files (x86)\Microchip\xc8\v2.00\pic\sources\c90\common\doprnt.c: 1223:     }
                                 ;C:\Program Files (x86)\Microchip\xc8\v2.00\pic\sources\c90\common\doprnt.c: 1225:    }

  3239                           	
  3240                           l213:	
  3241  0621                     	line	1215
  3242                           ;C:\Program Files (x86)\Microchip\xc8\v2.00\pic\sources\c90\common\doprnt.c: 1215:    wh
                                 ile(c--) {
  3243                           	movlw	01h
  3244  0621  3001               	subwf	(sprintf@c)^080h,f
  3245  0622  02CE               		incf	(((sprintf@c)^080h)),w
  3246  0623  0A4E               	btfss	status,2
  3247  0624  1D03               	goto	u5571
  3248  0625  2E27               	goto	u5570
  3249  0626  2E28               u5571:
  3250  0627                     	goto	l3097
  3251  0627  2DBB               u5570:
  3252  0628                     	goto	l3109
  3253  0628  2E3E               	
  3254                           l215:	
  3255  0629                     	line	1226
  3256                           ;C:\Program Files (x86)\Microchip\xc8\v2.00\pic\sources\c90\common\doprnt.c: 1226:    wh
                                 ile(eexp > 0) {
  3257                           	goto	l3109
  3258  0629  2E3E               	
  3259                           l217:	
  3260  062A                     	line	1227
  3261                           	
  3262                           l3103:	
  3263  062A                     ;C:\Program Files (x86)\Microchip\xc8\v2.00\pic\sources\c90\common\doprnt.c: 1227:     (
                                 (*sp++ = ('0')));
  3264                           	movlw	low(030h)
  3265  062A  3030               	bsf	status, 5	;RP0=1, select bank1
  3266  062B  1683               	bcf	status, 6	;RP1=0, select bank1
  3267  062C  1303               	movwf	(??_sprintf+0)^080h+0
  3268  062D  00B1               	movf	(sprintf@sp)^080h,w
  3269  062E  0849               	movwf	fsr0
  3270  062F  0084               	movf	(??_sprintf+0)^080h+0,w
  3271  0630  0831               	bcf	status, 7	;select IRP bank0
  3272  0631  1383               	movwf	indf
  3273  0632  0080               	
  3274                           l3105:	
  3275  0633                     	movlw	low(01h)
  3276  0633  3001               	movwf	(??_sprintf+0)^080h+0
  3277  0634  00B1               	movf	(??_sprintf+0)^080h+0,w
  3278  0635  0831               	addwf	(sprintf@sp)^080h,f
  3279  0636  07C9               	line	1228
  3280                           	
  3281                           l3107:	
  3282  0637                     ;C:\Program Files (x86)\Microchip\xc8\v2.00\pic\sources\c90\common\doprnt.c: 1228:     e
                                 exp--;
  3283                           	movlw	0FFh
  3284  0637  30FF               	addwf	(sprintf@eexp)^080h,f
  3285  0638  07C3               	skipnc
  3286  0639  1803               	incf	(sprintf@eexp+1)^080h,f
  3287  063A  0AC4               	movlw	0FFh
  3288  063B  30FF               	addwf	(sprintf@eexp+1)^080h,f
  3289  063C  07C4               	goto	l3109
  3290  063D  2E3E               	line	1229
  3291                           ;C:\Program Files (x86)\Microchip\xc8\v2.00\pic\sources\c90\common\doprnt.c: 1229:    }

  3292                           	
  3293                           l216:	
  3294  063E                     	line	1226
  3295                           	
  3296                           l3109:	
  3297  063E                     ;C:\Program Files (x86)\Microchip\xc8\v2.00\pic\sources\c90\common\doprnt.c: 1226:    wh
                                 ile(eexp > 0) {
  3298                           	movf	(sprintf@eexp+1)^080h,w
  3299  063E  0844               	xorlw	80h
  3300  063F  3A80               	movwf	btemp+1
  3301  0640  00FF               	movlw	(0)^80h
  3302  0641  3080               	subwf	btemp+1,w
  3303  0642  027F               	skipz
  3304  0643  1D03               	goto	u5585
  3305  0644  2E47               	movlw	01h
  3306  0645  3001               	subwf	(sprintf@eexp)^080h,w
  3307  0646  0243               u5585:
  3308  0647                     
  3309                           	skipnc
  3310  0647  1803               	goto	u5581
  3311  0648  2E4A               	goto	u5580
  3312  0649  2E4B               u5581:
  3313  064A                     	goto	l3103
  3314  064A  2E2A               u5580:
  3315  064B                     	goto	l3111
  3316  064B  2E4C               	
  3317                           l218:	
  3318  064C                     	line	1230
  3319                           	
  3320                           l3111:	
  3321  064C                     ;C:\Program Files (x86)\Microchip\xc8\v2.00\pic\sources\c90\common\doprnt.c: 1230:    if
                                 (prec > (int)((sizeof dpowers/sizeof dpowers[0])-2))
  3322                           	bsf	status, 5	;RP0=1, select bank1
  3323  064C  1683               	bcf	status, 6	;RP1=0, select bank1
  3324  064D  1303               	movf	(sprintf@prec+1)^080h,w
  3325  064E  083E               	xorlw	80h
  3326  064F  3A80               	movwf	btemp+1
  3327  0650  00FF               	movlw	(0)^80h
  3328  0651  3080               	subwf	btemp+1,w
  3329  0652  027F               	skipz
  3330  0653  1D03               	goto	u5595
  3331  0654  2E57               	movlw	09h
  3332  0655  3009               	subwf	(sprintf@prec)^080h,w
  3333  0656  023D               u5595:
  3334  0657                     
  3335                           	skipc
  3336  0657  1C03               	goto	u5591
  3337  0658  2E5A               	goto	u5590
  3338  0659  2E5B               u5591:
  3339  065A                     	goto	l3115
  3340  065A  2E62               u5590:
  3341  065B                     	line	1231
  3342                           	
  3343                           l3113:	
  3344  065B                     ;C:\Program Files (x86)\Microchip\xc8\v2.00\pic\sources\c90\common\doprnt.c: 1231:     c
                                  = (sizeof dpowers/sizeof dpowers[0])-2;
  3345                           	movlw	low(08h)
  3346  065B  3008               	bsf	status, 5	;RP0=1, select bank1
  3347  065C  1683               	bcf	status, 6	;RP1=0, select bank1
  3348  065D  1303               	movwf	(??_sprintf+0)^080h+0
  3349  065E  00B1               	movf	(??_sprintf+0)^080h+0,w
  3350  065F  0831               	movwf	(sprintf@c)^080h
  3351  0660  00CE               	goto	l220
  3352  0661  2E68               	line	1232
  3353                           ;C:\Program Files (x86)\Microchip\xc8\v2.00\pic\sources\c90\common\doprnt.c: 1232:    el
                                 se
  3354                           	
  3355                           l219:	
  3356  0662                     	line	1233
  3357                           	
  3358                           l3115:	
  3359  0662                     ;C:\Program Files (x86)\Microchip\xc8\v2.00\pic\sources\c90\common\doprnt.c: 1233:     c
                                  = (char)prec;
  3360                           	bsf	status, 5	;RP0=1, select bank1
  3361  0662  1683               	bcf	status, 6	;RP1=0, select bank1
  3362  0663  1303               	movf	(sprintf@prec)^080h,w
  3363  0664  083D               	movwf	(??_sprintf+0)^080h+0
  3364  0665  00B1               	movf	(??_sprintf+0)^080h+0,w
  3365  0666  0831               	movwf	(sprintf@c)^080h
  3366  0667  00CE               	
  3367                           l220:	
  3368  0668                     	line	1234
  3369                           ;C:\Program Files (x86)\Microchip\xc8\v2.00\pic\sources\c90\common\doprnt.c: 1234:    pr
                                 ec -= (int)c;
  3370                           	movf	(sprintf@c)^080h,w
  3371  0668  084E               	movwf	(??_sprintf+0)^080h+0
  3372  0669  00B1               	clrf	(??_sprintf+0)^080h+0+1
  3373  066A  01B2               	movf	0+(??_sprintf+0)^080h+0,w
  3374  066B  0831               	subwf	(sprintf@prec)^080h,f
  3375  066C  02BD               	movf	1+(??_sprintf+0)^080h+0,w
  3376  066D  0832               	skipc
  3377  066E  1C03               	decf	(sprintf@prec+1)^080h,f
  3378  066F  03BE               	subwf	(sprintf@prec+1)^080h,f
  3379  0670  02BE               	line	1238
  3380                           	
  3381                           l3117:	
  3382  0671                     ;C:\Program Files (x86)\Microchip\xc8\v2.00\pic\sources\c90\common\doprnt.c: 1238:    if
                                 (c)
  3383                           	movf	((sprintf@c)^080h),w
  3384  0671  084E               	btfsc	status,2
  3385  0672  1903               	goto	u5601
  3386  0673  2E75               	goto	u5600
  3387  0674  2E76               u5601:
  3388  0675                     	goto	l3123
  3389  0675  2E82               u5600:
  3390  0676                     	line	1240
  3391                           	
  3392                           l3119:	
  3393  0676                     ;C:\Program Files (x86)\Microchip\xc8\v2.00\pic\sources\c90\common\doprnt.c: 1240:     (
                                 (*sp++ = ('.')));
  3394                           	movlw	low(02Eh)
  3395  0676  302E               	movwf	(??_sprintf+0)^080h+0
  3396  0677  00B1               	movf	(sprintf@sp)^080h,w
  3397  0678  0849               	movwf	fsr0
  3398  0679  0084               	movf	(??_sprintf+0)^080h+0,w
  3399  067A  0831               	bcf	status, 7	;select IRP bank0
  3400  067B  1383               	movwf	indf
  3401  067C  0080               	
  3402                           l3121:	
  3403  067D                     	movlw	low(01h)
  3404  067D  3001               	movwf	(??_sprintf+0)^080h+0
  3405  067E  00B1               	movf	(??_sprintf+0)^080h+0,w
  3406  067F  0831               	addwf	(sprintf@sp)^080h,f
  3407  0680  07C9               	goto	l3123
  3408  0681  2E82               	
  3409                           l221:	
  3410  0682                     	line	1246
  3411                           	
  3412                           l3123:	
  3413  0682                     ;C:\Program Files (x86)\Microchip\xc8\v2.00\pic\sources\c90\common\doprnt.c: 1246:    va
                                 l = (unsigned long)(fval * scale((signed char)c));
  3414                           	movf	(sprintf@c)^080h,w
  3415  0682  084E               	fcall	_scale
  3416  0683  160A  118A  2491  120A  118A  	bcf	status, 5	;RP0=0, select bank0
  3417  0688  1283               	bcf	status, 6	;RP1=0, select bank0
  3418  0689  1303               	movf	(3+(?_scale)),w
  3419  068A  084A               	bsf	status, 5	;RP0=1, select bank1
  3420  068B  1683               	bcf	status, 6	;RP1=0, select bank1
  3421  068C  1303               	movwf	(_sprintf$743+3)^080h
  3422  068D  00B9               	bcf	status, 5	;RP0=0, select bank0
  3423  068E  1283               	bcf	status, 6	;RP1=0, select bank0
  3424  068F  1303               	movf	(2+(?_scale)),w
  3425  0690  0849               	bsf	status, 5	;RP0=1, select bank1
  3426  0691  1683               	bcf	status, 6	;RP1=0, select bank1
  3427  0692  1303               	movwf	(_sprintf$743+2)^080h
  3428  0693  00B8               	bcf	status, 5	;RP0=0, select bank0
  3429  0694  1283               	bcf	status, 6	;RP1=0, select bank0
  3430  0695  1303               	movf	(1+(?_scale)),w
  3431  0696  0848               	bsf	status, 5	;RP0=1, select bank1
  3432  0697  1683               	bcf	status, 6	;RP1=0, select bank1
  3433  0698  1303               	movwf	(_sprintf$743+1)^080h
  3434  0699  00B7               	bcf	status, 5	;RP0=0, select bank0
  3435  069A  1283               	bcf	status, 6	;RP1=0, select bank0
  3436  069B  1303               	movf	(0+(?_scale)),w
  3437  069C  0847               	bsf	status, 5	;RP0=1, select bank1
  3438  069D  1683               	bcf	status, 6	;RP1=0, select bank1
  3439  069E  1303               	movwf	(_sprintf$743)^080h
  3440  069F  00B6               
  3441                           	
  3442                           l3125:	
  3443  06A0                     ;C:\Program Files (x86)\Microchip\xc8\v2.00\pic\sources\c90\common\doprnt.c: 1246:    va
                                 l = (unsigned long)(fval * scale((signed char)c));
  3444                           	movf	(_sprintf$743+3)^080h,w
  3445  06A0  0839               	bcf	status, 5	;RP0=0, select bank0
  3446  06A1  1283               	bcf	status, 6	;RP1=0, select bank0
  3447  06A2  1303               	movwf	(___flmul@a+3)
  3448  06A3  00B4               	bsf	status, 5	;RP0=1, select bank1
  3449  06A4  1683               	bcf	status, 6	;RP1=0, select bank1
  3450  06A5  1303               	movf	(_sprintf$743+2)^080h,w
  3451  06A6  0838               	bcf	status, 5	;RP0=0, select bank0
  3452  06A7  1283               	bcf	status, 6	;RP1=0, select bank0
  3453  06A8  1303               	movwf	(___flmul@a+2)
  3454  06A9  00B3               	bsf	status, 5	;RP0=1, select bank1
  3455  06AA  1683               	bcf	status, 6	;RP1=0, select bank1
  3456  06AB  1303               	movf	(_sprintf$743+1)^080h,w
  3457  06AC  0837               	bcf	status, 5	;RP0=0, select bank0
  3458  06AD  1283               	bcf	status, 6	;RP1=0, select bank0
  3459  06AE  1303               	movwf	(___flmul@a+1)
  3460  06AF  00B2               	bsf	status, 5	;RP0=1, select bank1
  3461  06B0  1683               	bcf	status, 6	;RP1=0, select bank1
  3462  06B1  1303               	movf	(_sprintf$743)^080h,w
  3463  06B2  0836               	bcf	status, 5	;RP0=0, select bank0
  3464  06B3  1283               	bcf	status, 6	;RP1=0, select bank0
  3465  06B4  1303               	movwf	(___flmul@a)
  3466  06B5  00B1               
  3467                           	bsf	status, 5	;RP0=1, select bank1
  3468  06B6  1683               	bcf	status, 6	;RP1=0, select bank1
  3469  06B7  1303               	movf	(sprintf@fval+3)^080h,w
  3470  06B8  084D               	bcf	status, 5	;RP0=0, select bank0
  3471  06B9  1283               	bcf	status, 6	;RP1=0, select bank0
  3472  06BA  1303               	movwf	(___flmul@b+3)
  3473  06BB  00B0               	bsf	status, 5	;RP0=1, select bank1
  3474  06BC  1683               	bcf	status, 6	;RP1=0, select bank1
  3475  06BD  1303               	movf	(sprintf@fval+2)^080h,w
  3476  06BE  084C               	bcf	status, 5	;RP0=0, select bank0
  3477  06BF  1283               	bcf	status, 6	;RP1=0, select bank0
  3478  06C0  1303               	movwf	(___flmul@b+2)
  3479  06C1  00AF               	bsf	status, 5	;RP0=1, select bank1
  3480  06C2  1683               	bcf	status, 6	;RP1=0, select bank1
  3481  06C3  1303               	movf	(sprintf@fval+1)^080h,w
  3482  06C4  084B               	bcf	status, 5	;RP0=0, select bank0
  3483  06C5  1283               	bcf	status, 6	;RP1=0, select bank0
  3484  06C6  1303               	movwf	(___flmul@b+1)
  3485  06C7  00AE               	bsf	status, 5	;RP0=1, select bank1
  3486  06C8  1683               	bcf	status, 6	;RP1=0, select bank1
  3487  06C9  1303               	movf	(sprintf@fval)^080h,w
  3488  06CA  084A               	bcf	status, 5	;RP0=0, select bank0
  3489  06CB  1283               	bcf	status, 6	;RP1=0, select bank0
  3490  06CC  1303               	movwf	(___flmul@b)
  3491  06CD  00AD               
  3492                           	fcall	___flmul
  3493  06CE  120A  158A  248B  120A  118A  	bcf	status, 5	;RP0=0, select bank0
  3494  06D3  1283               	bcf	status, 6	;RP1=0, select bank0
  3495  06D4  1303               	movf	(3+(?___flmul)),w
  3496  06D5  0830               	movwf	(___fltol@f1+3)
  3497  06D6  00DD               	movf	(2+(?___flmul)),w
  3498  06D7  082F               	movwf	(___fltol@f1+2)
  3499  06D8  00DC               	movf	(1+(?___flmul)),w
  3500  06D9  082E               	movwf	(___fltol@f1+1)
  3501  06DA  00DB               	movf	(0+(?___flmul)),w
  3502  06DB  082D               	movwf	(___fltol@f1)
  3503  06DC  00DA               
  3504                           	fcall	___fltol
  3505  06DD  160A  158A  26A2  120A  118A  	bcf	status, 5	;RP0=0, select bank0
  3506  06E2  1283               	bcf	status, 6	;RP1=0, select bank0
  3507  06E3  1303               	movf	(3+(?___fltol)),w
  3508  06E4  085D               	bsf	status, 5	;RP0=1, select bank1
  3509  06E5  1683               	bcf	status, 6	;RP1=0, select bank1
  3510  06E6  1303               	movwf	(sprintf@val+3)^080h
  3511  06E7  00C2               	bcf	status, 5	;RP0=0, select bank0
  3512  06E8  1283               	bcf	status, 6	;RP1=0, select bank0
  3513  06E9  1303               	movf	(2+(?___fltol)),w
  3514  06EA  085C               	bsf	status, 5	;RP0=1, select bank1
  3515  06EB  1683               	bcf	status, 6	;RP1=0, select bank1
  3516  06EC  1303               	movwf	(sprintf@val+2)^080h
  3517  06ED  00C1               	bcf	status, 5	;RP0=0, select bank0
  3518  06EE  1283               	bcf	status, 6	;RP1=0, select bank0
  3519  06EF  1303               	movf	(1+(?___fltol)),w
  3520  06F0  085B               	bsf	status, 5	;RP0=1, select bank1
  3521  06F1  1683               	bcf	status, 6	;RP1=0, select bank1
  3522  06F2  1303               	movwf	(sprintf@val+1)^080h
  3523  06F3  00C0               	bcf	status, 5	;RP0=0, select bank0
  3524  06F4  1283               	bcf	status, 6	;RP1=0, select bank0
  3525  06F5  1303               	movf	(0+(?___fltol)),w
  3526  06F6  085A               	bsf	status, 5	;RP0=1, select bank1
  3527  06F7  1683               	bcf	status, 6	;RP1=0, select bank1
  3528  06F8  1303               	movwf	(sprintf@val)^080h
  3529  06F9  00BF               
  3530                           	line	1247
  3531                           ;C:\Program Files (x86)\Microchip\xc8\v2.00\pic\sources\c90\common\doprnt.c: 1247:    wh
                                 ile(c--) {
  3532                           	goto	l3135
  3533  06FA  2F9D               	
  3534                           l223:	
  3535  06FB                     	line	1248
  3536                           	
  3537                           l3127:	
  3538  06FB                     ;C:\Program Files (x86)\Microchip\xc8\v2.00\pic\sources\c90\common\doprnt.c: 1248:     t
                                 mpval.vd = val/dpowers[c];
  3539                           	movf	(sprintf@c)^080h,w
  3540  06FB  084E               	movwf	(??_sprintf+0)^080h+0
  3541  06FC  00B1               	movlw	(02h)-1
  3542  06FD  3001               u5615:
  3543  06FE                     	clrc
  3544  06FE  1003               	rlf	(??_sprintf+0)^080h+0,f
  3545  06FF  0DB1               	addlw	-1
  3546  0700  3EFF               	skipz
  3547  0701  1D03               	goto	u5615
  3548  0702  2EFE               	clrc
  3549  0703  1003               	rlf	(??_sprintf+0)^080h+0,w
  3550  0704  0D31               	addlw	low((((_dpowers)-__stringbase)|8000h))
  3551  0705  3E69               	movwf	fsr0
  3552  0706  0084               	fcall	stringdir
  3553  0707  160A  158A  2000  120A  118A  	movwf	(___lldiv@divisor)
  3554  070C  00F0               	fcall	stringdir
  3555  070D  160A  158A  2000  120A  118A  	movwf	(___lldiv@divisor+1)
  3556  0712  00F1               	fcall	stringdir
  3557  0713  160A  158A  2000  120A  118A  	movwf	(___lldiv@divisor+2)
  3558  0718  00F2               	fcall	stringdir
  3559  0719  160A  158A  2000  120A  118A  	movwf	(___lldiv@divisor+3)
  3560  071E  00F3               	movf	(sprintf@val+3)^080h,w
  3561  071F  0842               	movwf	(___lldiv@dividend+3)
  3562  0720  00F7               	movf	(sprintf@val+2)^080h,w
  3563  0721  0841               	movwf	(___lldiv@dividend+2)
  3564  0722  00F6               	movf	(sprintf@val+1)^080h,w
  3565  0723  0840               	movwf	(___lldiv@dividend+1)
  3566  0724  00F5               	movf	(sprintf@val)^080h,w
  3567  0725  083F               	movwf	(___lldiv@dividend)
  3568  0726  00F4               
  3569                           	fcall	___lldiv
  3570  0727  160A  118A  2002  120A  118A  	movf	(3+(?___lldiv)),w
  3571  072C  0873               	bsf	status, 5	;RP0=1, select bank1
  3572  072D  1683               	bcf	status, 6	;RP1=0, select bank1
  3573  072E  1303               	movwf	(sprintf@tmpval+3)^080h
  3574  072F  00C8               	movf	(2+(?___lldiv)),w
  3575  0730  0872               	movwf	(sprintf@tmpval+2)^080h
  3576  0731  00C7               	movf	(1+(?___lldiv)),w
  3577  0732  0871               	movwf	(sprintf@tmpval+1)^080h
  3578  0733  00C6               	movf	(0+(?___lldiv)),w
  3579  0734  0870               	movwf	(sprintf@tmpval)^080h
  3580  0735  00C5               
  3581                           	line	1249
  3582                           	
  3583                           l3129:	
  3584  0736                     ;C:\Program Files (x86)\Microchip\xc8\v2.00\pic\sources\c90\common\doprnt.c: 1249:     t
                                 mpval.vd %= 10;
  3585                           	movlw	0
  3586  0736  3000               	movwf	(___llmod@divisor+3)
  3587  0737  00F3               	movlw	0
  3588  0738  3000               	movwf	(___llmod@divisor+2)
  3589  0739  00F2               	movlw	0
  3590  073A  3000               	movwf	(___llmod@divisor+1)
  3591  073B  00F1               	movlw	0Ah
  3592  073C  300A               	movwf	(___llmod@divisor)
  3593  073D  00F0               
  3594                           	movf	(sprintf@tmpval+3)^080h,w
  3595  073E  0848               	movwf	(___llmod@dividend+3)
  3596  073F  00F7               	movf	(sprintf@tmpval+2)^080h,w
  3597  0740  0847               	movwf	(___llmod@dividend+2)
  3598  0741  00F6               	movf	(sprintf@tmpval+1)^080h,w
  3599  0742  0846               	movwf	(___llmod@dividend+1)
  3600  0743  00F5               	movf	(sprintf@tmpval)^080h,w
  3601  0744  0845               	movwf	(___llmod@dividend)
  3602  0745  00F4               
  3603                           	fcall	___llmod
  3604  0746  160A  158A  248E  120A  118A  	movf	(3+(?___llmod)),w
  3605  074B  0873               	bsf	status, 5	;RP0=1, select bank1
  3606  074C  1683               	bcf	status, 6	;RP1=0, select bank1
  3607  074D  1303               	movwf	(sprintf@tmpval+3)^080h
  3608  074E  00C8               	movf	(2+(?___llmod)),w
  3609  074F  0872               	movwf	(sprintf@tmpval+2)^080h
  3610  0750  00C7               	movf	(1+(?___llmod)),w
  3611  0751  0871               	movwf	(sprintf@tmpval+1)^080h
  3612  0752  00C6               	movf	(0+(?___llmod)),w
  3613  0753  0870               	movwf	(sprintf@tmpval)^080h
  3614  0754  00C5               
  3615                           	line	1250
  3616                           	
  3617                           l3131:	
  3618  0755                     ;C:\Program Files (x86)\Microchip\xc8\v2.00\pic\sources\c90\common\doprnt.c: 1250:     (
                                 (*sp++ = ('0' + tmpval.vd)));
  3619                           	movf	(sprintf@tmpval)^080h,w
  3620  0755  0845               	addlw	030h
  3621  0756  3E30               	movwf	(??_sprintf+0)^080h+0
  3622  0757  00B1               	movf	(sprintf@sp)^080h,w
  3623  0758  0849               	movwf	fsr0
  3624  0759  0084               	movf	(??_sprintf+0)^080h+0,w
  3625  075A  0831               	bcf	status, 7	;select IRP bank0
  3626  075B  1383               	movwf	indf
  3627  075C  0080               	movlw	low(01h)
  3628  075D  3001               	movwf	(??_sprintf+0)^080h+0
  3629  075E  00B1               	movf	(??_sprintf+0)^080h+0,w
  3630  075F  0831               	addwf	(sprintf@sp)^080h,f
  3631  0760  07C9               	line	1251
  3632                           	
  3633                           l3133:	
  3634  0761                     ;C:\Program Files (x86)\Microchip\xc8\v2.00\pic\sources\c90\common\doprnt.c: 1251:     v
                                 al %= dpowers[c];
  3635                           	movf	(sprintf@c)^080h,w
  3636  0761  084E               	movwf	(??_sprintf+0)^080h+0
  3637  0762  00B1               	movlw	(02h)-1
  3638  0763  3001               u5625:
  3639  0764                     	clrc
  3640  0764  1003               	rlf	(??_sprintf+0)^080h+0,f
  3641  0765  0DB1               	addlw	-1
  3642  0766  3EFF               	skipz
  3643  0767  1D03               	goto	u5625
  3644  0768  2F64               	clrc
  3645  0769  1003               	rlf	(??_sprintf+0)^080h+0,w
  3646  076A  0D31               	addlw	low((((_dpowers)-__stringbase)|8000h))
  3647  076B  3E69               	movwf	fsr0
  3648  076C  0084               	fcall	stringdir
  3649  076D  160A  158A  2000  120A  118A  	movwf	(___llmod@divisor)
  3650  0772  00F0               	fcall	stringdir
  3651  0773  160A  158A  2000  120A  118A  	movwf	(___llmod@divisor+1)
  3652  0778  00F1               	fcall	stringdir
  3653  0779  160A  158A  2000  120A  118A  	movwf	(___llmod@divisor+2)
  3654  077E  00F2               	fcall	stringdir
  3655  077F  160A  158A  2000  120A  118A  	movwf	(___llmod@divisor+3)
  3656  0784  00F3               	movf	(sprintf@val+3)^080h,w
  3657  0785  0842               	movwf	(___llmod@dividend+3)
  3658  0786  00F7               	movf	(sprintf@val+2)^080h,w
  3659  0787  0841               	movwf	(___llmod@dividend+2)
  3660  0788  00F6               	movf	(sprintf@val+1)^080h,w
  3661  0789  0840               	movwf	(___llmod@dividend+1)
  3662  078A  00F5               	movf	(sprintf@val)^080h,w
  3663  078B  083F               	movwf	(___llmod@dividend)
  3664  078C  00F4               
  3665                           	fcall	___llmod
  3666  078D  160A  158A  248E  120A  118A  	movf	(3+(?___llmod)),w
  3667  0792  0873               	bsf	status, 5	;RP0=1, select bank1
  3668  0793  1683               	bcf	status, 6	;RP1=0, select bank1
  3669  0794  1303               	movwf	(sprintf@val+3)^080h
  3670  0795  00C2               	movf	(2+(?___llmod)),w
  3671  0796  0872               	movwf	(sprintf@val+2)^080h
  3672  0797  00C1               	movf	(1+(?___llmod)),w
  3673  0798  0871               	movwf	(sprintf@val+1)^080h
  3674  0799  00C0               	movf	(0+(?___llmod)),w
  3675  079A  0870               	movwf	(sprintf@val)^080h
  3676  079B  00BF               
  3677                           	goto	l3135
  3678  079C  2F9D               	line	1252
  3679                           ;C:\Program Files (x86)\Microchip\xc8\v2.00\pic\sources\c90\common\doprnt.c: 1252:    }

  3680                           	
  3681                           l222:	
  3682  079D                     	line	1247
  3683                           	
  3684                           l3135:	
  3685  079D                     ;C:\Program Files (x86)\Microchip\xc8\v2.00\pic\sources\c90\common\doprnt.c: 1247:    wh
                                 ile(c--) {
  3686                           	movlw	01h
  3687  079D  3001               	subwf	(sprintf@c)^080h,f
  3688  079E  02CE               		incf	(((sprintf@c)^080h)),w
  3689  079F  0A4E               	btfss	status,2
  3690  07A0  1D03               	goto	u5631
  3691  07A1  2FA3               	goto	u5630
  3692  07A2  2FA4               u5631:
  3693  07A3                     	goto	l3127
  3694  07A3  2EFB               u5630:
  3695  07A4                     	goto	l3143
  3696  07A4  2FB8               	
  3697                           l224:	
  3698  07A5                     	line	1254
  3699                           ;C:\Program Files (x86)\Microchip\xc8\v2.00\pic\sources\c90\common\doprnt.c: 1254:    wh
                                 ile(prec) {
  3700                           	goto	l3143
  3701  07A5  2FB8               	
  3702                           l226:	
  3703  07A6                     	line	1255
  3704                           	
  3705                           l3137:	
  3706  07A6                     ;C:\Program Files (x86)\Microchip\xc8\v2.00\pic\sources\c90\common\doprnt.c: 1255:     (
                                 (*sp++ = ('0')));
  3707                           	movlw	low(030h)
  3708  07A6  3030               	movwf	(??_sprintf+0)^080h+0
  3709  07A7  00B1               	movf	(sprintf@sp)^080h,w
  3710  07A8  0849               	movwf	fsr0
  3711  07A9  0084               	movf	(??_sprintf+0)^080h+0,w
  3712  07AA  0831               	bcf	status, 7	;select IRP bank0
  3713  07AB  1383               	movwf	indf
  3714  07AC  0080               	
  3715                           l3139:	
  3716  07AD                     	movlw	low(01h)
  3717  07AD  3001               	movwf	(??_sprintf+0)^080h+0
  3718  07AE  00B1               	movf	(??_sprintf+0)^080h+0,w
  3719  07AF  0831               	addwf	(sprintf@sp)^080h,f
  3720  07B0  07C9               	line	1256
  3721                           	
  3722                           l3141:	
  3723  07B1                     ;C:\Program Files (x86)\Microchip\xc8\v2.00\pic\sources\c90\common\doprnt.c: 1256:     p
                                 rec--;
  3724                           	movlw	0FFh
  3725  07B1  30FF               	addwf	(sprintf@prec)^080h,f
  3726  07B2  07BD               	skipnc
  3727  07B3  1803               	incf	(sprintf@prec+1)^080h,f
  3728  07B4  0ABE               	movlw	0FFh
  3729  07B5  30FF               	addwf	(sprintf@prec+1)^080h,f
  3730  07B6  07BE               	goto	l3143
  3731  07B7  2FB8               	line	1257
  3732                           ;C:\Program Files (x86)\Microchip\xc8\v2.00\pic\sources\c90\common\doprnt.c: 1257:    }

  3733                           	
  3734                           l225:	
  3735  07B8                     	line	1254
  3736                           	
  3737                           l3143:	
  3738  07B8                     ;C:\Program Files (x86)\Microchip\xc8\v2.00\pic\sources\c90\common\doprnt.c: 1254:    wh
                                 ile(prec) {
  3739                           	movf	((sprintf@prec)^080h),w
  3740  07B8  083D               iorwf	((sprintf@prec+1)^080h),w
  3741  07B9  043E               	btfss	status,2
  3742  07BA  1D03               	goto	u5641
  3743  07BB  2FBD               	goto	u5640
  3744  07BC  2FBE               u5641:
  3745  07BD                     	goto	l3137
  3746  07BD  2FA6               u5640:
  3747  07BE                     	goto	l3151
  3748  07BE  2FD9               	
  3749                           l227:	
  3750  07BF                     	line	1264
  3751                           ;C:\Program Files (x86)\Microchip\xc8\v2.00\pic\sources\c90\common\doprnt.c: 1264:    co
                                 ntinue;
  3752                           	goto	l3151
  3753  07BF  2FD9               	line	1265
  3754                           ;C:\Program Files (x86)\Microchip\xc8\v2.00\pic\sources\c90\common\doprnt.c: 1265:   }
  3755                           	
  3756                           l191:	
  3757  07C0                     	line	1457
  3758                           	
  3759                           l3145:	
  3760  07C0                     ;C:\Program Files (x86)\Microchip\xc8\v2.00\pic\sources\c90\common\doprnt.c: 1441:   {;C
                                 :\Program Files (x86)\Microchip\xc8\v2.00\pic\sources\c90\common\doprnt.c: 1457:    if(f
                                 lag & 0x03)
  3761                           	movlw	03h
  3762  07C0  3003               	andwf	(sprintf@flag)^080h,w
  3763  07C1  053B               	movwf	(??_sprintf+0)^080h+0
  3764  07C2  00B1               	movlw	0
  3765  07C3  3000               	andwf	(sprintf@flag+1)^080h,w
  3766  07C4  053C               	movwf	1+(??_sprintf+0)^080h+0
  3767  07C5  00B2               	movf	((??_sprintf+0)^080h+0),w
  3768  07C6  0831               iorwf	((??_sprintf+0)^080h+1),w
  3769  07C7  0432               	btfsc	status,2
  3770  07C8  1903               	goto	u5651
  3771  07C9  2FCB               	goto	u5650
  3772  07CA  2FCC               u5651:
  3773  07CB                     	goto	l3151
  3774  07CB  2FD9               u5650:
  3775  07CC                     	line	1458
  3776                           	
  3777                           l3147:	
  3778  07CC                     ;C:\Program Files (x86)\Microchip\xc8\v2.00\pic\sources\c90\common\doprnt.c: 1458:     (
                                 (*sp++ = ('-')));
  3779                           	movlw	low(02Dh)
  3780  07CC  302D               	movwf	(??_sprintf+0)^080h+0
  3781  07CD  00B1               	movf	(sprintf@sp)^080h,w
  3782  07CE  0849               	movwf	fsr0
  3783  07CF  0084               	movf	(??_sprintf+0)^080h+0,w
  3784  07D0  0831               	bcf	status, 7	;select IRP bank0
  3785  07D1  1383               	movwf	indf
  3786  07D2  0080               	
  3787                           l3149:	
  3788  07D3                     	movlw	low(01h)
  3789  07D3  3001               	movwf	(??_sprintf+0)^080h+0
  3790  07D4  00B1               	movf	(??_sprintf+0)^080h+0,w
  3791  07D5  0831               	addwf	(sprintf@sp)^080h,f
  3792  07D6  07C9               	goto	l3151
  3793  07D7  2FD9               	
  3794                           l228:	
  3795  07D8                     	goto	l3151
  3796  07D8  2FD9               	line	1552
  3797                           ;C:\Program Files (x86)\Microchip\xc8\v2.00\pic\sources\c90\common\doprnt.c: 1488:   };C
                                 :\Program Files (x86)\Microchip\xc8\v2.00\pic\sources\c90\common\doprnt.c: 1552:  }
  3798                           	
  3799                           l182:	
  3800  07D9                     	line	548
  3801                           	
  3802                           l3151:	
  3803  07D9                     ;C:\Program Files (x86)\Microchip\xc8\v2.00\pic\sources\c90\common\doprnt.c: 548:  while
                                 ((c = *f++)) {
  3804                           	movlw	01h
  3805  07D9  3001               	addwf	(sprintf@f)^080h,f
  3806  07DA  07AC               	movlw	-01h
  3807  07DB  30FF               	addwf	(sprintf@f)^080h,w
  3808  07DC  072C               	movwf	fsr0
  3809  07DD  0084               	fcall	stringdir
  3810  07DE  160A  158A  2000  120A  118A  	movwf	(??_sprintf+0)^080h+0
  3811  07E3  00B1               	movf	(??_sprintf+0)^080h+0,w
  3812  07E4  0831               	movwf	(sprintf@c)^080h
  3813  07E5  00CE               	movf	(((sprintf@c)^080h)),w
  3814  07E6  084E               	btfss	status,2
  3815  07E7  1D03               	goto	u5661
  3816  07E8  2FEA               	goto	u5660
  3817  07E9  2FEB               u5661:
  3818  07EA                     	goto	l2993
  3819  07EA  29FC               u5660:
  3820  07EB                     	goto	l3153
  3821  07EB  2FED               	
  3822                           l229:	
  3823  07EC                     	goto	l3153
  3824  07EC  2FED               	line	1554
  3825                           ;C:\Program Files (x86)\Microchip\xc8\v2.00\pic\sources\c90\common\doprnt.c: 1554: alldo
                                 ne:
  3826                           	
  3827                           l187:	
  3828  07ED                     	line	1557
  3829                           	
  3830                           l3153:	
  3831  07ED                     ;C:\Program Files (x86)\Microchip\xc8\v2.00\pic\sources\c90\common\doprnt.c: 1557:  *sp 
                                 = 0;
  3832                           	movf	(sprintf@sp)^080h,w
  3833  07ED  0849               	movwf	fsr0
  3834  07EE  0084               	bcf	status, 7	;select IRP bank0
  3835  07EF  1383               	clrf	indf
  3836  07F0  0180               	goto	l230
  3837  07F1  2FF2               	line	1559
  3838                           	
  3839                           l3155:	
  3840  07F2                     	line	1560
  3841                           ;C:\Program Files (x86)\Microchip\xc8\v2.00\pic\sources\c90\common\doprnt.c: 1559:  retu
                                 rn 0;;	Return value of _sprintf is never used
  3842                           	
  3843                           l230:	
  3844  07F2                     	return
  3845  07F2  0008               	opt stack 0
  3846                           GLOBAL	__end_of_sprintf
  3847                           	__end_of_sprintf:
  3848  07F3                     	signat	_sprintf,4698
  3849                           	global	_scale
  3850                           
  3851 ;; *************** function _scale *****************
  3852 ;; Defined at:
  3853 ;;		line 433 in file "C:\Program Files (x86)\Microchip\xc8\v2.00\pic\sources\c90\common\doprnt.c"
  3854 ;; Parameters:    Size  Location     Type
  3855 ;;  scl             1    wreg     char 
  3856 ;; Auto vars:     Size  Location     Type
  3857 ;;  scl             1   57[BANK0 ] char 
  3858 ;; Return value:  Size  Location     Type
  3859 ;;                  4   39[BANK0 ] char 
  3860 ;; Registers used:
  3861 ;;		wreg, fsr0l, fsr0h, status,2, status,0, btemp+1, pclath, cstack
  3862 ;; Tracked objects:
  3863 ;;		On entry : 0/0
  3864 ;;		On exit  : 0/0
  3865 ;;		Unchanged: 0/0
  3866 ;; Data sizes:     COMMON   BANK0   BANK1   BANK3   BANK2
  3867 ;;      Params:         0       4       0       0       0
  3868 ;;      Locals:         0       5       0       0       0
  3869 ;;      Temps:          0      10       0       0       0
  3870 ;;      Totals:         0      19       0       0       0
  3871 ;;Total ram usage:       19 bytes
  3872 ;; Hardware stack levels used:    1
  3873 ;; Hardware stack levels required when called:    2
  3874 ;; This function calls:
  3875 ;;		___awdiv
  3876 ;;		___awmod
  3877 ;;		___flmul
  3878 ;; This function is called by:
  3879 ;;		_sprintf
  3880 ;; This function uses a non-reentrant model
  3881 ;;
  3882                           psect	text5,local,class=CODE,delta=2,merge=1,group=0
  3883                           	line	433
  3884                           global __ptext5
  3885                           __ptext5:	;psect for function _scale
  3886  1491                     psect	text5
  3887                           	file	"C:\Program Files (x86)\Microchip\xc8\v2.00\pic\sources\c90\common\doprnt.c"
  3888                           	line	433
  3889                           	global	__size_of_scale
  3890                           	__size_of_scale	equ	__end_of_scale-_scale
  3891  036F                     	
  3892                           _scale:	
  3893  1491                     ;incstack = 0
  3894                           	opt	stack 4
  3895                           ; Regs used in _scale: [wreg-fsr0h+status,2+status,0+btemp+1+pclath+cstack]
  3896                           ;scale@scl stored from wreg
  3897                           	bcf	status, 5	;RP0=0, select bank0
  3898  1491  1283               	bcf	status, 6	;RP1=0, select bank0
  3899  1492  1303               	movwf	(scale@scl)
  3900  1493  00D9               	line	436
  3901                           	
  3902                           l2491:	
  3903  1494                     ;C:\Program Files (x86)\Microchip\xc8\v2.00\pic\sources\c90\common\doprnt.c: 433: scale(
                                 signed char scl);C:\Program Files (x86)\Microchip\xc8\v2.00\pic\sources\c90\common\doprn
                                 t.c: 434: {;C:\Program Files (x86)\Microchip\xc8\v2.00\pic\sources\c90\common\doprnt.c: 
                                 436:  if(scl < 0) {
  3904                           	btfss	(scale@scl),7
  3905  1494  1FD9               	goto	u4111
  3906  1495  2C97               	goto	u4110
  3907  1496  2C98               u4111:
  3908  1497                     	goto	l2513
  3909  1497  2E4D               u4110:
  3910  1498                     	line	437
  3911                           	
  3912                           l2493:	
  3913  1498                     ;C:\Program Files (x86)\Microchip\xc8\v2.00\pic\sources\c90\common\doprnt.c: 437:   scl 
                                 = -scl;
  3914                           	comf	(scale@scl),f
  3915  1498  09D9               	incf	(scale@scl),f
  3916  1499  0AD9               	line	438
  3917                           	
  3918                           l2495:	
  3919  149A                     ;C:\Program Files (x86)\Microchip\xc8\v2.00\pic\sources\c90\common\doprnt.c: 438:   if(s
                                 cl>=110)
  3920                           	movf	(scale@scl),w
  3921  149A  0859               	xorlw	80h
  3922  149B  3A80               	addlw	-((06Eh)^80h)
  3923  149C  3E12               	skipc
  3924  149D  1C03               	goto	u4121
  3925  149E  2CA0               	goto	u4120
  3926  149F  2CA1               u4121:
  3927  14A0                     	goto	l2503
  3928  14A0  2D8D               u4120:
  3929  14A1                     	line	439
  3930                           	
  3931                           l2497:	
  3932  14A1                     ;C:\Program Files (x86)\Microchip\xc8\v2.00\pic\sources\c90\common\doprnt.c: 439:    ret
                                 urn _npowers_[(unsigned char)(scl/100+18)] * _npowers_[(unsigned char)((scl%100)/10+9)] 
                                 * _npowers_[(unsigned char)(scl%10)];
  3933                           	movlw	0Ah
  3934  14A1  300A               	movwf	(___awdiv@divisor)
  3935  14A2  00F7               	movlw	0
  3936  14A3  3000               	movwf	((___awdiv@divisor))+1
  3937  14A4  00F8               	movf	(scale@scl),w
  3938  14A5  0859               	movwf	(___awmod@dividend)
  3939  14A6  00F2               	clrf	(___awmod@dividend+1)
  3940  14A7  01F3               	btfsc	(___awmod@dividend),7
  3941  14A8  1BF2               	decf	(___awmod@dividend+1),f
  3942  14A9  03F3               	movlw	064h
  3943  14AA  3064               	movwf	(___awmod@divisor)
  3944  14AB  00F0               	movlw	0
  3945  14AC  3000               	movwf	((___awmod@divisor))+1
  3946  14AD  00F1               	fcall	___awmod
  3947  14AE  160A  158A  2546  160A  118A  	movf	(1+(?___awmod)),w
  3948  14B3  0871               	movwf	(___awdiv@dividend+1)
  3949  14B4  00FA               	movf	(0+(?___awmod)),w
  3950  14B5  0870               	movwf	(___awdiv@dividend)
  3951  14B6  00F9               	fcall	___awdiv
  3952  14B7  160A  158A  25A9  160A  118A  	movf	(0+(?___awdiv)),w
  3953  14BC  0877               	bcf	status, 5	;RP0=0, select bank0
  3954  14BD  1283               	bcf	status, 6	;RP1=0, select bank0
  3955  14BE  1303               	movwf	(??_scale+0)+0
  3956  14BF  00CB               	movlw	(02h)-1
  3957  14C0  3001               u4135:
  3958  14C1                     	clrc
  3959  14C1  1003               	rlf	(??_scale+0)+0,f
  3960  14C2  0DCB               	addlw	-1
  3961  14C3  3EFF               	skipz
  3962  14C4  1D03               	goto	u4135
  3963  14C5  2CC1               	clrc
  3964  14C6  1003               	rlf	(??_scale+0)+0,w
  3965  14C7  0D4B               	addlw	024h
  3966  14C8  3E24               	addlw	low((((__npowers_)-__stringbase)|8000h))
  3967  14C9  3E35               	movwf	fsr0
  3968  14CA  0084               	fcall	stringdir
  3969  14CB  160A  158A  2000  160A  118A  	movwf	((??_scale+1)+0)
  3970  14D0  00CC               	fcall	stringdir
  3971  14D1  160A  158A  2000  160A  118A  	movwf	((??_scale+1)+0+1)
  3972  14D6  00CD               	fcall	stringdir
  3973  14D7  160A  158A  2000  160A  118A  	movwf	((??_scale+1)+0+2)
  3974  14DC  00CE               	fcall	stringdir
  3975  14DD  160A  158A  2000  160A  118A  	movwf	((??_scale+1)+0+3)
  3976  14E2  00CF               	movf	3+(??_scale+1)+0,w
  3977  14E3  084F               	movwf	(___flmul@b+3)
  3978  14E4  00B0               	movf	2+(??_scale+1)+0,w
  3979  14E5  084E               	movwf	(___flmul@b+2)
  3980  14E6  00AF               	movf	1+(??_scale+1)+0,w
  3981  14E7  084D               	movwf	(___flmul@b+1)
  3982  14E8  00AE               	movf	0+(??_scale+1)+0,w
  3983  14E9  084C               	movwf	(___flmul@b)
  3984  14EA  00AD               
  3985                           	movlw	064h
  3986  14EB  3064               	movwf	(___awdiv@divisor)
  3987  14EC  00F7               	movlw	0
  3988  14ED  3000               	movwf	((___awdiv@divisor))+1
  3989  14EE  00F8               	movf	(scale@scl),w
  3990  14EF  0859               	movwf	(___awdiv@dividend)
  3991  14F0  00F9               	clrf	(___awdiv@dividend+1)
  3992  14F1  01FA               	btfsc	(___awdiv@dividend),7
  3993  14F2  1BF9               	decf	(___awdiv@dividend+1),f
  3994  14F3  03FA               	fcall	___awdiv
  3995  14F4  160A  158A  25A9  160A  118A  	movf	(0+(?___awdiv)),w
  3996  14F9  0877               	bcf	status, 5	;RP0=0, select bank0
  3997  14FA  1283               	bcf	status, 6	;RP1=0, select bank0
  3998  14FB  1303               	movwf	(??_scale+5)+0
  3999  14FC  00D0               	movlw	(02h)-1
  4000  14FD  3001               u4145:
  4001  14FE                     	clrc
  4002  14FE  1003               	rlf	(??_scale+5)+0,f
  4003  14FF  0DD0               	addlw	-1
  4004  1500  3EFF               	skipz
  4005  1501  1D03               	goto	u4145
  4006  1502  2CFE               	clrc
  4007  1503  1003               	rlf	(??_scale+5)+0,w
  4008  1504  0D50               	addlw	048h
  4009  1505  3E48               	addlw	low((((__npowers_)-__stringbase)|8000h))
  4010  1506  3E35               	movwf	fsr0
  4011  1507  0084               	fcall	stringdir
  4012  1508  160A  158A  2000  160A  118A  	movwf	((??_scale+6)+0)
  4013  150D  00D1               	fcall	stringdir
  4014  150E  160A  158A  2000  160A  118A  	movwf	((??_scale+6)+0+1)
  4015  1513  00D2               	fcall	stringdir
  4016  1514  160A  158A  2000  160A  118A  	movwf	((??_scale+6)+0+2)
  4017  1519  00D3               	fcall	stringdir
  4018  151A  160A  158A  2000  160A  118A  	movwf	((??_scale+6)+0+3)
  4019  151F  00D4               	movf	3+(??_scale+6)+0,w
  4020  1520  0854               	movwf	(___flmul@a+3)
  4021  1521  00B4               	movf	2+(??_scale+6)+0,w
  4022  1522  0853               	movwf	(___flmul@a+2)
  4023  1523  00B3               	movf	1+(??_scale+6)+0,w
  4024  1524  0852               	movwf	(___flmul@a+1)
  4025  1525  00B2               	movf	0+(??_scale+6)+0,w
  4026  1526  0851               	movwf	(___flmul@a)
  4027  1527  00B1               
  4028                           	fcall	___flmul
  4029  1528  120A  158A  248B  160A  118A  	bcf	status, 5	;RP0=0, select bank0
  4030  152D  1283               	bcf	status, 6	;RP1=0, select bank0
  4031  152E  1303               	movf	(3+(?___flmul)),w
  4032  152F  0830               	movwf	(_scale$742+3)
  4033  1530  00D8               	movf	(2+(?___flmul)),w
  4034  1531  082F               	movwf	(_scale$742+2)
  4035  1532  00D7               	movf	(1+(?___flmul)),w
  4036  1533  082E               	movwf	(_scale$742+1)
  4037  1534  00D6               	movf	(0+(?___flmul)),w
  4038  1535  082D               	movwf	(_scale$742)
  4039  1536  00D5               
  4040                           ;C:\Program Files (x86)\Microchip\xc8\v2.00\pic\sources\c90\common\doprnt.c: 439:    ret
                                 urn _npowers_[(unsigned char)(scl/100+18)] * _npowers_[(unsigned char)((scl%100)/10+9)] 
                                 * _npowers_[(unsigned char)(scl%10)];
  4041                           	movlw	0Ah
  4042  1537  300A               	movwf	(___awmod@divisor)
  4043  1538  00F0               	movlw	0
  4044  1539  3000               	movwf	((___awmod@divisor))+1
  4045  153A  00F1               	movf	(scale@scl),w
  4046  153B  0859               	movwf	(___awmod@dividend)
  4047  153C  00F2               	clrf	(___awmod@dividend+1)
  4048  153D  01F3               	btfsc	(___awmod@dividend),7
  4049  153E  1BF2               	decf	(___awmod@dividend+1),f
  4050  153F  03F3               	fcall	___awmod
  4051  1540  160A  158A  2546  160A  118A  	movf	(0+(?___awmod)),w
  4052  1545  0870               	bcf	status, 5	;RP0=0, select bank0
  4053  1546  1283               	bcf	status, 6	;RP1=0, select bank0
  4054  1547  1303               	movwf	(??_scale+0)+0
  4055  1548  00CB               	movlw	(02h)-1
  4056  1549  3001               u4155:
  4057  154A                     	clrc
  4058  154A  1003               	rlf	(??_scale+0)+0,f
  4059  154B  0DCB               	addlw	-1
  4060  154C  3EFF               	skipz
  4061  154D  1D03               	goto	u4155
  4062  154E  2D4A               	clrc
  4063  154F  1003               	rlf	(??_scale+0)+0,w
  4064  1550  0D4B               	addlw	low((((__npowers_)-__stringbase)|8000h))
  4065  1551  3E35               	movwf	fsr0
  4066  1552  0084               	fcall	stringdir
  4067  1553  160A  158A  2000  160A  118A  	movwf	((??_scale+1)+0)
  4068  1558  00CC               	fcall	stringdir
  4069  1559  160A  158A  2000  160A  118A  	movwf	((??_scale+1)+0+1)
  4070  155E  00CD               	fcall	stringdir
  4071  155F  160A  158A  2000  160A  118A  	movwf	((??_scale+1)+0+2)
  4072  1564  00CE               	fcall	stringdir
  4073  1565  160A  158A  2000  160A  118A  	movwf	((??_scale+1)+0+3)
  4074  156A  00CF               	movf	3+(??_scale+1)+0,w
  4075  156B  084F               	movwf	(___flmul@b+3)
  4076  156C  00B0               	movf	2+(??_scale+1)+0,w
  4077  156D  084E               	movwf	(___flmul@b+2)
  4078  156E  00AF               	movf	1+(??_scale+1)+0,w
  4079  156F  084D               	movwf	(___flmul@b+1)
  4080  1570  00AE               	movf	0+(??_scale+1)+0,w
  4081  1571  084C               	movwf	(___flmul@b)
  4082  1572  00AD               
  4083                           	movf	(_scale$742+3),w
  4084  1573  0858               	movwf	(___flmul@a+3)
  4085  1574  00B4               	movf	(_scale$742+2),w
  4086  1575  0857               	movwf	(___flmul@a+2)
  4087  1576  00B3               	movf	(_scale$742+1),w
  4088  1577  0856               	movwf	(___flmul@a+1)
  4089  1578  00B2               	movf	(_scale$742),w
  4090  1579  0855               	movwf	(___flmul@a)
  4091  157A  00B1               
  4092                           	fcall	___flmul
  4093  157B  120A  158A  248B  160A  118A  	bcf	status, 5	;RP0=0, select bank0
  4094  1580  1283               	bcf	status, 6	;RP1=0, select bank0
  4095  1581  1303               	movf	(3+(?___flmul)),w
  4096  1582  0830               	movwf	(?_scale+3)
  4097  1583  00CA               	movf	(2+(?___flmul)),w
  4098  1584  082F               	movwf	(?_scale+2)
  4099  1585  00C9               	movf	(1+(?___flmul)),w
  4100  1586  082E               	movwf	(?_scale+1)
  4101  1587  00C8               	movf	(0+(?___flmul)),w
  4102  1588  082D               	movwf	(?_scale)
  4103  1589  00C7               
  4104                           	goto	l174
  4105  158A  2FFF               	
  4106                           l2499:	
  4107  158B                     	goto	l174
  4108  158B  2FFF               	
  4109                           l2501:	
  4110  158C                     	goto	l2509
  4111  158C  2E1F               	line	440
  4112                           ;C:\Program Files (x86)\Microchip\xc8\v2.00\pic\sources\c90\common\doprnt.c: 440:   else
                                  if(scl > 10)
  4113                           	
  4114                           l173:	
  4115  158D                     	
  4116                           l2503:	
  4117  158D                     	movf	(scale@scl),w
  4118  158D  0859               	xorlw	80h
  4119  158E  3A80               	addlw	-((0Bh)^80h)
  4120  158F  3E75               	skipc
  4121  1590  1C03               	goto	u4161
  4122  1591  2D93               	goto	u4160
  4123  1592  2D94               u4161:
  4124  1593                     	goto	l2509
  4125  1593  2E1F               u4160:
  4126  1594                     	line	441
  4127                           	
  4128                           l2505:	
  4129  1594                     ;C:\Program Files (x86)\Microchip\xc8\v2.00\pic\sources\c90\common\doprnt.c: 441:    ret
                                 urn _npowers_[(unsigned char)(scl/10+9)] * _npowers_[(unsigned char)(scl%10)];
  4130                           	movlw	0Ah
  4131  1594  300A               	movwf	(___awmod@divisor)
  4132  1595  00F0               	movlw	0
  4133  1596  3000               	movwf	((___awmod@divisor))+1
  4134  1597  00F1               	movf	(scale@scl),w
  4135  1598  0859               	movwf	(___awmod@dividend)
  4136  1599  00F2               	clrf	(___awmod@dividend+1)
  4137  159A  01F3               	btfsc	(___awmod@dividend),7
  4138  159B  1BF2               	decf	(___awmod@dividend+1),f
  4139  159C  03F3               	fcall	___awmod
  4140  159D  160A  158A  2546  160A  118A  	movf	(0+(?___awmod)),w
  4141  15A2  0870               	bcf	status, 5	;RP0=0, select bank0
  4142  15A3  1283               	bcf	status, 6	;RP1=0, select bank0
  4143  15A4  1303               	movwf	(??_scale+0)+0
  4144  15A5  00CB               	movlw	(02h)-1
  4145  15A6  3001               u4175:
  4146  15A7                     	clrc
  4147  15A7  1003               	rlf	(??_scale+0)+0,f
  4148  15A8  0DCB               	addlw	-1
  4149  15A9  3EFF               	skipz
  4150  15AA  1D03               	goto	u4175
  4151  15AB  2DA7               	clrc
  4152  15AC  1003               	rlf	(??_scale+0)+0,w
  4153  15AD  0D4B               	addlw	low((((__npowers_)-__stringbase)|8000h))
  4154  15AE  3E35               	movwf	fsr0
  4155  15AF  0084               	fcall	stringdir
  4156  15B0  160A  158A  2000  160A  118A  	movwf	((??_scale+1)+0)
  4157  15B5  00CC               	fcall	stringdir
  4158  15B6  160A  158A  2000  160A  118A  	movwf	((??_scale+1)+0+1)
  4159  15BB  00CD               	fcall	stringdir
  4160  15BC  160A  158A  2000  160A  118A  	movwf	((??_scale+1)+0+2)
  4161  15C1  00CE               	fcall	stringdir
  4162  15C2  160A  158A  2000  160A  118A  	movwf	((??_scale+1)+0+3)
  4163  15C7  00CF               	movf	3+(??_scale+1)+0,w
  4164  15C8  084F               	movwf	(___flmul@b+3)
  4165  15C9  00B0               	movf	2+(??_scale+1)+0,w
  4166  15CA  084E               	movwf	(___flmul@b+2)
  4167  15CB  00AF               	movf	1+(??_scale+1)+0,w
  4168  15CC  084D               	movwf	(___flmul@b+1)
  4169  15CD  00AE               	movf	0+(??_scale+1)+0,w
  4170  15CE  084C               	movwf	(___flmul@b)
  4171  15CF  00AD               
  4172                           	movlw	0Ah
  4173  15D0  300A               	movwf	(___awdiv@divisor)
  4174  15D1  00F7               	movlw	0
  4175  15D2  3000               	movwf	((___awdiv@divisor))+1
  4176  15D3  00F8               	movf	(scale@scl),w
  4177  15D4  0859               	movwf	(___awdiv@dividend)
  4178  15D5  00F9               	clrf	(___awdiv@dividend+1)
  4179  15D6  01FA               	btfsc	(___awdiv@dividend),7
  4180  15D7  1BF9               	decf	(___awdiv@dividend+1),f
  4181  15D8  03FA               	fcall	___awdiv
  4182  15D9  160A  158A  25A9  160A  118A  	movf	(0+(?___awdiv)),w
  4183  15DE  0877               	bcf	status, 5	;RP0=0, select bank0
  4184  15DF  1283               	bcf	status, 6	;RP1=0, select bank0
  4185  15E0  1303               	movwf	(??_scale+5)+0
  4186  15E1  00D0               	movlw	(02h)-1
  4187  15E2  3001               u4185:
  4188  15E3                     	clrc
  4189  15E3  1003               	rlf	(??_scale+5)+0,f
  4190  15E4  0DD0               	addlw	-1
  4191  15E5  3EFF               	skipz
  4192  15E6  1D03               	goto	u4185
  4193  15E7  2DE3               	clrc
  4194  15E8  1003               	rlf	(??_scale+5)+0,w
  4195  15E9  0D50               	addlw	024h
  4196  15EA  3E24               	addlw	low((((__npowers_)-__stringbase)|8000h))
  4197  15EB  3E35               	movwf	fsr0
  4198  15EC  0084               	fcall	stringdir
  4199  15ED  160A  158A  2000  160A  118A  	movwf	((??_scale+6)+0)
  4200  15F2  00D1               	fcall	stringdir
  4201  15F3  160A  158A  2000  160A  118A  	movwf	((??_scale+6)+0+1)
  4202  15F8  00D2               	fcall	stringdir
  4203  15F9  160A  158A  2000  160A  118A  	movwf	((??_scale+6)+0+2)
  4204  15FE  00D3               	fcall	stringdir
  4205  15FF  160A  158A  2000  160A  118A  	movwf	((??_scale+6)+0+3)
  4206  1604  00D4               	movf	3+(??_scale+6)+0,w
  4207  1605  0854               	movwf	(___flmul@a+3)
  4208  1606  00B4               	movf	2+(??_scale+6)+0,w
  4209  1607  0853               	movwf	(___flmul@a+2)
  4210  1608  00B3               	movf	1+(??_scale+6)+0,w
  4211  1609  0852               	movwf	(___flmul@a+1)
  4212  160A  00B2               	movf	0+(??_scale+6)+0,w
  4213  160B  0851               	movwf	(___flmul@a)
  4214  160C  00B1               
  4215                           	fcall	___flmul
  4216  160D  120A  158A  248B  160A  118A  	bcf	status, 5	;RP0=0, select bank0
  4217  1612  1283               	bcf	status, 6	;RP1=0, select bank0
  4218  1613  1303               	movf	(3+(?___flmul)),w
  4219  1614  0830               	movwf	(?_scale+3)
  4220  1615  00CA               	movf	(2+(?___flmul)),w
  4221  1616  082F               	movwf	(?_scale+2)
  4222  1617  00C9               	movf	(1+(?___flmul)),w
  4223  1618  082E               	movwf	(?_scale+1)
  4224  1619  00C8               	movf	(0+(?___flmul)),w
  4225  161A  082D               	movwf	(?_scale)
  4226  161B  00C7               
  4227                           	goto	l174
  4228  161C  2FFF               	
  4229                           l2507:	
  4230  161D                     	goto	l174
  4231  161D  2FFF               	
  4232                           l176:	
  4233  161E                     	goto	l2509
  4234  161E  2E1F               	
  4235                           l175:	
  4236  161F                     	line	442
  4237                           	
  4238                           l2509:	
  4239  161F                     ;C:\Program Files (x86)\Microchip\xc8\v2.00\pic\sources\c90\common\doprnt.c: 442:   retu
                                 rn _npowers_[(unsigned char)scl];
  4240                           	movf	(scale@scl),w
  4241  161F  0859               	movwf	(??_scale+0)+0
  4242  1620  00CB               	movlw	(02h)-1
  4243  1621  3001               u4195:
  4244  1622                     	clrc
  4245  1622  1003               	rlf	(??_scale+0)+0,f
  4246  1623  0DCB               	addlw	-1
  4247  1624  3EFF               	skipz
  4248  1625  1D03               	goto	u4195
  4249  1626  2E22               	clrc
  4250  1627  1003               	rlf	(??_scale+0)+0,w
  4251  1628  0D4B               	addlw	low((((__npowers_)-__stringbase)|8000h))
  4252  1629  3E35               	movwf	fsr0
  4253  162A  0084               	fcall	stringdir
  4254  162B  160A  158A  2000  160A  118A  	movwf	((??_scale+1)+0)
  4255  1630  00CC               	fcall	stringdir
  4256  1631  160A  158A  2000  160A  118A  	movwf	((??_scale+1)+0+1)
  4257  1636  00CD               	fcall	stringdir
  4258  1637  160A  158A  2000  160A  118A  	movwf	((??_scale+1)+0+2)
  4259  163C  00CE               	fcall	stringdir
  4260  163D  160A  158A  2000  160A  118A  	movwf	((??_scale+1)+0+3)
  4261  1642  00CF               	movf	3+(??_scale+1)+0,w
  4262  1643  084F               	movwf	(?_scale+3)
  4263  1644  00CA               	movf	2+(??_scale+1)+0,w
  4264  1645  084E               	movwf	(?_scale+2)
  4265  1646  00C9               	movf	1+(??_scale+1)+0,w
  4266  1647  084D               	movwf	(?_scale+1)
  4267  1648  00C8               	movf	0+(??_scale+1)+0,w
  4268  1649  084C               	movwf	(?_scale)
  4269  164A  00C7               
  4270                           	goto	l174
  4271  164B  2FFF               	
  4272                           l2511:	
  4273  164C                     	goto	l174
  4274  164C  2FFF               	line	443
  4275                           ;C:\Program Files (x86)\Microchip\xc8\v2.00\pic\sources\c90\common\doprnt.c: 443:  }
  4276                           	
  4277                           l172:	
  4278  164D                     	line	444
  4279                           	
  4280                           l2513:	
  4281  164D                     ;C:\Program Files (x86)\Microchip\xc8\v2.00\pic\sources\c90\common\doprnt.c: 444:  if(sc
                                 l>=110)
  4282                           	movf	(scale@scl),w
  4283  164D  0859               	xorlw	80h
  4284  164E  3A80               	addlw	-((06Eh)^80h)
  4285  164F  3E12               	skipc
  4286  1650  1C03               	goto	u4201
  4287  1651  2E53               	goto	u4200
  4288  1652  2E54               u4201:
  4289  1653                     	goto	l2521
  4290  1653  2F40               u4200:
  4291  1654                     	line	445
  4292                           	
  4293                           l2515:	
  4294  1654                     ;C:\Program Files (x86)\Microchip\xc8\v2.00\pic\sources\c90\common\doprnt.c: 445:   retu
                                 rn _powers_[(unsigned char)(scl/100+18)] * _powers_[(unsigned char)((scl%100)/10+9)] * _
                                 powers_[(unsigned char)(scl%10)];
  4295                           	movlw	0Ah
  4296  1654  300A               	movwf	(___awdiv@divisor)
  4297  1655  00F7               	movlw	0
  4298  1656  3000               	movwf	((___awdiv@divisor))+1
  4299  1657  00F8               	movf	(scale@scl),w
  4300  1658  0859               	movwf	(___awmod@dividend)
  4301  1659  00F2               	clrf	(___awmod@dividend+1)
  4302  165A  01F3               	btfsc	(___awmod@dividend),7
  4303  165B  1BF2               	decf	(___awmod@dividend+1),f
  4304  165C  03F3               	movlw	064h
  4305  165D  3064               	movwf	(___awmod@divisor)
  4306  165E  00F0               	movlw	0
  4307  165F  3000               	movwf	((___awmod@divisor))+1
  4308  1660  00F1               	fcall	___awmod
  4309  1661  160A  158A  2546  160A  118A  	movf	(1+(?___awmod)),w
  4310  1666  0871               	movwf	(___awdiv@dividend+1)
  4311  1667  00FA               	movf	(0+(?___awmod)),w
  4312  1668  0870               	movwf	(___awdiv@dividend)
  4313  1669  00F9               	fcall	___awdiv
  4314  166A  160A  158A  25A9  160A  118A  	movf	(0+(?___awdiv)),w
  4315  166F  0877               	bcf	status, 5	;RP0=0, select bank0
  4316  1670  1283               	bcf	status, 6	;RP1=0, select bank0
  4317  1671  1303               	movwf	(??_scale+0)+0
  4318  1672  00CB               	movlw	(02h)-1
  4319  1673  3001               u4215:
  4320  1674                     	clrc
  4321  1674  1003               	rlf	(??_scale+0)+0,f
  4322  1675  0DCB               	addlw	-1
  4323  1676  3EFF               	skipz
  4324  1677  1D03               	goto	u4215
  4325  1678  2E74               	clrc
  4326  1679  1003               	rlf	(??_scale+0)+0,w
  4327  167A  0D4B               	addlw	024h
  4328  167B  3E24               	addlw	low((((__powers_)-__stringbase)|8000h))
  4329  167C  3E01               	movwf	fsr0
  4330  167D  0084               	fcall	stringdir
  4331  167E  160A  158A  2000  160A  118A  	movwf	((??_scale+1)+0)
  4332  1683  00CC               	fcall	stringdir
  4333  1684  160A  158A  2000  160A  118A  	movwf	((??_scale+1)+0+1)
  4334  1689  00CD               	fcall	stringdir
  4335  168A  160A  158A  2000  160A  118A  	movwf	((??_scale+1)+0+2)
  4336  168F  00CE               	fcall	stringdir
  4337  1690  160A  158A  2000  160A  118A  	movwf	((??_scale+1)+0+3)
  4338  1695  00CF               	movf	3+(??_scale+1)+0,w
  4339  1696  084F               	movwf	(___flmul@b+3)
  4340  1697  00B0               	movf	2+(??_scale+1)+0,w
  4341  1698  084E               	movwf	(___flmul@b+2)
  4342  1699  00AF               	movf	1+(??_scale+1)+0,w
  4343  169A  084D               	movwf	(___flmul@b+1)
  4344  169B  00AE               	movf	0+(??_scale+1)+0,w
  4345  169C  084C               	movwf	(___flmul@b)
  4346  169D  00AD               
  4347                           	movlw	064h
  4348  169E  3064               	movwf	(___awdiv@divisor)
  4349  169F  00F7               	movlw	0
  4350  16A0  3000               	movwf	((___awdiv@divisor))+1
  4351  16A1  00F8               	movf	(scale@scl),w
  4352  16A2  0859               	movwf	(___awdiv@dividend)
  4353  16A3  00F9               	clrf	(___awdiv@dividend+1)
  4354  16A4  01FA               	btfsc	(___awdiv@dividend),7
  4355  16A5  1BF9               	decf	(___awdiv@dividend+1),f
  4356  16A6  03FA               	fcall	___awdiv
  4357  16A7  160A  158A  25A9  160A  118A  	movf	(0+(?___awdiv)),w
  4358  16AC  0877               	bcf	status, 5	;RP0=0, select bank0
  4359  16AD  1283               	bcf	status, 6	;RP1=0, select bank0
  4360  16AE  1303               	movwf	(??_scale+5)+0
  4361  16AF  00D0               	movlw	(02h)-1
  4362  16B0  3001               u4225:
  4363  16B1                     	clrc
  4364  16B1  1003               	rlf	(??_scale+5)+0,f
  4365  16B2  0DD0               	addlw	-1
  4366  16B3  3EFF               	skipz
  4367  16B4  1D03               	goto	u4225
  4368  16B5  2EB1               	clrc
  4369  16B6  1003               	rlf	(??_scale+5)+0,w
  4370  16B7  0D50               	addlw	048h
  4371  16B8  3E48               	addlw	low((((__powers_)-__stringbase)|8000h))
  4372  16B9  3E01               	movwf	fsr0
  4373  16BA  0084               	fcall	stringdir
  4374  16BB  160A  158A  2000  160A  118A  	movwf	((??_scale+6)+0)
  4375  16C0  00D1               	fcall	stringdir
  4376  16C1  160A  158A  2000  160A  118A  	movwf	((??_scale+6)+0+1)
  4377  16C6  00D2               	fcall	stringdir
  4378  16C7  160A  158A  2000  160A  118A  	movwf	((??_scale+6)+0+2)
  4379  16CC  00D3               	fcall	stringdir
  4380  16CD  160A  158A  2000  160A  118A  	movwf	((??_scale+6)+0+3)
  4381  16D2  00D4               	movf	3+(??_scale+6)+0,w
  4382  16D3  0854               	movwf	(___flmul@a+3)
  4383  16D4  00B4               	movf	2+(??_scale+6)+0,w
  4384  16D5  0853               	movwf	(___flmul@a+2)
  4385  16D6  00B3               	movf	1+(??_scale+6)+0,w
  4386  16D7  0852               	movwf	(___flmul@a+1)
  4387  16D8  00B2               	movf	0+(??_scale+6)+0,w
  4388  16D9  0851               	movwf	(___flmul@a)
  4389  16DA  00B1               
  4390                           	fcall	___flmul
  4391  16DB  120A  158A  248B  160A  118A  	bcf	status, 5	;RP0=0, select bank0
  4392  16E0  1283               	bcf	status, 6	;RP1=0, select bank0
  4393  16E1  1303               	movf	(3+(?___flmul)),w
  4394  16E2  0830               	movwf	(_scale$742+3)
  4395  16E3  00D8               	movf	(2+(?___flmul)),w
  4396  16E4  082F               	movwf	(_scale$742+2)
  4397  16E5  00D7               	movf	(1+(?___flmul)),w
  4398  16E6  082E               	movwf	(_scale$742+1)
  4399  16E7  00D6               	movf	(0+(?___flmul)),w
  4400  16E8  082D               	movwf	(_scale$742)
  4401  16E9  00D5               
  4402                           ;C:\Program Files (x86)\Microchip\xc8\v2.00\pic\sources\c90\common\doprnt.c: 445:   retu
                                 rn _powers_[(unsigned char)(scl/100+18)] * _powers_[(unsigned char)((scl%100)/10+9)] * _
                                 powers_[(unsigned char)(scl%10)];
  4403                           	movlw	0Ah
  4404  16EA  300A               	movwf	(___awmod@divisor)
  4405  16EB  00F0               	movlw	0
  4406  16EC  3000               	movwf	((___awmod@divisor))+1
  4407  16ED  00F1               	movf	(scale@scl),w
  4408  16EE  0859               	movwf	(___awmod@dividend)
  4409  16EF  00F2               	clrf	(___awmod@dividend+1)
  4410  16F0  01F3               	btfsc	(___awmod@dividend),7
  4411  16F1  1BF2               	decf	(___awmod@dividend+1),f
  4412  16F2  03F3               	fcall	___awmod
  4413  16F3  160A  158A  2546  160A  118A  	movf	(0+(?___awmod)),w
  4414  16F8  0870               	bcf	status, 5	;RP0=0, select bank0
  4415  16F9  1283               	bcf	status, 6	;RP1=0, select bank0
  4416  16FA  1303               	movwf	(??_scale+0)+0
  4417  16FB  00CB               	movlw	(02h)-1
  4418  16FC  3001               u4235:
  4419  16FD                     	clrc
  4420  16FD  1003               	rlf	(??_scale+0)+0,f
  4421  16FE  0DCB               	addlw	-1
  4422  16FF  3EFF               	skipz
  4423  1700  1D03               	goto	u4235
  4424  1701  2EFD               	clrc
  4425  1702  1003               	rlf	(??_scale+0)+0,w
  4426  1703  0D4B               	addlw	low((((__powers_)-__stringbase)|8000h))
  4427  1704  3E01               	movwf	fsr0
  4428  1705  0084               	fcall	stringdir
  4429  1706  160A  158A  2000  160A  118A  	movwf	((??_scale+1)+0)
  4430  170B  00CC               	fcall	stringdir
  4431  170C  160A  158A  2000  160A  118A  	movwf	((??_scale+1)+0+1)
  4432  1711  00CD               	fcall	stringdir
  4433  1712  160A  158A  2000  160A  118A  	movwf	((??_scale+1)+0+2)
  4434  1717  00CE               	fcall	stringdir
  4435  1718  160A  158A  2000  160A  118A  	movwf	((??_scale+1)+0+3)
  4436  171D  00CF               	movf	3+(??_scale+1)+0,w
  4437  171E  084F               	movwf	(___flmul@b+3)
  4438  171F  00B0               	movf	2+(??_scale+1)+0,w
  4439  1720  084E               	movwf	(___flmul@b+2)
  4440  1721  00AF               	movf	1+(??_scale+1)+0,w
  4441  1722  084D               	movwf	(___flmul@b+1)
  4442  1723  00AE               	movf	0+(??_scale+1)+0,w
  4443  1724  084C               	movwf	(___flmul@b)
  4444  1725  00AD               
  4445                           	movf	(_scale$742+3),w
  4446  1726  0858               	movwf	(___flmul@a+3)
  4447  1727  00B4               	movf	(_scale$742+2),w
  4448  1728  0857               	movwf	(___flmul@a+2)
  4449  1729  00B3               	movf	(_scale$742+1),w
  4450  172A  0856               	movwf	(___flmul@a+1)
  4451  172B  00B2               	movf	(_scale$742),w
  4452  172C  0855               	movwf	(___flmul@a)
  4453  172D  00B1               
  4454                           	fcall	___flmul
  4455  172E  120A  158A  248B  160A  118A  	bcf	status, 5	;RP0=0, select bank0
  4456  1733  1283               	bcf	status, 6	;RP1=0, select bank0
  4457  1734  1303               	movf	(3+(?___flmul)),w
  4458  1735  0830               	movwf	(?_scale+3)
  4459  1736  00CA               	movf	(2+(?___flmul)),w
  4460  1737  082F               	movwf	(?_scale+2)
  4461  1738  00C9               	movf	(1+(?___flmul)),w
  4462  1739  082E               	movwf	(?_scale+1)
  4463  173A  00C8               	movf	(0+(?___flmul)),w
  4464  173B  082D               	movwf	(?_scale)
  4465  173C  00C7               
  4466                           	goto	l174
  4467  173D  2FFF               	
  4468                           l2517:	
  4469  173E                     	goto	l174
  4470  173E  2FFF               	
  4471                           l2519:	
  4472  173F                     	goto	l2527
  4473  173F  2FD2               	line	446
  4474                           ;C:\Program Files (x86)\Microchip\xc8\v2.00\pic\sources\c90\common\doprnt.c: 446:  else 
                                 if(scl > 10)
  4475                           	
  4476                           l177:	
  4477  1740                     	
  4478                           l2521:	
  4479  1740                     	movf	(scale@scl),w
  4480  1740  0859               	xorlw	80h
  4481  1741  3A80               	addlw	-((0Bh)^80h)
  4482  1742  3E75               	skipc
  4483  1743  1C03               	goto	u4241
  4484  1744  2F46               	goto	u4240
  4485  1745  2F47               u4241:
  4486  1746                     	goto	l2527
  4487  1746  2FD2               u4240:
  4488  1747                     	line	447
  4489                           	
  4490                           l2523:	
  4491  1747                     ;C:\Program Files (x86)\Microchip\xc8\v2.00\pic\sources\c90\common\doprnt.c: 447:   retu
                                 rn _powers_[(unsigned char)(scl/10+9)] * _powers_[(unsigned char)(scl%10)];
  4492                           	movlw	0Ah
  4493  1747  300A               	movwf	(___awmod@divisor)
  4494  1748  00F0               	movlw	0
  4495  1749  3000               	movwf	((___awmod@divisor))+1
  4496  174A  00F1               	movf	(scale@scl),w
  4497  174B  0859               	movwf	(___awmod@dividend)
  4498  174C  00F2               	clrf	(___awmod@dividend+1)
  4499  174D  01F3               	btfsc	(___awmod@dividend),7
  4500  174E  1BF2               	decf	(___awmod@dividend+1),f
  4501  174F  03F3               	fcall	___awmod
  4502  1750  160A  158A  2546  160A  118A  	movf	(0+(?___awmod)),w
  4503  1755  0870               	bcf	status, 5	;RP0=0, select bank0
  4504  1756  1283               	bcf	status, 6	;RP1=0, select bank0
  4505  1757  1303               	movwf	(??_scale+0)+0
  4506  1758  00CB               	movlw	(02h)-1
  4507  1759  3001               u4255:
  4508  175A                     	clrc
  4509  175A  1003               	rlf	(??_scale+0)+0,f
  4510  175B  0DCB               	addlw	-1
  4511  175C  3EFF               	skipz
  4512  175D  1D03               	goto	u4255
  4513  175E  2F5A               	clrc
  4514  175F  1003               	rlf	(??_scale+0)+0,w
  4515  1760  0D4B               	addlw	low((((__powers_)-__stringbase)|8000h))
  4516  1761  3E01               	movwf	fsr0
  4517  1762  0084               	fcall	stringdir
  4518  1763  160A  158A  2000  160A  118A  	movwf	((??_scale+1)+0)
  4519  1768  00CC               	fcall	stringdir
  4520  1769  160A  158A  2000  160A  118A  	movwf	((??_scale+1)+0+1)
  4521  176E  00CD               	fcall	stringdir
  4522  176F  160A  158A  2000  160A  118A  	movwf	((??_scale+1)+0+2)
  4523  1774  00CE               	fcall	stringdir
  4524  1775  160A  158A  2000  160A  118A  	movwf	((??_scale+1)+0+3)
  4525  177A  00CF               	movf	3+(??_scale+1)+0,w
  4526  177B  084F               	movwf	(___flmul@b+3)
  4527  177C  00B0               	movf	2+(??_scale+1)+0,w
  4528  177D  084E               	movwf	(___flmul@b+2)
  4529  177E  00AF               	movf	1+(??_scale+1)+0,w
  4530  177F  084D               	movwf	(___flmul@b+1)
  4531  1780  00AE               	movf	0+(??_scale+1)+0,w
  4532  1781  084C               	movwf	(___flmul@b)
  4533  1782  00AD               
  4534                           	movlw	0Ah
  4535  1783  300A               	movwf	(___awdiv@divisor)
  4536  1784  00F7               	movlw	0
  4537  1785  3000               	movwf	((___awdiv@divisor))+1
  4538  1786  00F8               	movf	(scale@scl),w
  4539  1787  0859               	movwf	(___awdiv@dividend)
  4540  1788  00F9               	clrf	(___awdiv@dividend+1)
  4541  1789  01FA               	btfsc	(___awdiv@dividend),7
  4542  178A  1BF9               	decf	(___awdiv@dividend+1),f
  4543  178B  03FA               	fcall	___awdiv
  4544  178C  160A  158A  25A9  160A  118A  	movf	(0+(?___awdiv)),w
  4545  1791  0877               	bcf	status, 5	;RP0=0, select bank0
  4546  1792  1283               	bcf	status, 6	;RP1=0, select bank0
  4547  1793  1303               	movwf	(??_scale+5)+0
  4548  1794  00D0               	movlw	(02h)-1
  4549  1795  3001               u4265:
  4550  1796                     	clrc
  4551  1796  1003               	rlf	(??_scale+5)+0,f
  4552  1797  0DD0               	addlw	-1
  4553  1798  3EFF               	skipz
  4554  1799  1D03               	goto	u4265
  4555  179A  2F96               	clrc
  4556  179B  1003               	rlf	(??_scale+5)+0,w
  4557  179C  0D50               	addlw	024h
  4558  179D  3E24               	addlw	low((((__powers_)-__stringbase)|8000h))
  4559  179E  3E01               	movwf	fsr0
  4560  179F  0084               	fcall	stringdir
  4561  17A0  160A  158A  2000  160A  118A  	movwf	((??_scale+6)+0)
  4562  17A5  00D1               	fcall	stringdir
  4563  17A6  160A  158A  2000  160A  118A  	movwf	((??_scale+6)+0+1)
  4564  17AB  00D2               	fcall	stringdir
  4565  17AC  160A  158A  2000  160A  118A  	movwf	((??_scale+6)+0+2)
  4566  17B1  00D3               	fcall	stringdir
  4567  17B2  160A  158A  2000  160A  118A  	movwf	((??_scale+6)+0+3)
  4568  17B7  00D4               	movf	3+(??_scale+6)+0,w
  4569  17B8  0854               	movwf	(___flmul@a+3)
  4570  17B9  00B4               	movf	2+(??_scale+6)+0,w
  4571  17BA  0853               	movwf	(___flmul@a+2)
  4572  17BB  00B3               	movf	1+(??_scale+6)+0,w
  4573  17BC  0852               	movwf	(___flmul@a+1)
  4574  17BD  00B2               	movf	0+(??_scale+6)+0,w
  4575  17BE  0851               	movwf	(___flmul@a)
  4576  17BF  00B1               
  4577                           	fcall	___flmul
  4578  17C0  120A  158A  248B  160A  118A  	bcf	status, 5	;RP0=0, select bank0
  4579  17C5  1283               	bcf	status, 6	;RP1=0, select bank0
  4580  17C6  1303               	movf	(3+(?___flmul)),w
  4581  17C7  0830               	movwf	(?_scale+3)
  4582  17C8  00CA               	movf	(2+(?___flmul)),w
  4583  17C9  082F               	movwf	(?_scale+2)
  4584  17CA  00C9               	movf	(1+(?___flmul)),w
  4585  17CB  082E               	movwf	(?_scale+1)
  4586  17CC  00C8               	movf	(0+(?___flmul)),w
  4587  17CD  082D               	movwf	(?_scale)
  4588  17CE  00C7               
  4589                           	goto	l174
  4590  17CF  2FFF               	
  4591                           l2525:	
  4592  17D0                     	goto	l174
  4593  17D0  2FFF               	
  4594                           l179:	
  4595  17D1                     	goto	l2527
  4596  17D1  2FD2               	
  4597                           l178:	
  4598  17D2                     	line	448
  4599                           	
  4600                           l2527:	
  4601  17D2                     ;C:\Program Files (x86)\Microchip\xc8\v2.00\pic\sources\c90\common\doprnt.c: 448:  retur
                                 n _powers_[(unsigned char)scl];
  4602                           	movf	(scale@scl),w
  4603  17D2  0859               	movwf	(??_scale+0)+0
  4604  17D3  00CB               	movlw	(02h)-1
  4605  17D4  3001               u4275:
  4606  17D5                     	clrc
  4607  17D5  1003               	rlf	(??_scale+0)+0,f
  4608  17D6  0DCB               	addlw	-1
  4609  17D7  3EFF               	skipz
  4610  17D8  1D03               	goto	u4275
  4611  17D9  2FD5               	clrc
  4612  17DA  1003               	rlf	(??_scale+0)+0,w
  4613  17DB  0D4B               	addlw	low((((__powers_)-__stringbase)|8000h))
  4614  17DC  3E01               	movwf	fsr0
  4615  17DD  0084               	fcall	stringdir
  4616  17DE  160A  158A  2000  160A  118A  	movwf	((??_scale+1)+0)
  4617  17E3  00CC               	fcall	stringdir
  4618  17E4  160A  158A  2000  160A  118A  	movwf	((??_scale+1)+0+1)
  4619  17E9  00CD               	fcall	stringdir
  4620  17EA  160A  158A  2000  160A  118A  	movwf	((??_scale+1)+0+2)
  4621  17EF  00CE               	fcall	stringdir
  4622  17F0  160A  158A  2000  160A  118A  	movwf	((??_scale+1)+0+3)
  4623  17F5  00CF               	movf	3+(??_scale+1)+0,w
  4624  17F6  084F               	movwf	(?_scale+3)
  4625  17F7  00CA               	movf	2+(??_scale+1)+0,w
  4626  17F8  084E               	movwf	(?_scale+2)
  4627  17F9  00C9               	movf	1+(??_scale+1)+0,w
  4628  17FA  084D               	movwf	(?_scale+1)
  4629  17FB  00C8               	movf	0+(??_scale+1)+0,w
  4630  17FC  084C               	movwf	(?_scale)
  4631  17FD  00C7               
  4632                           	goto	l174
  4633  17FE  2FFF               	
  4634                           l2529:	
  4635  17FF                     	line	449
  4636                           	
  4637                           l174:	
  4638  17FF                     	return
  4639  17FF  0008               	opt stack 0
  4640                           GLOBAL	__end_of_scale
  4641                           	__end_of_scale:
  4642  1800                     	signat	_scale,4220
  4643                           	global	___awmod
  4644                           
  4645 ;; *************** function ___awmod *****************
  4646 ;; Defined at:
  4647 ;;		line 5 in file "C:\Program Files (x86)\Microchip\xc8\v2.00\pic\sources\c90\common\awmod.c"
  4648 ;; Parameters:    Size  Location     Type
  4649 ;;  divisor         2    0[COMMON] int 
  4650 ;;  dividend        2    2[COMMON] int 
  4651 ;; Auto vars:     Size  Location     Type
  4652 ;;  sign            1    6[COMMON] unsigned char 
  4653 ;;  counter         1    5[COMMON] unsigned char 
  4654 ;; Return value:  Size  Location     Type
  4655 ;;                  2    0[COMMON] int 
  4656 ;; Registers used:
  4657 ;;		wreg, status,2, status,0
  4658 ;; Tracked objects:
  4659 ;;		On entry : 0/0
  4660 ;;		On exit  : 0/0
  4661 ;;		Unchanged: 0/0
  4662 ;; Data sizes:     COMMON   BANK0   BANK1   BANK3   BANK2
  4663 ;;      Params:         4       0       0       0       0
  4664 ;;      Locals:         2       0       0       0       0
  4665 ;;      Temps:          1       0       0       0       0
  4666 ;;      Totals:         7       0       0       0       0
  4667 ;;Total ram usage:        7 bytes
  4668 ;; Hardware stack levels used:    1
  4669 ;; This function calls:
  4670 ;;		Nothing
  4671 ;; This function is called by:
  4672 ;;		_scale
  4673 ;; This function uses a non-reentrant model
  4674 ;;
  4675                           psect	text6,local,class=CODE,delta=2,merge=1,group=1
  4676                           	file	"C:\Program Files (x86)\Microchip\xc8\v2.00\pic\sources\c90\common\awmod.c"
  4677                           	line	5
  4678                           global __ptext6
  4679                           __ptext6:	;psect for function ___awmod
  4680  1D46                     psect	text6
  4681                           	file	"C:\Program Files (x86)\Microchip\xc8\v2.00\pic\sources\c90\common\awmod.c"
  4682                           	line	5
  4683                           	global	__size_of___awmod
  4684                           	__size_of___awmod	equ	__end_of___awmod-___awmod
  4685  0063                     	
  4686                           ___awmod:	
  4687  1D46                     ;incstack = 0
  4688                           	opt	stack 5
  4689                           ; Regs used in ___awmod: [wreg+status,2+status,0]
  4690                           	line	12
  4691                           	
  4692                           l2051:	
  4693  1D46                     	clrf	(___awmod@sign)
  4694  1D46  01F6               	line	13
  4695                           	
  4696                           l2053:	
  4697  1D47                     	btfss	(___awmod@dividend+1),7
  4698  1D47  1FF3               	goto	u2971
  4699  1D48  2D4A               	goto	u2970
  4700  1D49  2D4B               u2971:
  4701  1D4A                     	goto	l2059
  4702  1D4A  2D53               u2970:
  4703  1D4B                     	line	14
  4704                           	
  4705                           l2055:	
  4706  1D4B                     	comf	(___awmod@dividend),f
  4707  1D4B  09F2               	comf	(___awmod@dividend+1),f
  4708  1D4C  09F3               	incf	(___awmod@dividend),f
  4709  1D4D  0AF2               	skipnz
  4710  1D4E  1903               	incf	(___awmod@dividend+1),f
  4711  1D4F  0AF3               	line	15
  4712                           	
  4713                           l2057:	
  4714  1D50                     	clrf	(___awmod@sign)
  4715  1D50  01F6               	incf	(___awmod@sign),f
  4716  1D51  0AF6               	goto	l2059
  4717  1D52  2D53               	line	16
  4718                           	
  4719                           l390:	
  4720  1D53                     	line	17
  4721                           	
  4722                           l2059:	
  4723  1D53                     	btfss	(___awmod@divisor+1),7
  4724  1D53  1FF1               	goto	u2981
  4725  1D54  2D56               	goto	u2980
  4726  1D55  2D57               u2981:
  4727  1D56                     	goto	l2063
  4728  1D56  2D5D               u2980:
  4729  1D57                     	line	18
  4730                           	
  4731                           l2061:	
  4732  1D57                     	comf	(___awmod@divisor),f
  4733  1D57  09F0               	comf	(___awmod@divisor+1),f
  4734  1D58  09F1               	incf	(___awmod@divisor),f
  4735  1D59  0AF0               	skipnz
  4736  1D5A  1903               	incf	(___awmod@divisor+1),f
  4737  1D5B  0AF1               	goto	l2063
  4738  1D5C  2D5D               	
  4739                           l391:	
  4740  1D5D                     	line	19
  4741                           	
  4742                           l2063:	
  4743  1D5D                     	movf	((___awmod@divisor)),w
  4744  1D5D  0870               iorwf	((___awmod@divisor+1)),w
  4745  1D5E  0471               	btfsc	status,2
  4746  1D5F  1903               	goto	u2991
  4747  1D60  2D62               	goto	u2990
  4748  1D61  2D63               u2991:
  4749  1D62                     	goto	l2081
  4750  1D62  2D98               u2990:
  4751  1D63                     	line	20
  4752                           	
  4753                           l2065:	
  4754  1D63                     	clrf	(___awmod@counter)
  4755  1D63  01F5               	incf	(___awmod@counter),f
  4756  1D64  0AF5               	line	21
  4757                           	goto	l2071
  4758  1D65  2D72               	
  4759                           l394:	
  4760  1D66                     	line	22
  4761                           	
  4762                           l2067:	
  4763  1D66                     	movlw	01h
  4764  1D66  3001               	
  4765                           u3005:
  4766  1D67                     	clrc
  4767  1D67  1003               	rlf	(___awmod@divisor),f
  4768  1D68  0DF0               	rlf	(___awmod@divisor+1),f
  4769  1D69  0DF1               	addlw	-1
  4770  1D6A  3EFF               	skipz
  4771  1D6B  1D03               	goto	u3005
  4772  1D6C  2D67               	line	23
  4773                           	
  4774                           l2069:	
  4775  1D6D                     	movlw	low(01h)
  4776  1D6D  3001               	movwf	(??___awmod+0)+0
  4777  1D6E  00F4               	movf	(??___awmod+0)+0,w
  4778  1D6F  0874               	addwf	(___awmod@counter),f
  4779  1D70  07F5               	goto	l2071
  4780  1D71  2D72               	line	24
  4781                           	
  4782                           l393:	
  4783  1D72                     	line	21
  4784                           	
  4785                           l2071:	
  4786  1D72                     	btfss	(___awmod@divisor+1),(15)&7
  4787  1D72  1FF1               	goto	u3011
  4788  1D73  2D75               	goto	u3010
  4789  1D74  2D76               u3011:
  4790  1D75                     	goto	l2067
  4791  1D75  2D66               u3010:
  4792  1D76                     	goto	l2073
  4793  1D76  2D78               	
  4794                           l395:	
  4795  1D77                     	goto	l2073
  4796  1D77  2D78               	line	25
  4797                           	
  4798                           l396:	
  4799  1D78                     	line	26
  4800                           	
  4801                           l2073:	
  4802  1D78                     	movf	(___awmod@divisor+1),w
  4803  1D78  0871               	subwf	(___awmod@dividend+1),w
  4804  1D79  0273               	skipz
  4805  1D7A  1D03               	goto	u3025
  4806  1D7B  2D7E               	movf	(___awmod@divisor),w
  4807  1D7C  0870               	subwf	(___awmod@dividend),w
  4808  1D7D  0272               u3025:
  4809  1D7E                     	skipc
  4810  1D7E  1C03               	goto	u3021
  4811  1D7F  2D81               	goto	u3020
  4812  1D80  2D82               u3021:
  4813  1D81                     	goto	l2077
  4814  1D81  2D89               u3020:
  4815  1D82                     	line	27
  4816                           	
  4817                           l2075:	
  4818  1D82                     	movf	(___awmod@divisor),w
  4819  1D82  0870               	subwf	(___awmod@dividend),f
  4820  1D83  02F2               	movf	(___awmod@divisor+1),w
  4821  1D84  0871               	skipc
  4822  1D85  1C03               	decf	(___awmod@dividend+1),f
  4823  1D86  03F3               	subwf	(___awmod@dividend+1),f
  4824  1D87  02F3               	goto	l2077
  4825  1D88  2D89               	
  4826                           l397:	
  4827  1D89                     	line	28
  4828                           	
  4829                           l2077:	
  4830  1D89                     	movlw	01h
  4831  1D89  3001               	
  4832                           u3035:
  4833  1D8A                     	clrc
  4834  1D8A  1003               	rrf	(___awmod@divisor+1),f
  4835  1D8B  0CF1               	rrf	(___awmod@divisor),f
  4836  1D8C  0CF0               	addlw	-1
  4837  1D8D  3EFF               	skipz
  4838  1D8E  1D03               	goto	u3035
  4839  1D8F  2D8A               	line	29
  4840                           	
  4841                           l2079:	
  4842  1D90                     	movlw	01h
  4843  1D90  3001               	subwf	(___awmod@counter),f
  4844  1D91  02F5               	btfss	status,2
  4845  1D92  1D03               	goto	u3041
  4846  1D93  2D95               	goto	u3040
  4847  1D94  2D96               u3041:
  4848  1D95                     	goto	l2073
  4849  1D95  2D78               u3040:
  4850  1D96                     	goto	l2081
  4851  1D96  2D98               	
  4852                           l398:	
  4853  1D97                     	goto	l2081
  4854  1D97  2D98               	line	30
  4855                           	
  4856                           l392:	
  4857  1D98                     	line	31
  4858                           	
  4859                           l2081:	
  4860  1D98                     	movf	((___awmod@sign)),w
  4861  1D98  0876               	btfsc	status,2
  4862  1D99  1903               	goto	u3051
  4863  1D9A  2D9C               	goto	u3050
  4864  1D9B  2D9D               u3051:
  4865  1D9C                     	goto	l2085
  4866  1D9C  2DA3               u3050:
  4867  1D9D                     	line	32
  4868                           	
  4869                           l2083:	
  4870  1D9D                     	comf	(___awmod@dividend),f
  4871  1D9D  09F2               	comf	(___awmod@dividend+1),f
  4872  1D9E  09F3               	incf	(___awmod@dividend),f
  4873  1D9F  0AF2               	skipnz
  4874  1DA0  1903               	incf	(___awmod@dividend+1),f
  4875  1DA1  0AF3               	goto	l2085
  4876  1DA2  2DA3               	
  4877                           l399:	
  4878  1DA3                     	line	33
  4879                           	
  4880                           l2085:	
  4881  1DA3                     	movf	(___awmod@dividend+1),w
  4882  1DA3  0873               	movwf	(?___awmod+1)
  4883  1DA4  00F1               	movf	(___awmod@dividend),w
  4884  1DA5  0872               	movwf	(?___awmod)
  4885  1DA6  00F0               	goto	l400
  4886  1DA7  2DA8               	
  4887                           l2087:	
  4888  1DA8                     	line	34
  4889                           	
  4890                           l400:	
  4891  1DA8                     	return
  4892  1DA8  0008               	opt stack 0
  4893                           GLOBAL	__end_of___awmod
  4894                           	__end_of___awmod:
  4895  1DA9                     	signat	___awmod,8314
  4896                           	global	___awdiv
  4897                           
  4898 ;; *************** function ___awdiv *****************
  4899 ;; Defined at:
  4900 ;;		line 5 in file "C:\Program Files (x86)\Microchip\xc8\v2.00\pic\sources\c90\common\awdiv.c"
  4901 ;; Parameters:    Size  Location     Type
  4902 ;;  divisor         2    7[COMMON] int 
  4903 ;;  dividend        2    9[COMMON] int 
  4904 ;; Auto vars:     Size  Location     Type
  4905 ;;  quotient        2    2[BANK0 ] int 
  4906 ;;  sign            1    1[BANK0 ] unsigned char 
  4907 ;;  counter         1    0[BANK0 ] unsigned char 
  4908 ;; Return value:  Size  Location     Type
  4909 ;;                  2    7[COMMON] int 
  4910 ;; Registers used:
  4911 ;;		wreg, status,2, status,0
  4912 ;; Tracked objects:
  4913 ;;		On entry : 0/0
  4914 ;;		On exit  : 0/0
  4915 ;;		Unchanged: 0/0
  4916 ;; Data sizes:     COMMON   BANK0   BANK1   BANK3   BANK2
  4917 ;;      Params:         4       0       0       0       0
  4918 ;;      Locals:         0       4       0       0       0
  4919 ;;      Temps:          1       0       0       0       0
  4920 ;;      Totals:         5       4       0       0       0
  4921 ;;Total ram usage:        9 bytes
  4922 ;; Hardware stack levels used:    1
  4923 ;; This function calls:
  4924 ;;		Nothing
  4925 ;; This function is called by:
  4926 ;;		_scale
  4927 ;;		_sprintf
  4928 ;; This function uses a non-reentrant model
  4929 ;;
  4930                           psect	text7,local,class=CODE,delta=2,merge=1,group=1
  4931                           	file	"C:\Program Files (x86)\Microchip\xc8\v2.00\pic\sources\c90\common\awdiv.c"
  4932                           	line	5
  4933                           global __ptext7
  4934                           __ptext7:	;psect for function ___awdiv
  4935  1DA9                     psect	text7
  4936                           	file	"C:\Program Files (x86)\Microchip\xc8\v2.00\pic\sources\c90\common\awdiv.c"
  4937                           	line	5
  4938                           	global	__size_of___awdiv
  4939                           	__size_of___awdiv	equ	__end_of___awdiv-___awdiv
  4940  0073                     	
  4941                           ___awdiv:	
  4942  1DA9                     ;incstack = 0
  4943                           	opt	stack 5
  4944                           ; Regs used in ___awdiv: [wreg+status,2+status,0]
  4945                           	line	13
  4946                           	
  4947                           l2007:	
  4948  1DA9                     	bcf	status, 5	;RP0=0, select bank0
  4949  1DA9  1283               	bcf	status, 6	;RP1=0, select bank0
  4950  1DAA  1303               	clrf	(___awdiv@sign)
  4951  1DAB  01A1               	line	14
  4952                           	
  4953                           l2009:	
  4954  1DAC                     	btfss	(___awdiv@divisor+1),7
  4955  1DAC  1FF8               	goto	u2871
  4956  1DAD  2DAF               	goto	u2870
  4957  1DAE  2DB0               u2871:
  4958  1DAF                     	goto	l2015
  4959  1DAF  2DB8               u2870:
  4960  1DB0                     	line	15
  4961                           	
  4962                           l2011:	
  4963  1DB0                     	comf	(___awdiv@divisor),f
  4964  1DB0  09F7               	comf	(___awdiv@divisor+1),f
  4965  1DB1  09F8               	incf	(___awdiv@divisor),f
  4966  1DB2  0AF7               	skipnz
  4967  1DB3  1903               	incf	(___awdiv@divisor+1),f
  4968  1DB4  0AF8               	line	16
  4969                           	
  4970                           l2013:	
  4971  1DB5                     	clrf	(___awdiv@sign)
  4972  1DB5  01A1               	incf	(___awdiv@sign),f
  4973  1DB6  0AA1               	goto	l2015
  4974  1DB7  2DB8               	line	17
  4975                           	
  4976                           l377:	
  4977  1DB8                     	line	18
  4978                           	
  4979                           l2015:	
  4980  1DB8                     	btfss	(___awdiv@dividend+1),7
  4981  1DB8  1FFA               	goto	u2881
  4982  1DB9  2DBB               	goto	u2880
  4983  1DBA  2DBC               u2881:
  4984  1DBB                     	goto	l2021
  4985  1DBB  2DC6               u2880:
  4986  1DBC                     	line	19
  4987                           	
  4988                           l2017:	
  4989  1DBC                     	comf	(___awdiv@dividend),f
  4990  1DBC  09F9               	comf	(___awdiv@dividend+1),f
  4991  1DBD  09FA               	incf	(___awdiv@dividend),f
  4992  1DBE  0AF9               	skipnz
  4993  1DBF  1903               	incf	(___awdiv@dividend+1),f
  4994  1DC0  0AFA               	line	20
  4995                           	
  4996                           l2019:	
  4997  1DC1                     	movlw	low(01h)
  4998  1DC1  3001               	movwf	(??___awdiv+0)+0
  4999  1DC2  00FB               	movf	(??___awdiv+0)+0,w
  5000  1DC3  087B               	xorwf	(___awdiv@sign),f
  5001  1DC4  06A1               	goto	l2021
  5002  1DC5  2DC6               	line	21
  5003                           	
  5004                           l378:	
  5005  1DC6                     	line	22
  5006                           	
  5007                           l2021:	
  5008  1DC6                     	clrf	(___awdiv@quotient)
  5009  1DC6  01A2               	clrf	(___awdiv@quotient+1)
  5010  1DC7  01A3               	line	23
  5011                           	
  5012                           l2023:	
  5013  1DC8                     	movf	((___awdiv@divisor)),w
  5014  1DC8  0877               iorwf	((___awdiv@divisor+1)),w
  5015  1DC9  0478               	btfsc	status,2
  5016  1DCA  1903               	goto	u2891
  5017  1DCB  2DCD               	goto	u2890
  5018  1DCC  2DCE               u2891:
  5019  1DCD                     	goto	l2043
  5020  1DCD  2E0B               u2890:
  5021  1DCE                     	line	24
  5022                           	
  5023                           l2025:	
  5024  1DCE                     	clrf	(___awdiv@counter)
  5025  1DCE  01A0               	incf	(___awdiv@counter),f
  5026  1DCF  0AA0               	line	25
  5027                           	goto	l2031
  5028  1DD0  2DDD               	
  5029                           l381:	
  5030  1DD1                     	line	26
  5031                           	
  5032                           l2027:	
  5033  1DD1                     	movlw	01h
  5034  1DD1  3001               	
  5035                           u2905:
  5036  1DD2                     	clrc
  5037  1DD2  1003               	rlf	(___awdiv@divisor),f
  5038  1DD3  0DF7               	rlf	(___awdiv@divisor+1),f
  5039  1DD4  0DF8               	addlw	-1
  5040  1DD5  3EFF               	skipz
  5041  1DD6  1D03               	goto	u2905
  5042  1DD7  2DD2               	line	27
  5043                           	
  5044                           l2029:	
  5045  1DD8                     	movlw	low(01h)
  5046  1DD8  3001               	movwf	(??___awdiv+0)+0
  5047  1DD9  00FB               	movf	(??___awdiv+0)+0,w
  5048  1DDA  087B               	addwf	(___awdiv@counter),f
  5049  1DDB  07A0               	goto	l2031
  5050  1DDC  2DDD               	line	28
  5051                           	
  5052                           l380:	
  5053  1DDD                     	line	25
  5054                           	
  5055                           l2031:	
  5056  1DDD                     	btfss	(___awdiv@divisor+1),(15)&7
  5057  1DDD  1FF8               	goto	u2911
  5058  1DDE  2DE0               	goto	u2910
  5059  1DDF  2DE1               u2911:
  5060  1DE0                     	goto	l2027
  5061  1DE0  2DD1               u2910:
  5062  1DE1                     	goto	l2033
  5063  1DE1  2DE3               	
  5064                           l382:	
  5065  1DE2                     	goto	l2033
  5066  1DE2  2DE3               	line	29
  5067                           	
  5068                           l383:	
  5069  1DE3                     	line	30
  5070                           	
  5071                           l2033:	
  5072  1DE3                     	movlw	01h
  5073  1DE3  3001               	
  5074                           u2925:
  5075  1DE4                     	clrc
  5076  1DE4  1003               	rlf	(___awdiv@quotient),f
  5077  1DE5  0DA2               	rlf	(___awdiv@quotient+1),f
  5078  1DE6  0DA3               	addlw	-1
  5079  1DE7  3EFF               	skipz
  5080  1DE8  1D03               	goto	u2925
  5081  1DE9  2DE4               	line	31
  5082                           	movf	(___awdiv@divisor+1),w
  5083  1DEA  0878               	subwf	(___awdiv@dividend+1),w
  5084  1DEB  027A               	skipz
  5085  1DEC  1D03               	goto	u2935
  5086  1DED  2DF0               	movf	(___awdiv@divisor),w
  5087  1DEE  0877               	subwf	(___awdiv@dividend),w
  5088  1DEF  0279               u2935:
  5089  1DF0                     	skipc
  5090  1DF0  1C03               	goto	u2931
  5091  1DF1  2DF3               	goto	u2930
  5092  1DF2  2DF4               u2931:
  5093  1DF3                     	goto	l2039
  5094  1DF3  2DFC               u2930:
  5095  1DF4                     	line	32
  5096                           	
  5097                           l2035:	
  5098  1DF4                     	movf	(___awdiv@divisor),w
  5099  1DF4  0877               	subwf	(___awdiv@dividend),f
  5100  1DF5  02F9               	movf	(___awdiv@divisor+1),w
  5101  1DF6  0878               	skipc
  5102  1DF7  1C03               	decf	(___awdiv@dividend+1),f
  5103  1DF8  03FA               	subwf	(___awdiv@dividend+1),f
  5104  1DF9  02FA               	line	33
  5105                           	
  5106                           l2037:	
  5107  1DFA                     	bsf	(___awdiv@quotient)+(0/8),(0)&7
  5108  1DFA  1422               	goto	l2039
  5109  1DFB  2DFC               	line	34
  5110                           	
  5111                           l384:	
  5112  1DFC                     	line	35
  5113                           	
  5114                           l2039:	
  5115  1DFC                     	movlw	01h
  5116  1DFC  3001               	
  5117                           u2945:
  5118  1DFD                     	clrc
  5119  1DFD  1003               	rrf	(___awdiv@divisor+1),f
  5120  1DFE  0CF8               	rrf	(___awdiv@divisor),f
  5121  1DFF  0CF7               	addlw	-1
  5122  1E00  3EFF               	skipz
  5123  1E01  1D03               	goto	u2945
  5124  1E02  2DFD               	line	36
  5125                           	
  5126                           l2041:	
  5127  1E03                     	movlw	01h
  5128  1E03  3001               	subwf	(___awdiv@counter),f
  5129  1E04  02A0               	btfss	status,2
  5130  1E05  1D03               	goto	u2951
  5131  1E06  2E08               	goto	u2950
  5132  1E07  2E09               u2951:
  5133  1E08                     	goto	l2033
  5134  1E08  2DE3               u2950:
  5135  1E09                     	goto	l2043
  5136  1E09  2E0B               	
  5137                           l385:	
  5138  1E0A                     	goto	l2043
  5139  1E0A  2E0B               	line	37
  5140                           	
  5141                           l379:	
  5142  1E0B                     	line	38
  5143                           	
  5144                           l2043:	
  5145  1E0B                     	movf	((___awdiv@sign)),w
  5146  1E0B  0821               	btfsc	status,2
  5147  1E0C  1903               	goto	u2961
  5148  1E0D  2E0F               	goto	u2960
  5149  1E0E  2E10               u2961:
  5150  1E0F                     	goto	l2047
  5151  1E0F  2E16               u2960:
  5152  1E10                     	line	39
  5153                           	
  5154                           l2045:	
  5155  1E10                     	comf	(___awdiv@quotient),f
  5156  1E10  09A2               	comf	(___awdiv@quotient+1),f
  5157  1E11  09A3               	incf	(___awdiv@quotient),f
  5158  1E12  0AA2               	skipnz
  5159  1E13  1903               	incf	(___awdiv@quotient+1),f
  5160  1E14  0AA3               	goto	l2047
  5161  1E15  2E16               	
  5162                           l386:	
  5163  1E16                     	line	40
  5164                           	
  5165                           l2047:	
  5166  1E16                     	movf	(___awdiv@quotient+1),w
  5167  1E16  0823               	movwf	(?___awdiv+1)
  5168  1E17  00F8               	movf	(___awdiv@quotient),w
  5169  1E18  0822               	movwf	(?___awdiv)
  5170  1E19  00F7               	goto	l387
  5171  1E1A  2E1B               	
  5172                           l2049:	
  5173  1E1B                     	line	41
  5174                           	
  5175                           l387:	
  5176  1E1B                     	return
  5177  1E1B  0008               	opt stack 0
  5178                           GLOBAL	__end_of___awdiv
  5179                           	__end_of___awdiv:
  5180  1E1C                     	signat	___awdiv,8314
  5181                           	global	_fround
  5182                           
  5183 ;; *************** function _fround *****************
  5184 ;; Defined at:
  5185 ;;		line 417 in file "C:\Program Files (x86)\Microchip\xc8\v2.00\pic\sources\c90\common\doprnt.c"
  5186 ;; Parameters:    Size  Location     Type
  5187 ;;  prec            1    wreg     unsigned char 
  5188 ;; Auto vars:     Size  Location     Type
  5189 ;;  prec            1   58[BANK0 ] unsigned char 
  5190 ;; Return value:  Size  Location     Type
  5191 ;;                  4   39[BANK0 ] unsigned char 
  5192 ;; Registers used:
  5193 ;;		wreg, fsr0l, fsr0h, status,2, status,0, btemp+1, pclath, cstack
  5194 ;; Tracked objects:
  5195 ;;		On entry : 0/0
  5196 ;;		On exit  : 0/0
  5197 ;;		Unchanged: 0/0
  5198 ;; Data sizes:     COMMON   BANK0   BANK1   BANK3   BANK2
  5199 ;;      Params:         0       4       0       0       0
  5200 ;;      Locals:         0       9       0       0       0
  5201 ;;      Temps:          0       7       0       0       0
  5202 ;;      Totals:         0      20       0       0       0
  5203 ;;Total ram usage:       20 bytes
  5204 ;; Hardware stack levels used:    1
  5205 ;; Hardware stack levels required when called:    2
  5206 ;; This function calls:
  5207 ;;		___flmul
  5208 ;;		___lwdiv
  5209 ;;		___lwmod
  5210 ;; This function is called by:
  5211 ;;		_sprintf
  5212 ;; This function uses a non-reentrant model
  5213 ;;
  5214                           psect	text8,local,class=CODE,delta=2,merge=1,group=0
  5215                           	file	"C:\Program Files (x86)\Microchip\xc8\v2.00\pic\sources\c90\common\doprnt.c"
  5216                           	line	417
  5217                           global __ptext8
  5218                           __ptext8:	;psect for function _fround
  5219  127E                     psect	text8
  5220                           	file	"C:\Program Files (x86)\Microchip\xc8\v2.00\pic\sources\c90\common\doprnt.c"
  5221                           	line	417
  5222                           	global	__size_of_fround
  5223                           	__size_of_fround	equ	__end_of_fround-_fround
  5224  0213                     	
  5225                           _fround:	
  5226  127E                     ;incstack = 0
  5227                           	opt	stack 4
  5228                           ; Regs used in _fround: [wreg-fsr0h+status,2+status,0+btemp+1+pclath+cstack]
  5229                           ;fround@prec stored from wreg
  5230                           	bcf	status, 5	;RP0=0, select bank0
  5231  127E  1283               	bcf	status, 6	;RP1=0, select bank0
  5232  127F  1303               	movwf	(fround@prec)
  5233  1280  00DA               	line	421
  5234                           	
  5235                           l2473:	
  5236  1281                     ;C:\Program Files (x86)\Microchip\xc8\v2.00\pic\sources\c90\common\doprnt.c: 417: fround
                                 (unsigned char prec);C:\Program Files (x86)\Microchip\xc8\v2.00\pic\sources\c90\common\d
                                 oprnt.c: 418: {;C:\Program Files (x86)\Microchip\xc8\v2.00\pic\sources\c90\common\doprnt
                                 .c: 421:  if(prec>=110)
  5237                           	movlw	low(06Eh)
  5238  1281  306E               	subwf	(fround@prec),w
  5239  1282  025A               	skipc
  5240  1283  1C03               	goto	u4031
  5241  1284  2A86               	goto	u4030
  5242  1285  2A87               u4031:
  5243  1286                     	goto	l2481
  5244  1286  2B98               u4030:
  5245  1287                     	line	422
  5246                           	
  5247                           l2475:	
  5248  1287                     ;C:\Program Files (x86)\Microchip\xc8\v2.00\pic\sources\c90\common\doprnt.c: 422:   retu
                                 rn 0.5 * _npowers_[prec/100U+18U] * _npowers_[(prec%100U)/10U+9U] * _npowers_[prec%10U];
                                 
  5249                           	movlw	0x3f
  5250  1287  303F               	movwf	(___flmul@b+3)
  5251  1288  00B0               	movlw	0x0
  5252  1289  3000               	movwf	(___flmul@b+2)
  5253  128A  00AF               	movlw	0x0
  5254  128B  3000               	movwf	(___flmul@b+1)
  5255  128C  00AE               	movlw	0x0
  5256  128D  3000               	movwf	(___flmul@b)
  5257  128E  00AD               
  5258                           	movlw	064h
  5259  128F  3064               	movwf	(___lwdiv@divisor)
  5260  1290  00F6               	movlw	0
  5261  1291  3000               	movwf	((___lwdiv@divisor))+1
  5262  1292  00F7               	movf	(fround@prec),w
  5263  1293  085A               	movwf	(??_fround+0)+0
  5264  1294  00CB               	clrf	(??_fround+0)+0+1
  5265  1295  01CC               	movf	0+(??_fround+0)+0,w
  5266  1296  084B               	movwf	(___lwdiv@dividend)
  5267  1297  00F8               	movf	1+(??_fround+0)+0,w
  5268  1298  084C               	movwf	(___lwdiv@dividend+1)
  5269  1299  00F9               	fcall	___lwdiv
  5270  129A  160A  158A  23F3  160A  118A  	movf	(0+(?___lwdiv)),w
  5271  129F  0876               	bcf	status, 5	;RP0=0, select bank0
  5272  12A0  1283               	bcf	status, 6	;RP1=0, select bank0
  5273  12A1  1303               	movwf	(??_fround+2)+0
  5274  12A2  00CD               	movlw	(02h)-1
  5275  12A3  3001               u4045:
  5276  12A4                     	clrc
  5277  12A4  1003               	rlf	(??_fround+2)+0,f
  5278  12A5  0DCD               	addlw	-1
  5279  12A6  3EFF               	skipz
  5280  12A7  1D03               	goto	u4045
  5281  12A8  2AA4               	clrc
  5282  12A9  1003               	rlf	(??_fround+2)+0,w
  5283  12AA  0D4D               	addlw	048h
  5284  12AB  3E48               	addlw	low((((__npowers_)-__stringbase)|8000h))
  5285  12AC  3E35               	movwf	fsr0
  5286  12AD  0084               	fcall	stringdir
  5287  12AE  160A  158A  2000  160A  118A  	movwf	((??_fround+3)+0)
  5288  12B3  00CE               	fcall	stringdir
  5289  12B4  160A  158A  2000  160A  118A  	movwf	((??_fround+3)+0+1)
  5290  12B9  00CF               	fcall	stringdir
  5291  12BA  160A  158A  2000  160A  118A  	movwf	((??_fround+3)+0+2)
  5292  12BF  00D0               	fcall	stringdir
  5293  12C0  160A  158A  2000  160A  118A  	movwf	((??_fround+3)+0+3)
  5294  12C5  00D1               	movf	3+(??_fround+3)+0,w
  5295  12C6  0851               	movwf	(___flmul@a+3)
  5296  12C7  00B4               	movf	2+(??_fround+3)+0,w
  5297  12C8  0850               	movwf	(___flmul@a+2)
  5298  12C9  00B3               	movf	1+(??_fround+3)+0,w
  5299  12CA  084F               	movwf	(___flmul@a+1)
  5300  12CB  00B2               	movf	0+(??_fround+3)+0,w
  5301  12CC  084E               	movwf	(___flmul@a)
  5302  12CD  00B1               
  5303                           	fcall	___flmul
  5304  12CE  120A  158A  248B  160A  118A  	bcf	status, 5	;RP0=0, select bank0
  5305  12D3  1283               	bcf	status, 6	;RP1=0, select bank0
  5306  12D4  1303               	movf	(3+(?___flmul)),w
  5307  12D5  0830               	movwf	(_fround$740+3)
  5308  12D6  00D9               	movf	(2+(?___flmul)),w
  5309  12D7  082F               	movwf	(_fround$740+2)
  5310  12D8  00D8               	movf	(1+(?___flmul)),w
  5311  12D9  082E               	movwf	(_fround$740+1)
  5312  12DA  00D7               	movf	(0+(?___flmul)),w
  5313  12DB  082D               	movwf	(_fround$740)
  5314  12DC  00D6               
  5315                           ;C:\Program Files (x86)\Microchip\xc8\v2.00\pic\sources\c90\common\doprnt.c: 422:   retu
                                 rn 0.5 * _npowers_[prec/100U+18U] * _npowers_[(prec%100U)/10U+9U] * _npowers_[prec%10U];
                                 
  5316                           	movlw	0Ah
  5317  12DD  300A               	movwf	(___lwdiv@divisor)
  5318  12DE  00F6               	movlw	0
  5319  12DF  3000               	movwf	((___lwdiv@divisor))+1
  5320  12E0  00F7               	movf	(fround@prec),w
  5321  12E1  085A               	movwf	(??_fround+0)+0
  5322  12E2  00CB               	clrf	(??_fround+0)+0+1
  5323  12E3  01CC               	movf	0+(??_fround+0)+0,w
  5324  12E4  084B               	movwf	(___lwmod@dividend)
  5325  12E5  00F2               	movf	1+(??_fround+0)+0,w
  5326  12E6  084C               	movwf	(___lwmod@dividend+1)
  5327  12E7  00F3               	movlw	064h
  5328  12E8  3064               	movwf	(___lwmod@divisor)
  5329  12E9  00F0               	movlw	0
  5330  12EA  3000               	movwf	((___lwmod@divisor))+1
  5331  12EB  00F1               	fcall	___lwmod
  5332  12EC  160A  158A  23B2  160A  118A  	movf	(1+(?___lwmod)),w
  5333  12F1  0871               	movwf	(___lwdiv@dividend+1)
  5334  12F2  00F9               	movf	(0+(?___lwmod)),w
  5335  12F3  0870               	movwf	(___lwdiv@dividend)
  5336  12F4  00F8               	fcall	___lwdiv
  5337  12F5  160A  158A  23F3  160A  118A  	movf	(0+(?___lwdiv)),w
  5338  12FA  0876               	bcf	status, 5	;RP0=0, select bank0
  5339  12FB  1283               	bcf	status, 6	;RP1=0, select bank0
  5340  12FC  1303               	movwf	(??_fround+2)+0
  5341  12FD  00CD               	movlw	(02h)-1
  5342  12FE  3001               u4055:
  5343  12FF                     	clrc
  5344  12FF  1003               	rlf	(??_fround+2)+0,f
  5345  1300  0DCD               	addlw	-1
  5346  1301  3EFF               	skipz
  5347  1302  1D03               	goto	u4055
  5348  1303  2AFF               	clrc
  5349  1304  1003               	rlf	(??_fround+2)+0,w
  5350  1305  0D4D               	addlw	024h
  5351  1306  3E24               	addlw	low((((__npowers_)-__stringbase)|8000h))
  5352  1307  3E35               	movwf	fsr0
  5353  1308  0084               	fcall	stringdir
  5354  1309  160A  158A  2000  160A  118A  	movwf	((??_fround+3)+0)
  5355  130E  00CE               	fcall	stringdir
  5356  130F  160A  158A  2000  160A  118A  	movwf	((??_fround+3)+0+1)
  5357  1314  00CF               	fcall	stringdir
  5358  1315  160A  158A  2000  160A  118A  	movwf	((??_fround+3)+0+2)
  5359  131A  00D0               	fcall	stringdir
  5360  131B  160A  158A  2000  160A  118A  	movwf	((??_fround+3)+0+3)
  5361  1320  00D1               	movf	3+(??_fround+3)+0,w
  5362  1321  0851               	movwf	(___flmul@b+3)
  5363  1322  00B0               	movf	2+(??_fround+3)+0,w
  5364  1323  0850               	movwf	(___flmul@b+2)
  5365  1324  00AF               	movf	1+(??_fround+3)+0,w
  5366  1325  084F               	movwf	(___flmul@b+1)
  5367  1326  00AE               	movf	0+(??_fround+3)+0,w
  5368  1327  084E               	movwf	(___flmul@b)
  5369  1328  00AD               
  5370                           	movf	(_fround$740+3),w
  5371  1329  0859               	movwf	(___flmul@a+3)
  5372  132A  00B4               	movf	(_fround$740+2),w
  5373  132B  0858               	movwf	(___flmul@a+2)
  5374  132C  00B3               	movf	(_fround$740+1),w
  5375  132D  0857               	movwf	(___flmul@a+1)
  5376  132E  00B2               	movf	(_fround$740),w
  5377  132F  0856               	movwf	(___flmul@a)
  5378  1330  00B1               
  5379                           	fcall	___flmul
  5380  1331  120A  158A  248B  160A  118A  	bcf	status, 5	;RP0=0, select bank0
  5381  1336  1283               	bcf	status, 6	;RP1=0, select bank0
  5382  1337  1303               	movf	(3+(?___flmul)),w
  5383  1338  0830               	movwf	(_fround$741+3)
  5384  1339  00D5               	movf	(2+(?___flmul)),w
  5385  133A  082F               	movwf	(_fround$741+2)
  5386  133B  00D4               	movf	(1+(?___flmul)),w
  5387  133C  082E               	movwf	(_fround$741+1)
  5388  133D  00D3               	movf	(0+(?___flmul)),w
  5389  133E  082D               	movwf	(_fround$741)
  5390  133F  00D2               
  5391                           ;C:\Program Files (x86)\Microchip\xc8\v2.00\pic\sources\c90\common\doprnt.c: 422:   retu
                                 rn 0.5 * _npowers_[prec/100U+18U] * _npowers_[(prec%100U)/10U+9U] * _npowers_[prec%10U];
                                 
  5392                           	movlw	0Ah
  5393  1340  300A               	movwf	(___lwmod@divisor)
  5394  1341  00F0               	movlw	0
  5395  1342  3000               	movwf	((___lwmod@divisor))+1
  5396  1343  00F1               	movf	(fround@prec),w
  5397  1344  085A               	movwf	(??_fround+0)+0
  5398  1345  00CB               	clrf	(??_fround+0)+0+1
  5399  1346  01CC               	movf	0+(??_fround+0)+0,w
  5400  1347  084B               	movwf	(___lwmod@dividend)
  5401  1348  00F2               	movf	1+(??_fround+0)+0,w
  5402  1349  084C               	movwf	(___lwmod@dividend+1)
  5403  134A  00F3               	fcall	___lwmod
  5404  134B  160A  158A  23B2  160A  118A  	movf	(0+(?___lwmod)),w
  5405  1350  0870               	bcf	status, 5	;RP0=0, select bank0
  5406  1351  1283               	bcf	status, 6	;RP1=0, select bank0
  5407  1352  1303               	movwf	(??_fround+2)+0
  5408  1353  00CD               	movlw	(02h)-1
  5409  1354  3001               u4065:
  5410  1355                     	clrc
  5411  1355  1003               	rlf	(??_fround+2)+0,f
  5412  1356  0DCD               	addlw	-1
  5413  1357  3EFF               	skipz
  5414  1358  1D03               	goto	u4065
  5415  1359  2B55               	clrc
  5416  135A  1003               	rlf	(??_fround+2)+0,w
  5417  135B  0D4D               	addlw	low((((__npowers_)-__stringbase)|8000h))
  5418  135C  3E35               	movwf	fsr0
  5419  135D  0084               	fcall	stringdir
  5420  135E  160A  158A  2000  160A  118A  	movwf	((??_fround+3)+0)
  5421  1363  00CE               	fcall	stringdir
  5422  1364  160A  158A  2000  160A  118A  	movwf	((??_fround+3)+0+1)
  5423  1369  00CF               	fcall	stringdir
  5424  136A  160A  158A  2000  160A  118A  	movwf	((??_fround+3)+0+2)
  5425  136F  00D0               	fcall	stringdir
  5426  1370  160A  158A  2000  160A  118A  	movwf	((??_fround+3)+0+3)
  5427  1375  00D1               	movf	3+(??_fround+3)+0,w
  5428  1376  0851               	movwf	(___flmul@b+3)
  5429  1377  00B0               	movf	2+(??_fround+3)+0,w
  5430  1378  0850               	movwf	(___flmul@b+2)
  5431  1379  00AF               	movf	1+(??_fround+3)+0,w
  5432  137A  084F               	movwf	(___flmul@b+1)
  5433  137B  00AE               	movf	0+(??_fround+3)+0,w
  5434  137C  084E               	movwf	(___flmul@b)
  5435  137D  00AD               
  5436                           	movf	(_fround$741+3),w
  5437  137E  0855               	movwf	(___flmul@a+3)
  5438  137F  00B4               	movf	(_fround$741+2),w
  5439  1380  0854               	movwf	(___flmul@a+2)
  5440  1381  00B3               	movf	(_fround$741+1),w
  5441  1382  0853               	movwf	(___flmul@a+1)
  5442  1383  00B2               	movf	(_fround$741),w
  5443  1384  0852               	movwf	(___flmul@a)
  5444  1385  00B1               
  5445                           	fcall	___flmul
  5446  1386  120A  158A  248B  160A  118A  	bcf	status, 5	;RP0=0, select bank0
  5447  138B  1283               	bcf	status, 6	;RP1=0, select bank0
  5448  138C  1303               	movf	(3+(?___flmul)),w
  5449  138D  0830               	movwf	(?_fround+3)
  5450  138E  00CA               	movf	(2+(?___flmul)),w
  5451  138F  082F               	movwf	(?_fround+2)
  5452  1390  00C9               	movf	(1+(?___flmul)),w
  5453  1391  082E               	movwf	(?_fround+1)
  5454  1392  00C8               	movf	(0+(?___flmul)),w
  5455  1393  082D               	movwf	(?_fround)
  5456  1394  00C7               
  5457                           	goto	l167
  5458  1395  2C90               	
  5459                           l2477:	
  5460  1396                     	goto	l167
  5461  1396  2C90               	
  5462                           l2479:	
  5463  1397                     	goto	l2487
  5464  1397  2C4C               	line	423
  5465                           ;C:\Program Files (x86)\Microchip\xc8\v2.00\pic\sources\c90\common\doprnt.c: 423:  else 
                                 if(prec > 10)
  5466                           	
  5467                           l166:	
  5468  1398                     	
  5469                           l2481:	
  5470  1398                     	movlw	low(0Bh)
  5471  1398  300B               	subwf	(fround@prec),w
  5472  1399  025A               	skipc
  5473  139A  1C03               	goto	u4071
  5474  139B  2B9D               	goto	u4070
  5475  139C  2B9E               u4071:
  5476  139D                     	goto	l2487
  5477  139D  2C4C               u4070:
  5478  139E                     	line	424
  5479                           	
  5480                           l2483:	
  5481  139E                     ;C:\Program Files (x86)\Microchip\xc8\v2.00\pic\sources\c90\common\doprnt.c: 424:   retu
                                 rn 0.5 * _npowers_[prec/10U+9U] * _npowers_[prec%10U];
  5482                           	movlw	0x3f
  5483  139E  303F               	movwf	(___flmul@b+3)
  5484  139F  00B0               	movlw	0x0
  5485  13A0  3000               	movwf	(___flmul@b+2)
  5486  13A1  00AF               	movlw	0x0
  5487  13A2  3000               	movwf	(___flmul@b+1)
  5488  13A3  00AE               	movlw	0x0
  5489  13A4  3000               	movwf	(___flmul@b)
  5490  13A5  00AD               
  5491                           	movlw	0Ah
  5492  13A6  300A               	movwf	(___lwdiv@divisor)
  5493  13A7  00F6               	movlw	0
  5494  13A8  3000               	movwf	((___lwdiv@divisor))+1
  5495  13A9  00F7               	movf	(fround@prec),w
  5496  13AA  085A               	movwf	(??_fround+0)+0
  5497  13AB  00CB               	clrf	(??_fround+0)+0+1
  5498  13AC  01CC               	movf	0+(??_fround+0)+0,w
  5499  13AD  084B               	movwf	(___lwdiv@dividend)
  5500  13AE  00F8               	movf	1+(??_fround+0)+0,w
  5501  13AF  084C               	movwf	(___lwdiv@dividend+1)
  5502  13B0  00F9               	fcall	___lwdiv
  5503  13B1  160A  158A  23F3  160A  118A  	movf	(0+(?___lwdiv)),w
  5504  13B6  0876               	bcf	status, 5	;RP0=0, select bank0
  5505  13B7  1283               	bcf	status, 6	;RP1=0, select bank0
  5506  13B8  1303               	movwf	(??_fround+2)+0
  5507  13B9  00CD               	movlw	(02h)-1
  5508  13BA  3001               u4085:
  5509  13BB                     	clrc
  5510  13BB  1003               	rlf	(??_fround+2)+0,f
  5511  13BC  0DCD               	addlw	-1
  5512  13BD  3EFF               	skipz
  5513  13BE  1D03               	goto	u4085
  5514  13BF  2BBB               	clrc
  5515  13C0  1003               	rlf	(??_fround+2)+0,w
  5516  13C1  0D4D               	addlw	024h
  5517  13C2  3E24               	addlw	low((((__npowers_)-__stringbase)|8000h))
  5518  13C3  3E35               	movwf	fsr0
  5519  13C4  0084               	fcall	stringdir
  5520  13C5  160A  158A  2000  160A  118A  	movwf	((??_fround+3)+0)
  5521  13CA  00CE               	fcall	stringdir
  5522  13CB  160A  158A  2000  160A  118A  	movwf	((??_fround+3)+0+1)
  5523  13D0  00CF               	fcall	stringdir
  5524  13D1  160A  158A  2000  160A  118A  	movwf	((??_fround+3)+0+2)
  5525  13D6  00D0               	fcall	stringdir
  5526  13D7  160A  158A  2000  160A  118A  	movwf	((??_fround+3)+0+3)
  5527  13DC  00D1               	movf	3+(??_fround+3)+0,w
  5528  13DD  0851               	movwf	(___flmul@a+3)
  5529  13DE  00B4               	movf	2+(??_fround+3)+0,w
  5530  13DF  0850               	movwf	(___flmul@a+2)
  5531  13E0  00B3               	movf	1+(??_fround+3)+0,w
  5532  13E1  084F               	movwf	(___flmul@a+1)
  5533  13E2  00B2               	movf	0+(??_fround+3)+0,w
  5534  13E3  084E               	movwf	(___flmul@a)
  5535  13E4  00B1               
  5536                           	fcall	___flmul
  5537  13E5  120A  158A  248B  160A  118A  	bcf	status, 5	;RP0=0, select bank0
  5538  13EA  1283               	bcf	status, 6	;RP1=0, select bank0
  5539  13EB  1303               	movf	(3+(?___flmul)),w
  5540  13EC  0830               	movwf	(_fround$740+3)
  5541  13ED  00D9               	movf	(2+(?___flmul)),w
  5542  13EE  082F               	movwf	(_fround$740+2)
  5543  13EF  00D8               	movf	(1+(?___flmul)),w
  5544  13F0  082E               	movwf	(_fround$740+1)
  5545  13F1  00D7               	movf	(0+(?___flmul)),w
  5546  13F2  082D               	movwf	(_fround$740)
  5547  13F3  00D6               
  5548                           ;C:\Program Files (x86)\Microchip\xc8\v2.00\pic\sources\c90\common\doprnt.c: 424:   retu
                                 rn 0.5 * _npowers_[prec/10U+9U] * _npowers_[prec%10U];
  5549                           	movlw	0Ah
  5550  13F4  300A               	movwf	(___lwmod@divisor)
  5551  13F5  00F0               	movlw	0
  5552  13F6  3000               	movwf	((___lwmod@divisor))+1
  5553  13F7  00F1               	movf	(fround@prec),w
  5554  13F8  085A               	movwf	(??_fround+0)+0
  5555  13F9  00CB               	clrf	(??_fround+0)+0+1
  5556  13FA  01CC               	movf	0+(??_fround+0)+0,w
  5557  13FB  084B               	movwf	(___lwmod@dividend)
  5558  13FC  00F2               	movf	1+(??_fround+0)+0,w
  5559  13FD  084C               	movwf	(___lwmod@dividend+1)
  5560  13FE  00F3               	fcall	___lwmod
  5561  13FF  160A  158A  23B2  160A  118A  	movf	(0+(?___lwmod)),w
  5562  1404  0870               	bcf	status, 5	;RP0=0, select bank0
  5563  1405  1283               	bcf	status, 6	;RP1=0, select bank0
  5564  1406  1303               	movwf	(??_fround+2)+0
  5565  1407  00CD               	movlw	(02h)-1
  5566  1408  3001               u4095:
  5567  1409                     	clrc
  5568  1409  1003               	rlf	(??_fround+2)+0,f
  5569  140A  0DCD               	addlw	-1
  5570  140B  3EFF               	skipz
  5571  140C  1D03               	goto	u4095
  5572  140D  2C09               	clrc
  5573  140E  1003               	rlf	(??_fround+2)+0,w
  5574  140F  0D4D               	addlw	low((((__npowers_)-__stringbase)|8000h))
  5575  1410  3E35               	movwf	fsr0
  5576  1411  0084               	fcall	stringdir
  5577  1412  160A  158A  2000  160A  118A  	movwf	((??_fround+3)+0)
  5578  1417  00CE               	fcall	stringdir
  5579  1418  160A  158A  2000  160A  118A  	movwf	((??_fround+3)+0+1)
  5580  141D  00CF               	fcall	stringdir
  5581  141E  160A  158A  2000  160A  118A  	movwf	((??_fround+3)+0+2)
  5582  1423  00D0               	fcall	stringdir
  5583  1424  160A  158A  2000  160A  118A  	movwf	((??_fround+3)+0+3)
  5584  1429  00D1               	movf	3+(??_fround+3)+0,w
  5585  142A  0851               	movwf	(___flmul@b+3)
  5586  142B  00B0               	movf	2+(??_fround+3)+0,w
  5587  142C  0850               	movwf	(___flmul@b+2)
  5588  142D  00AF               	movf	1+(??_fround+3)+0,w
  5589  142E  084F               	movwf	(___flmul@b+1)
  5590  142F  00AE               	movf	0+(??_fround+3)+0,w
  5591  1430  084E               	movwf	(___flmul@b)
  5592  1431  00AD               
  5593                           	movf	(_fround$740+3),w
  5594  1432  0859               	movwf	(___flmul@a+3)
  5595  1433  00B4               	movf	(_fround$740+2),w
  5596  1434  0858               	movwf	(___flmul@a+2)
  5597  1435  00B3               	movf	(_fround$740+1),w
  5598  1436  0857               	movwf	(___flmul@a+1)
  5599  1437  00B2               	movf	(_fround$740),w
  5600  1438  0856               	movwf	(___flmul@a)
  5601  1439  00B1               
  5602                           	fcall	___flmul
  5603  143A  120A  158A  248B  160A  118A  	bcf	status, 5	;RP0=0, select bank0
  5604  143F  1283               	bcf	status, 6	;RP1=0, select bank0
  5605  1440  1303               	movf	(3+(?___flmul)),w
  5606  1441  0830               	movwf	(?_fround+3)
  5607  1442  00CA               	movf	(2+(?___flmul)),w
  5608  1443  082F               	movwf	(?_fround+2)
  5609  1444  00C9               	movf	(1+(?___flmul)),w
  5610  1445  082E               	movwf	(?_fround+1)
  5611  1446  00C8               	movf	(0+(?___flmul)),w
  5612  1447  082D               	movwf	(?_fround)
  5613  1448  00C7               
  5614                           	goto	l167
  5615  1449  2C90               	
  5616                           l2485:	
  5617  144A                     	goto	l167
  5618  144A  2C90               	
  5619                           l169:	
  5620  144B                     	goto	l2487
  5621  144B  2C4C               	
  5622                           l168:	
  5623  144C                     	line	425
  5624                           	
  5625                           l2487:	
  5626  144C                     ;C:\Program Files (x86)\Microchip\xc8\v2.00\pic\sources\c90\common\doprnt.c: 425:  retur
                                 n 0.5 * _npowers_[prec];
  5627                           	movlw	0x3f
  5628  144C  303F               	movwf	(___flmul@b+3)
  5629  144D  00B0               	movlw	0x0
  5630  144E  3000               	movwf	(___flmul@b+2)
  5631  144F  00AF               	movlw	0x0
  5632  1450  3000               	movwf	(___flmul@b+1)
  5633  1451  00AE               	movlw	0x0
  5634  1452  3000               	movwf	(___flmul@b)
  5635  1453  00AD               
  5636                           	movf	(fround@prec),w
  5637  1454  085A               	movwf	(??_fround+0)+0
  5638  1455  00CB               	movlw	(02h)-1
  5639  1456  3001               u4105:
  5640  1457                     	clrc
  5641  1457  1003               	rlf	(??_fround+0)+0,f
  5642  1458  0DCB               	addlw	-1
  5643  1459  3EFF               	skipz
  5644  145A  1D03               	goto	u4105
  5645  145B  2C57               	clrc
  5646  145C  1003               	rlf	(??_fround+0)+0,w
  5647  145D  0D4B               	addlw	low((((__npowers_)-__stringbase)|8000h))
  5648  145E  3E35               	movwf	fsr0
  5649  145F  0084               	fcall	stringdir
  5650  1460  160A  158A  2000  160A  118A  	movwf	((??_fround+1)+0)
  5651  1465  00CC               	fcall	stringdir
  5652  1466  160A  158A  2000  160A  118A  	movwf	((??_fround+1)+0+1)
  5653  146B  00CD               	fcall	stringdir
  5654  146C  160A  158A  2000  160A  118A  	movwf	((??_fround+1)+0+2)
  5655  1471  00CE               	fcall	stringdir
  5656  1472  160A  158A  2000  160A  118A  	movwf	((??_fround+1)+0+3)
  5657  1477  00CF               	movf	3+(??_fround+1)+0,w
  5658  1478  084F               	movwf	(___flmul@a+3)
  5659  1479  00B4               	movf	2+(??_fround+1)+0,w
  5660  147A  084E               	movwf	(___flmul@a+2)
  5661  147B  00B3               	movf	1+(??_fround+1)+0,w
  5662  147C  084D               	movwf	(___flmul@a+1)
  5663  147D  00B2               	movf	0+(??_fround+1)+0,w
  5664  147E  084C               	movwf	(___flmul@a)
  5665  147F  00B1               
  5666                           	fcall	___flmul
  5667  1480  120A  158A  248B  160A  118A  	bcf	status, 5	;RP0=0, select bank0
  5668  1485  1283               	bcf	status, 6	;RP1=0, select bank0
  5669  1486  1303               	movf	(3+(?___flmul)),w
  5670  1487  0830               	movwf	(?_fround+3)
  5671  1488  00CA               	movf	(2+(?___flmul)),w
  5672  1489  082F               	movwf	(?_fround+2)
  5673  148A  00C9               	movf	(1+(?___flmul)),w
  5674  148B  082E               	movwf	(?_fround+1)
  5675  148C  00C8               	movf	(0+(?___flmul)),w
  5676  148D  082D               	movwf	(?_fround)
  5677  148E  00C7               
  5678                           	goto	l167
  5679  148F  2C90               	
  5680                           l2489:	
  5681  1490                     	line	426
  5682                           	
  5683                           l167:	
  5684  1490                     	return
  5685  1490  0008               	opt stack 0
  5686                           GLOBAL	__end_of_fround
  5687                           	__end_of_fround:
  5688  1491                     	signat	_fround,4220
  5689                           	global	___lwmod
  5690                           
  5691 ;; *************** function ___lwmod *****************
  5692 ;; Defined at:
  5693 ;;		line 5 in file "C:\Program Files (x86)\Microchip\xc8\v2.00\pic\sources\c90\common\lwmod.c"
  5694 ;; Parameters:    Size  Location     Type
  5695 ;;  divisor         2    0[COMMON] unsigned int 
  5696 ;;  dividend        2    2[COMMON] unsigned int 
  5697 ;; Auto vars:     Size  Location     Type
  5698 ;;  counter         1    5[COMMON] unsigned char 
  5699 ;; Return value:  Size  Location     Type
  5700 ;;                  2    0[COMMON] unsigned int 
  5701 ;; Registers used:
  5702 ;;		wreg, status,2, status,0
  5703 ;; Tracked objects:
  5704 ;;		On entry : 0/0
  5705 ;;		On exit  : 0/0
  5706 ;;		Unchanged: 0/0
  5707 ;; Data sizes:     COMMON   BANK0   BANK1   BANK3   BANK2
  5708 ;;      Params:         4       0       0       0       0
  5709 ;;      Locals:         1       0       0       0       0
  5710 ;;      Temps:          1       0       0       0       0
  5711 ;;      Totals:         6       0       0       0       0
  5712 ;;Total ram usage:        6 bytes
  5713 ;; Hardware stack levels used:    1
  5714 ;; This function calls:
  5715 ;;		Nothing
  5716 ;; This function is called by:
  5717 ;;		_fround
  5718 ;; This function uses a non-reentrant model
  5719 ;;
  5720                           psect	text9,local,class=CODE,delta=2,merge=1,group=1
  5721                           	file	"C:\Program Files (x86)\Microchip\xc8\v2.00\pic\sources\c90\common\lwmod.c"
  5722                           	line	5
  5723                           global __ptext9
  5724                           __ptext9:	;psect for function ___lwmod
  5725  1BB2                     psect	text9
  5726                           	file	"C:\Program Files (x86)\Microchip\xc8\v2.00\pic\sources\c90\common\lwmod.c"
  5727                           	line	5
  5728                           	global	__size_of___lwmod
  5729                           	__size_of___lwmod	equ	__end_of___lwmod-___lwmod
  5730  0041                     	
  5731                           ___lwmod:	
  5732  1BB2                     ;incstack = 0
  5733                           	opt	stack 5
  5734                           ; Regs used in ___lwmod: [wreg+status,2+status,0]
  5735                           	line	12
  5736                           	
  5737                           l2115:	
  5738  1BB2                     	movf	((___lwmod@divisor)),w
  5739  1BB2  0870               iorwf	((___lwmod@divisor+1)),w
  5740  1BB3  0471               	btfsc	status,2
  5741  1BB4  1903               	goto	u3131
  5742  1BB5  2BB7               	goto	u3130
  5743  1BB6  2BB8               u3131:
  5744  1BB7                     	goto	l2133
  5745  1BB7  2BED               u3130:
  5746  1BB8                     	line	13
  5747                           	
  5748                           l2117:	
  5749  1BB8                     	clrf	(___lwmod@counter)
  5750  1BB8  01F5               	incf	(___lwmod@counter),f
  5751  1BB9  0AF5               	line	14
  5752                           	goto	l2123
  5753  1BBA  2BC7               	
  5754                           l545:	
  5755  1BBB                     	line	15
  5756                           	
  5757                           l2119:	
  5758  1BBB                     	movlw	01h
  5759  1BBB  3001               	
  5760                           u3145:
  5761  1BBC                     	clrc
  5762  1BBC  1003               	rlf	(___lwmod@divisor),f
  5763  1BBD  0DF0               	rlf	(___lwmod@divisor+1),f
  5764  1BBE  0DF1               	addlw	-1
  5765  1BBF  3EFF               	skipz
  5766  1BC0  1D03               	goto	u3145
  5767  1BC1  2BBC               	line	16
  5768                           	
  5769                           l2121:	
  5770  1BC2                     	movlw	low(01h)
  5771  1BC2  3001               	movwf	(??___lwmod+0)+0
  5772  1BC3  00F4               	movf	(??___lwmod+0)+0,w
  5773  1BC4  0874               	addwf	(___lwmod@counter),f
  5774  1BC5  07F5               	goto	l2123
  5775  1BC6  2BC7               	line	17
  5776                           	
  5777                           l544:	
  5778  1BC7                     	line	14
  5779                           	
  5780                           l2123:	
  5781  1BC7                     	btfss	(___lwmod@divisor+1),(15)&7
  5782  1BC7  1FF1               	goto	u3151
  5783  1BC8  2BCA               	goto	u3150
  5784  1BC9  2BCB               u3151:
  5785  1BCA                     	goto	l2119
  5786  1BCA  2BBB               u3150:
  5787  1BCB                     	goto	l2125
  5788  1BCB  2BCD               	
  5789                           l546:	
  5790  1BCC                     	goto	l2125
  5791  1BCC  2BCD               	line	18
  5792                           	
  5793                           l547:	
  5794  1BCD                     	line	19
  5795                           	
  5796                           l2125:	
  5797  1BCD                     	movf	(___lwmod@divisor+1),w
  5798  1BCD  0871               	subwf	(___lwmod@dividend+1),w
  5799  1BCE  0273               	skipz
  5800  1BCF  1D03               	goto	u3165
  5801  1BD0  2BD3               	movf	(___lwmod@divisor),w
  5802  1BD1  0870               	subwf	(___lwmod@dividend),w
  5803  1BD2  0272               u3165:
  5804  1BD3                     	skipc
  5805  1BD3  1C03               	goto	u3161
  5806  1BD4  2BD6               	goto	u3160
  5807  1BD5  2BD7               u3161:
  5808  1BD6                     	goto	l2129
  5809  1BD6  2BDE               u3160:
  5810  1BD7                     	line	20
  5811                           	
  5812                           l2127:	
  5813  1BD7                     	movf	(___lwmod@divisor),w
  5814  1BD7  0870               	subwf	(___lwmod@dividend),f
  5815  1BD8  02F2               	movf	(___lwmod@divisor+1),w
  5816  1BD9  0871               	skipc
  5817  1BDA  1C03               	decf	(___lwmod@dividend+1),f
  5818  1BDB  03F3               	subwf	(___lwmod@dividend+1),f
  5819  1BDC  02F3               	goto	l2129
  5820  1BDD  2BDE               	
  5821                           l548:	
  5822  1BDE                     	line	21
  5823                           	
  5824                           l2129:	
  5825  1BDE                     	movlw	01h
  5826  1BDE  3001               	
  5827                           u3175:
  5828  1BDF                     	clrc
  5829  1BDF  1003               	rrf	(___lwmod@divisor+1),f
  5830  1BE0  0CF1               	rrf	(___lwmod@divisor),f
  5831  1BE1  0CF0               	addlw	-1
  5832  1BE2  3EFF               	skipz
  5833  1BE3  1D03               	goto	u3175
  5834  1BE4  2BDF               	line	22
  5835                           	
  5836                           l2131:	
  5837  1BE5                     	movlw	01h
  5838  1BE5  3001               	subwf	(___lwmod@counter),f
  5839  1BE6  02F5               	btfss	status,2
  5840  1BE7  1D03               	goto	u3181
  5841  1BE8  2BEA               	goto	u3180
  5842  1BE9  2BEB               u3181:
  5843  1BEA                     	goto	l2125
  5844  1BEA  2BCD               u3180:
  5845  1BEB                     	goto	l2133
  5846  1BEB  2BED               	
  5847                           l549:	
  5848  1BEC                     	goto	l2133
  5849  1BEC  2BED               	line	23
  5850                           	
  5851                           l543:	
  5852  1BED                     	line	24
  5853                           	
  5854                           l2133:	
  5855  1BED                     	movf	(___lwmod@dividend+1),w
  5856  1BED  0873               	movwf	(?___lwmod+1)
  5857  1BEE  00F1               	movf	(___lwmod@dividend),w
  5858  1BEF  0872               	movwf	(?___lwmod)
  5859  1BF0  00F0               	goto	l550
  5860  1BF1  2BF2               	
  5861                           l2135:	
  5862  1BF2                     	line	25
  5863                           	
  5864                           l550:	
  5865  1BF2                     	return
  5866  1BF2  0008               	opt stack 0
  5867                           GLOBAL	__end_of___lwmod
  5868                           	__end_of___lwmod:
  5869  1BF3                     	signat	___lwmod,8314
  5870                           	global	___lwdiv
  5871                           
  5872 ;; *************** function ___lwdiv *****************
  5873 ;; Defined at:
  5874 ;;		line 5 in file "C:\Program Files (x86)\Microchip\xc8\v2.00\pic\sources\c90\common\lwdiv.c"
  5875 ;; Parameters:    Size  Location     Type
  5876 ;;  divisor         2    6[COMMON] unsigned int 
  5877 ;;  dividend        2    8[COMMON] unsigned int 
  5878 ;; Auto vars:     Size  Location     Type
  5879 ;;  quotient        2   11[COMMON] unsigned int 
  5880 ;;  counter         1   13[COMMON] unsigned char 
  5881 ;; Return value:  Size  Location     Type
  5882 ;;                  2    6[COMMON] unsigned int 
  5883 ;; Registers used:
  5884 ;;		wreg, status,2, status,0
  5885 ;; Tracked objects:
  5886 ;;		On entry : 0/0
  5887 ;;		On exit  : 0/0
  5888 ;;		Unchanged: 0/0
  5889 ;; Data sizes:     COMMON   BANK0   BANK1   BANK3   BANK2
  5890 ;;      Params:         4       0       0       0       0
  5891 ;;      Locals:         3       0       0       0       0
  5892 ;;      Temps:          1       0       0       0       0
  5893 ;;      Totals:         8       0       0       0       0
  5894 ;;Total ram usage:        8 bytes
  5895 ;; Hardware stack levels used:    1
  5896 ;; This function calls:
  5897 ;;		Nothing
  5898 ;; This function is called by:
  5899 ;;		_fround
  5900 ;; This function uses a non-reentrant model
  5901 ;;
  5902                           psect	text10,local,class=CODE,delta=2,merge=1,group=1
  5903                           	file	"C:\Program Files (x86)\Microchip\xc8\v2.00\pic\sources\c90\common\lwdiv.c"
  5904                           	line	5
  5905                           global __ptext10
  5906                           __ptext10:	;psect for function ___lwdiv
  5907  1BF3                     psect	text10
  5908                           	file	"C:\Program Files (x86)\Microchip\xc8\v2.00\pic\sources\c90\common\lwdiv.c"
  5909                           	line	5
  5910                           	global	__size_of___lwdiv
  5911                           	__size_of___lwdiv	equ	__end_of___lwdiv-___lwdiv
  5912  004B                     	
  5913                           ___lwdiv:	
  5914  1BF3                     ;incstack = 0
  5915                           	opt	stack 5
  5916                           ; Regs used in ___lwdiv: [wreg+status,2+status,0]
  5917                           	line	13
  5918                           	
  5919                           l2089:	
  5920  1BF3                     	clrf	(___lwdiv@quotient)
  5921  1BF3  01FB               	clrf	(___lwdiv@quotient+1)
  5922  1BF4  01FC               	line	14
  5923                           	
  5924                           l2091:	
  5925  1BF5                     	movf	((___lwdiv@divisor)),w
  5926  1BF5  0876               iorwf	((___lwdiv@divisor+1)),w
  5927  1BF6  0477               	btfsc	status,2
  5928  1BF7  1903               	goto	u3061
  5929  1BF8  2BFA               	goto	u3060
  5930  1BF9  2BFB               u3061:
  5931  1BFA                     	goto	l2111
  5932  1BFA  2C38               u3060:
  5933  1BFB                     	line	15
  5934                           	
  5935                           l2093:	
  5936  1BFB                     	clrf	(___lwdiv@counter)
  5937  1BFB  01FD               	incf	(___lwdiv@counter),f
  5938  1BFC  0AFD               	line	16
  5939                           	goto	l2099
  5940  1BFD  2C0A               	
  5941                           l535:	
  5942  1BFE                     	line	17
  5943                           	
  5944                           l2095:	
  5945  1BFE                     	movlw	01h
  5946  1BFE  3001               	
  5947                           u3075:
  5948  1BFF                     	clrc
  5949  1BFF  1003               	rlf	(___lwdiv@divisor),f
  5950  1C00  0DF6               	rlf	(___lwdiv@divisor+1),f
  5951  1C01  0DF7               	addlw	-1
  5952  1C02  3EFF               	skipz
  5953  1C03  1D03               	goto	u3075
  5954  1C04  2BFF               	line	18
  5955                           	
  5956                           l2097:	
  5957  1C05                     	movlw	low(01h)
  5958  1C05  3001               	movwf	(??___lwdiv+0)+0
  5959  1C06  00FA               	movf	(??___lwdiv+0)+0,w
  5960  1C07  087A               	addwf	(___lwdiv@counter),f
  5961  1C08  07FD               	goto	l2099
  5962  1C09  2C0A               	line	19
  5963                           	
  5964                           l534:	
  5965  1C0A                     	line	16
  5966                           	
  5967                           l2099:	
  5968  1C0A                     	btfss	(___lwdiv@divisor+1),(15)&7
  5969  1C0A  1FF7               	goto	u3081
  5970  1C0B  2C0D               	goto	u3080
  5971  1C0C  2C0E               u3081:
  5972  1C0D                     	goto	l2095
  5973  1C0D  2BFE               u3080:
  5974  1C0E                     	goto	l2101
  5975  1C0E  2C10               	
  5976                           l536:	
  5977  1C0F                     	goto	l2101
  5978  1C0F  2C10               	line	20
  5979                           	
  5980                           l537:	
  5981  1C10                     	line	21
  5982                           	
  5983                           l2101:	
  5984  1C10                     	movlw	01h
  5985  1C10  3001               	
  5986                           u3095:
  5987  1C11                     	clrc
  5988  1C11  1003               	rlf	(___lwdiv@quotient),f
  5989  1C12  0DFB               	rlf	(___lwdiv@quotient+1),f
  5990  1C13  0DFC               	addlw	-1
  5991  1C14  3EFF               	skipz
  5992  1C15  1D03               	goto	u3095
  5993  1C16  2C11               	line	22
  5994                           	movf	(___lwdiv@divisor+1),w
  5995  1C17  0877               	subwf	(___lwdiv@dividend+1),w
  5996  1C18  0279               	skipz
  5997  1C19  1D03               	goto	u3105
  5998  1C1A  2C1D               	movf	(___lwdiv@divisor),w
  5999  1C1B  0876               	subwf	(___lwdiv@dividend),w
  6000  1C1C  0278               u3105:
  6001  1C1D                     	skipc
  6002  1C1D  1C03               	goto	u3101
  6003  1C1E  2C20               	goto	u3100
  6004  1C1F  2C21               u3101:
  6005  1C20                     	goto	l2107
  6006  1C20  2C29               u3100:
  6007  1C21                     	line	23
  6008                           	
  6009                           l2103:	
  6010  1C21                     	movf	(___lwdiv@divisor),w
  6011  1C21  0876               	subwf	(___lwdiv@dividend),f
  6012  1C22  02F8               	movf	(___lwdiv@divisor+1),w
  6013  1C23  0877               	skipc
  6014  1C24  1C03               	decf	(___lwdiv@dividend+1),f
  6015  1C25  03F9               	subwf	(___lwdiv@dividend+1),f
  6016  1C26  02F9               	line	24
  6017                           	
  6018                           l2105:	
  6019  1C27                     	bsf	(___lwdiv@quotient)+(0/8),(0)&7
  6020  1C27  147B               	goto	l2107
  6021  1C28  2C29               	line	25
  6022                           	
  6023                           l538:	
  6024  1C29                     	line	26
  6025                           	
  6026                           l2107:	
  6027  1C29                     	movlw	01h
  6028  1C29  3001               	
  6029                           u3115:
  6030  1C2A                     	clrc
  6031  1C2A  1003               	rrf	(___lwdiv@divisor+1),f
  6032  1C2B  0CF7               	rrf	(___lwdiv@divisor),f
  6033  1C2C  0CF6               	addlw	-1
  6034  1C2D  3EFF               	skipz
  6035  1C2E  1D03               	goto	u3115
  6036  1C2F  2C2A               	line	27
  6037                           	
  6038                           l2109:	
  6039  1C30                     	movlw	01h
  6040  1C30  3001               	subwf	(___lwdiv@counter),f
  6041  1C31  02FD               	btfss	status,2
  6042  1C32  1D03               	goto	u3121
  6043  1C33  2C35               	goto	u3120
  6044  1C34  2C36               u3121:
  6045  1C35                     	goto	l2101
  6046  1C35  2C10               u3120:
  6047  1C36                     	goto	l2111
  6048  1C36  2C38               	
  6049                           l539:	
  6050  1C37                     	goto	l2111
  6051  1C37  2C38               	line	28
  6052                           	
  6053                           l533:	
  6054  1C38                     	line	29
  6055                           	
  6056                           l2111:	
  6057  1C38                     	movf	(___lwdiv@quotient+1),w
  6058  1C38  087C               	movwf	(?___lwdiv+1)
  6059  1C39  00F7               	movf	(___lwdiv@quotient),w
  6060  1C3A  087B               	movwf	(?___lwdiv)
  6061  1C3B  00F6               	goto	l540
  6062  1C3C  2C3D               	
  6063                           l2113:	
  6064  1C3D                     	line	30
  6065                           	
  6066                           l540:	
  6067  1C3D                     	return
  6068  1C3D  0008               	opt stack 0
  6069                           GLOBAL	__end_of___lwdiv
  6070                           	__end_of___lwdiv:
  6071  1C3E                     	signat	___lwdiv,8314
  6072                           	global	__tdiv_to_l_
  6073                           
  6074 ;; *************** function __tdiv_to_l_ *****************
  6075 ;; Defined at:
  6076 ;;		line 60 in file "C:\Program Files (x86)\Microchip\xc8\v2.00\pic\sources\c90\common\ftdivl.c"
  6077 ;; Parameters:    Size  Location     Type
  6078 ;;  f1              4    0[COMMON] float 
  6079 ;;  f2              4    4[COMMON] float 
  6080 ;; Auto vars:     Size  Location     Type
  6081 ;;  quot            4    0[BANK0 ] unsigned long 
  6082 ;;  exp1            1    5[BANK0 ] unsigned char 
  6083 ;;  cntr            1    4[BANK0 ] unsigned char 
  6084 ;; Return value:  Size  Location     Type
  6085 ;;                  4    0[COMMON] unsigned long 
  6086 ;; Registers used:
  6087 ;;		wreg, status,2, status,0
  6088 ;; Tracked objects:
  6089 ;;		On entry : 0/0
  6090 ;;		On exit  : 0/0
  6091 ;;		Unchanged: 0/0
  6092 ;; Data sizes:     COMMON   BANK0   BANK1   BANK3   BANK2
  6093 ;;      Params:         8       0       0       0       0
  6094 ;;      Locals:         0       6       0       0       0
  6095 ;;      Temps:          4       0       0       0       0
  6096 ;;      Totals:        12       6       0       0       0
  6097 ;;Total ram usage:       18 bytes
  6098 ;; Hardware stack levels used:    1
  6099 ;; This function calls:
  6100 ;;		Nothing
  6101 ;; This function is called by:
  6102 ;;		_sprintf
  6103 ;; This function uses a non-reentrant model
  6104 ;;
  6105                           psect	text11,local,class=CODE,delta=2,merge=1,group=1
  6106                           	file	"C:\Program Files (x86)\Microchip\xc8\v2.00\pic\sources\c90\common\ftdivl.c"
  6107                           	line	60
  6108                           global __ptext11
  6109                           __ptext11:	;psect for function __tdiv_to_l_
  6110  0021                     psect	text11
  6111                           	file	"C:\Program Files (x86)\Microchip\xc8\v2.00\pic\sources\c90\common\ftdivl.c"
  6112                           	line	60
  6113                           	global	__size_of__tdiv_to_l_
  6114                           	__size_of__tdiv_to_l_	equ	__end_of__tdiv_to_l_-__tdiv_to_l_
  6115  00E1                     	
  6116                           __tdiv_to_l_:	
  6117  0021                     ;incstack = 0
  6118                           	opt	stack 6
  6119                           ; Regs used in __tdiv_to_l_: [wreg+status,2+status,0]
  6120                           	line	66
  6121                           	
  6122                           l2531:	
  6123  0021                     	movf	(__tdiv_to_l_@f1),w
  6124  0021  0870               	movwf	((??__tdiv_to_l_+0)+0)
  6125  0022  00F8               	movf	(__tdiv_to_l_@f1+1),w
  6126  0023  0871               	movwf	((??__tdiv_to_l_+0)+0+1)
  6127  0024  00F9               	movf	(__tdiv_to_l_@f1+2),w
  6128  0025  0872               	movwf	((??__tdiv_to_l_+0)+0+2)
  6129  0026  00FA               	clrc
  6130  0027  1003               	rlf	(??__tdiv_to_l_+0)+1,w
  6131  0028  0D79               	rlf	(??__tdiv_to_l_+0)+2,w
  6132  0029  0D7A               	movwf	(??__tdiv_to_l_+3)+0
  6133  002A  00FB               	movf	(??__tdiv_to_l_+3)+0,w
  6134  002B  087B               	bcf	status, 5	;RP0=0, select bank0
  6135  002C  1283               	bcf	status, 6	;RP1=0, select bank0
  6136  002D  1303               	movwf	(__tdiv_to_l_@exp1)
  6137  002E  00A5               	movf	(((__tdiv_to_l_@exp1))),w
  6138  002F  0825               	btfss	status,2
  6139  0030  1D03               	goto	u4281
  6140  0031  2833               	goto	u4280
  6141  0032  2834               u4281:
  6142  0033                     	goto	l2537
  6143  0033  283E               u4280:
  6144  0034                     	line	67
  6145                           	
  6146                           l2533:	
  6147  0034                     	movlw	high highword(0)
  6148  0034  3000               	movwf	(?__tdiv_to_l_+3)
  6149  0035  00F3               	movlw	low highword(0)
  6150  0036  3000               	movwf	(?__tdiv_to_l_+2)
  6151  0037  00F2               	movlw	high(0)
  6152  0038  3000               	movwf	(?__tdiv_to_l_+1)
  6153  0039  00F1               	movlw	low(0)
  6154  003A  3000               	movwf	(?__tdiv_to_l_)
  6155  003B  00F0               
  6156                           	goto	l451
  6157  003C  2901               	
  6158                           l2535:	
  6159  003D                     	goto	l451
  6160  003D  2901               	
  6161                           l450:	
  6162  003E                     	line	68
  6163                           	
  6164                           l2537:	
  6165  003E                     	movf	(__tdiv_to_l_@f2),w
  6166  003E  0874               	movwf	((??__tdiv_to_l_+0)+0)
  6167  003F  00F8               	movf	(__tdiv_to_l_@f2+1),w
  6168  0040  0875               	movwf	((??__tdiv_to_l_+0)+0+1)
  6169  0041  00F9               	movf	(__tdiv_to_l_@f2+2),w
  6170  0042  0876               	movwf	((??__tdiv_to_l_+0)+0+2)
  6171  0043  00FA               	clrc
  6172  0044  1003               	rlf	(??__tdiv_to_l_+0)+1,w
  6173  0045  0D79               	rlf	(??__tdiv_to_l_+0)+2,w
  6174  0046  0D7A               	movwf	(??__tdiv_to_l_+3)+0
  6175  0047  00FB               	movf	(??__tdiv_to_l_+3)+0,w
  6176  0048  087B               	movwf	(__tdiv_to_l_@cntr)
  6177  0049  00A4               	movf	(((__tdiv_to_l_@cntr))),w
  6178  004A  0824               	btfss	status,2
  6179  004B  1D03               	goto	u4291
  6180  004C  284E               	goto	u4290
  6181  004D  284F               u4291:
  6182  004E                     	goto	l452
  6183  004E  2859               u4290:
  6184  004F                     	line	69
  6185                           	
  6186                           l2539:	
  6187  004F                     	movlw	high highword(0)
  6188  004F  3000               	movwf	(?__tdiv_to_l_+3)
  6189  0050  00F3               	movlw	low highword(0)
  6190  0051  3000               	movwf	(?__tdiv_to_l_+2)
  6191  0052  00F2               	movlw	high(0)
  6192  0053  3000               	movwf	(?__tdiv_to_l_+1)
  6193  0054  00F1               	movlw	low(0)
  6194  0055  3000               	movwf	(?__tdiv_to_l_)
  6195  0056  00F0               
  6196                           	goto	l451
  6197  0057  2901               	
  6198                           l2541:	
  6199  0058                     	goto	l451
  6200  0058  2901               	
  6201                           l452:	
  6202  0059                     	line	70
  6203                           	bsf	(__tdiv_to_l_@f1)+(15/8),(15)&7
  6204  0059  17F1               	line	71
  6205                           	
  6206                           l2543:	
  6207  005A                     	movlw	0FFh
  6208  005A  30FF               	andwf	(__tdiv_to_l_@f1),f
  6209  005B  05F0               	movlw	0FFh
  6210  005C  30FF               	andwf	(__tdiv_to_l_@f1+1),f
  6211  005D  05F1               	movlw	0
  6212  005E  3000               	andwf	(__tdiv_to_l_@f1+2),f
  6213  005F  05F2               	line	72
  6214                           	
  6215                           l2545:	
  6216  0060                     	bsf	(__tdiv_to_l_@f2)+(15/8),(15)&7
  6217  0060  17F5               	line	73
  6218                           	movlw	0FFh
  6219  0061  30FF               	andwf	(__tdiv_to_l_@f2),f
  6220  0062  05F4               	movlw	0FFh
  6221  0063  30FF               	andwf	(__tdiv_to_l_@f2+1),f
  6222  0064  05F5               	movlw	0
  6223  0065  3000               	andwf	(__tdiv_to_l_@f2+2),f
  6224  0066  05F6               	line	74
  6225                           	movlw	high highword(0)
  6226  0067  3000               	movwf	(__tdiv_to_l_@quot+3)
  6227  0068  00A3               	movlw	low highword(0)
  6228  0069  3000               	movwf	(__tdiv_to_l_@quot+2)
  6229  006A  00A2               	movlw	high(0)
  6230  006B  3000               	movwf	(__tdiv_to_l_@quot+1)
  6231  006C  00A1               	movlw	low(0)
  6232  006D  3000               	movwf	(__tdiv_to_l_@quot)
  6233  006E  00A0               
  6234                           	line	75
  6235                           	
  6236                           l2547:	
  6237  006F                     	movlw	07Fh
  6238  006F  307F               	subwf	(__tdiv_to_l_@exp1),f
  6239  0070  02A5               	line	76
  6240                           	
  6241                           l2549:	
  6242  0071                     	movlw	low(098h)
  6243  0071  3098               	addwf	(__tdiv_to_l_@cntr),w
  6244  0072  0724               	movwf	(??__tdiv_to_l_+0)+0
  6245  0073  00F8               	movf	0+(??__tdiv_to_l_+0)+0,w
  6246  0074  0878               	subwf	(__tdiv_to_l_@exp1),f
  6247  0075  02A5               	line	77
  6248                           	movlw	low(018h)
  6249  0076  3018               	movwf	(??__tdiv_to_l_+0)+0
  6250  0077  00F8               	movf	(??__tdiv_to_l_+0)+0,w
  6251  0078  0878               	movwf	(__tdiv_to_l_@cntr)
  6252  0079  00A4               	goto	l2551
  6253  007A  287B               	line	78
  6254                           	
  6255                           l453:	
  6256  007B                     	line	79
  6257                           	
  6258                           l2551:	
  6259  007B                     	movlw	01h
  6260  007B  3001               	movwf	(??__tdiv_to_l_+0)+0
  6261  007C  00F8               u4305:
  6262  007D                     	clrc
  6263  007D  1003               	rlf	(__tdiv_to_l_@quot),f
  6264  007E  0DA0               	rlf	(__tdiv_to_l_@quot+1),f
  6265  007F  0DA1               	rlf	(__tdiv_to_l_@quot+2),f
  6266  0080  0DA2               	rlf	(__tdiv_to_l_@quot+3),f
  6267  0081  0DA3               	decfsz	(??__tdiv_to_l_+0)+0
  6268  0082  0BF8               	goto	u4305
  6269  0083  287D               	line	80
  6270                           	
  6271                           l2553:	
  6272  0084                     	movf	(__tdiv_to_l_@f2+2),w
  6273  0084  0876               	subwf	(__tdiv_to_l_@f1+2),w
  6274  0085  0272               	skipz
  6275  0086  1D03               	goto	u4315
  6276  0087  288E               	movf	(__tdiv_to_l_@f2+1),w
  6277  0088  0875               	subwf	(__tdiv_to_l_@f1+1),w
  6278  0089  0271               	skipz
  6279  008A  1D03               	goto	u4315
  6280  008B  288E               	movf	(__tdiv_to_l_@f2),w
  6281  008C  0874               	subwf	(__tdiv_to_l_@f1),w
  6282  008D  0270               u4315:
  6283  008E                     	skipc
  6284  008E  1C03               	goto	u4311
  6285  008F  2891               	goto	u4310
  6286  0090  2892               u4311:
  6287  0091                     	goto	l2559
  6288  0091  289E               u4310:
  6289  0092                     	line	81
  6290                           	
  6291                           l2555:	
  6292  0092                     	movf	(__tdiv_to_l_@f2),w
  6293  0092  0874               	subwf	(__tdiv_to_l_@f1),f
  6294  0093  02F0               	movf	(__tdiv_to_l_@f2+1),w
  6295  0094  0875               	skipc
  6296  0095  1C03               	incfsz	(__tdiv_to_l_@f2+1),w
  6297  0096  0F75               	subwf	(__tdiv_to_l_@f1+1),f
  6298  0097  02F1               	movf	(__tdiv_to_l_@f2+2),w
  6299  0098  0876               	skipc
  6300  0099  1C03               	incf	(__tdiv_to_l_@f2+2),w
  6301  009A  0A76               	subwf	(__tdiv_to_l_@f1+2),f
  6302  009B  02F2               	line	82
  6303                           	
  6304                           l2557:	
  6305  009C                     	bsf	(__tdiv_to_l_@quot)+(0/8),(0)&7
  6306  009C  1420               	goto	l2559
  6307  009D  289E               	line	83
  6308                           	
  6309                           l454:	
  6310  009E                     	line	84
  6311                           	
  6312                           l2559:	
  6313  009E                     	movlw	01h
  6314  009E  3001               u4325:
  6315  009F                     	clrc
  6316  009F  1003               	rlf	(__tdiv_to_l_@f1),f
  6317  00A0  0DF0               	rlf	(__tdiv_to_l_@f1+1),f
  6318  00A1  0DF1               	rlf	(__tdiv_to_l_@f1+2),f
  6319  00A2  0DF2               	addlw	-1
  6320  00A3  3EFF               	skipz
  6321  00A4  1D03               	goto	u4325
  6322  00A5  289F               	line	85
  6323                           	
  6324                           l2561:	
  6325  00A6                     	movlw	01h
  6326  00A6  3001               	subwf	(__tdiv_to_l_@cntr),f
  6327  00A7  02A4               	btfss	status,2
  6328  00A8  1D03               	goto	u4331
  6329  00A9  28AB               	goto	u4330
  6330  00AA  28AC               u4331:
  6331  00AB                     	goto	l2551
  6332  00AB  287B               u4330:
  6333  00AC                     	
  6334                           l455:	
  6335  00AC                     	line	86
  6336                           	btfss	(__tdiv_to_l_@exp1),7
  6337  00AC  1FA5               	goto	u4341
  6338  00AD  28AF               	goto	u4340
  6339  00AE  28B0               u4341:
  6340  00AF                     	goto	l2571
  6341  00AF  28D5               u4340:
  6342  00B0                     	line	87
  6343                           	
  6344                           l2563:	
  6345  00B0                     	movf	(__tdiv_to_l_@exp1),w
  6346  00B0  0825               	xorlw	80h
  6347  00B1  3A80               	addlw	-((-23)^80h)
  6348  00B2  3E97               	skipnc
  6349  00B3  1803               	goto	u4351
  6350  00B4  28B6               	goto	u4350
  6351  00B5  28B7               u4351:
  6352  00B6                     	goto	l2569
  6353  00B6  28C2               u4350:
  6354  00B7                     	line	88
  6355                           	
  6356                           l2565:	
  6357  00B7                     	movlw	high highword(0)
  6358  00B7  3000               	movwf	(?__tdiv_to_l_+3)
  6359  00B8  00F3               	movlw	low highword(0)
  6360  00B9  3000               	movwf	(?__tdiv_to_l_+2)
  6361  00BA  00F2               	movlw	high(0)
  6362  00BB  3000               	movwf	(?__tdiv_to_l_+1)
  6363  00BC  00F1               	movlw	low(0)
  6364  00BD  3000               	movwf	(?__tdiv_to_l_)
  6365  00BE  00F0               
  6366                           	goto	l451
  6367  00BF  2901               	
  6368                           l2567:	
  6369  00C0                     	goto	l451
  6370  00C0  2901               	
  6371                           l457:	
  6372  00C1                     	goto	l2569
  6373  00C1  28C2               	line	89
  6374                           	
  6375                           l458:	
  6376  00C2                     	line	90
  6377                           	
  6378                           l2569:	
  6379  00C2                     	movlw	01h
  6380  00C2  3001               u4365:
  6381  00C3                     	clrc
  6382  00C3  1003               	rrf	(__tdiv_to_l_@quot+3),f
  6383  00C4  0CA3               	rrf	(__tdiv_to_l_@quot+2),f
  6384  00C5  0CA2               	rrf	(__tdiv_to_l_@quot+1),f
  6385  00C6  0CA1               	rrf	(__tdiv_to_l_@quot),f
  6386  00C7  0CA0               	addlw	-1
  6387  00C8  3EFF               	skipz
  6388  00C9  1D03               	goto	u4365
  6389  00CA  28C3               
  6390                           	line	91
  6391                           	movlw	low(01h)
  6392  00CB  3001               	movwf	(??__tdiv_to_l_+0)+0
  6393  00CC  00F8               	movf	(??__tdiv_to_l_+0)+0,w
  6394  00CD  0878               	addwf	(__tdiv_to_l_@exp1),f
  6395  00CE  07A5               	btfss	status,2
  6396  00CF  1D03               	goto	u4371
  6397  00D0  28D2               	goto	u4370
  6398  00D1  28D3               u4371:
  6399  00D2                     	goto	l2569
  6400  00D2  28C2               u4370:
  6401  00D3                     	goto	l2579
  6402  00D3  28F8               	
  6403                           l459:	
  6404  00D4                     	line	92
  6405                           	goto	l2579
  6406  00D4  28F8               	
  6407                           l456:	
  6408  00D5                     	line	93
  6409                           	
  6410                           l2571:	
  6411  00D5                     	movlw	low(018h)
  6412  00D5  3018               	subwf	(__tdiv_to_l_@exp1),w
  6413  00D6  0225               	skipc
  6414  00D7  1C03               	goto	u4381
  6415  00D8  28DA               	goto	u4380
  6416  00D9  28DB               u4381:
  6417  00DA                     	goto	l462
  6418  00DA  28F1               u4380:
  6419  00DB                     	line	94
  6420                           	
  6421                           l2573:	
  6422  00DB                     	movlw	high highword(0)
  6423  00DB  3000               	movwf	(?__tdiv_to_l_+3)
  6424  00DC  00F3               	movlw	low highword(0)
  6425  00DD  3000               	movwf	(?__tdiv_to_l_+2)
  6426  00DE  00F2               	movlw	high(0)
  6427  00DF  3000               	movwf	(?__tdiv_to_l_+1)
  6428  00E0  00F1               	movlw	low(0)
  6429  00E1  3000               	movwf	(?__tdiv_to_l_)
  6430  00E2  00F0               
  6431                           	goto	l451
  6432  00E3  2901               	
  6433                           l2575:	
  6434  00E4                     	goto	l451
  6435  00E4  2901               	
  6436                           l461:	
  6437  00E5                     	line	95
  6438                           	goto	l462
  6439  00E5  28F1               	
  6440                           l463:	
  6441  00E6                     	line	96
  6442                           	
  6443                           l2577:	
  6444  00E6                     	movlw	01h
  6445  00E6  3001               	movwf	(??__tdiv_to_l_+0)+0
  6446  00E7  00F8               u4395:
  6447  00E8                     	clrc
  6448  00E8  1003               	rlf	(__tdiv_to_l_@quot),f
  6449  00E9  0DA0               	rlf	(__tdiv_to_l_@quot+1),f
  6450  00EA  0DA1               	rlf	(__tdiv_to_l_@quot+2),f
  6451  00EB  0DA2               	rlf	(__tdiv_to_l_@quot+3),f
  6452  00EC  0DA3               	decfsz	(??__tdiv_to_l_+0)+0
  6453  00ED  0BF8               	goto	u4395
  6454  00EE  28E8               	line	97
  6455                           	movlw	01h
  6456  00EF  3001               	subwf	(__tdiv_to_l_@exp1),f
  6457  00F0  02A5               	line	98
  6458                           	
  6459                           l462:	
  6460  00F1                     	line	95
  6461                           	movf	((__tdiv_to_l_@exp1)),w
  6462  00F1  0825               	btfss	status,2
  6463  00F2  1D03               	goto	u4401
  6464  00F3  28F5               	goto	u4400
  6465  00F4  28F6               u4401:
  6466  00F5                     	goto	l2577
  6467  00F5  28E6               u4400:
  6468  00F6                     	goto	l2579
  6469  00F6  28F8               	
  6470                           l464:	
  6471  00F7                     	goto	l2579
  6472  00F7  28F8               	line	99
  6473                           	
  6474                           l460:	
  6475  00F8                     	line	100
  6476                           	
  6477                           l2579:	
  6478  00F8                     	movf	(__tdiv_to_l_@quot+3),w
  6479  00F8  0823               	movwf	(?__tdiv_to_l_+3)
  6480  00F9  00F3               	movf	(__tdiv_to_l_@quot+2),w
  6481  00FA  0822               	movwf	(?__tdiv_to_l_+2)
  6482  00FB  00F2               	movf	(__tdiv_to_l_@quot+1),w
  6483  00FC  0821               	movwf	(?__tdiv_to_l_+1)
  6484  00FD  00F1               	movf	(__tdiv_to_l_@quot),w
  6485  00FE  0820               	movwf	(?__tdiv_to_l_)
  6486  00FF  00F0               
  6487                           	goto	l451
  6488  0100  2901               	
  6489                           l2581:	
  6490  0101                     	line	101
  6491                           	
  6492                           l451:	
  6493  0101                     	return
  6494  0101  0008               	opt stack 0
  6495                           GLOBAL	__end_of__tdiv_to_l_
  6496                           	__end_of__tdiv_to_l_:
  6497  0102                     	signat	__tdiv_to_l_,8316
  6498                           	global	__div_to_l_
  6499                           
  6500 ;; *************** function __div_to_l_ *****************
  6501 ;; Defined at:
  6502 ;;		line 60 in file "C:\Program Files (x86)\Microchip\xc8\v2.00\pic\sources\c90\common\fldivl.c"
  6503 ;; Parameters:    Size  Location     Type
  6504 ;;  f1              4    0[COMMON] unsigned long 
  6505 ;;  f2              4    4[COMMON] unsigned long 
  6506 ;; Auto vars:     Size  Location     Type
  6507 ;;  quot            4    0[BANK0 ] unsigned long 
  6508 ;;  exp1            1    5[BANK0 ] unsigned char 
  6509 ;;  cntr            1    4[BANK0 ] unsigned char 
  6510 ;; Return value:  Size  Location     Type
  6511 ;;                  4    0[COMMON] unsigned long 
  6512 ;; Registers used:
  6513 ;;		wreg, status,2, status,0
  6514 ;; Tracked objects:
  6515 ;;		On entry : 0/0
  6516 ;;		On exit  : 0/0
  6517 ;;		Unchanged: 0/0
  6518 ;; Data sizes:     COMMON   BANK0   BANK1   BANK3   BANK2
  6519 ;;      Params:         8       0       0       0       0
  6520 ;;      Locals:         0       6       0       0       0
  6521 ;;      Temps:          5       0       0       0       0
  6522 ;;      Totals:        13       6       0       0       0
  6523 ;;Total ram usage:       19 bytes
  6524 ;; Hardware stack levels used:    1
  6525 ;; This function calls:
  6526 ;;		Nothing
  6527 ;; This function is called by:
  6528 ;;		_sprintf
  6529 ;; This function uses a non-reentrant model
  6530 ;;
  6531                           psect	text12,local,class=CODE,delta=2,merge=1,group=1
  6532                           	file	"C:\Program Files (x86)\Microchip\xc8\v2.00\pic\sources\c90\common\fldivl.c"
  6533                           	line	60
  6534                           global __ptext12
  6535                           __ptext12:	;psect for function __div_to_l_
  6536  0102                     psect	text12
  6537                           	file	"C:\Program Files (x86)\Microchip\xc8\v2.00\pic\sources\c90\common\fldivl.c"
  6538                           	line	60
  6539                           	global	__size_of__div_to_l_
  6540                           	__size_of__div_to_l_	equ	__end_of__div_to_l_-__div_to_l_
  6541  00F2                     	
  6542                           __div_to_l_:	
  6543  0102                     ;incstack = 0
  6544                           	opt	stack 6
  6545                           ; Regs used in __div_to_l_: [wreg+status,2+status,0]
  6546                           	line	66
  6547                           	
  6548                           l2583:	
  6549  0102                     	movf	(__div_to_l_@f1),w
  6550  0102  0870               	movwf	(??__div_to_l_+0)+0
  6551  0103  00F8               	movf	(__div_to_l_@f1+1),w
  6552  0104  0871               	movwf	((??__div_to_l_+0)+0+1)
  6553  0105  00F9               	movf	(__div_to_l_@f1+2),w
  6554  0106  0872               	movwf	((??__div_to_l_+0)+0+2)
  6555  0107  00FA               	movf	(__div_to_l_@f1+3),w
  6556  0108  0873               	movwf	((??__div_to_l_+0)+0+3)
  6557  0109  00FB               	clrc
  6558  010A  1003               	rlf	(??__div_to_l_+0)+2,w
  6559  010B  0D7A               	rlf	(??__div_to_l_+0)+3,w
  6560  010C  0D7B               	movwf	(??__div_to_l_+4)+0
  6561  010D  00FC               	movf	(??__div_to_l_+4)+0,w
  6562  010E  087C               	bcf	status, 5	;RP0=0, select bank0
  6563  010F  1283               	bcf	status, 6	;RP1=0, select bank0
  6564  0110  1303               	movwf	(__div_to_l_@exp1)
  6565  0111  00A5               	movf	(((__div_to_l_@exp1))),w
  6566  0112  0825               	btfss	status,2
  6567  0113  1D03               	goto	u4411
  6568  0114  2916               	goto	u4410
  6569  0115  2917               u4411:
  6570  0116                     	goto	l2589
  6571  0116  2921               u4410:
  6572  0117                     	line	67
  6573                           	
  6574                           l2585:	
  6575  0117                     	movlw	high highword(0)
  6576  0117  3000               	movwf	(?__div_to_l_+3)
  6577  0118  00F3               	movlw	low highword(0)
  6578  0119  3000               	movwf	(?__div_to_l_+2)
  6579  011A  00F2               	movlw	high(0)
  6580  011B  3000               	movwf	(?__div_to_l_+1)
  6581  011C  00F1               	movlw	low(0)
  6582  011D  3000               	movwf	(?__div_to_l_)
  6583  011E  00F0               
  6584                           	goto	l404
  6585  011F  29F3               	
  6586                           l2587:	
  6587  0120                     	goto	l404
  6588  0120  29F3               	
  6589                           l403:	
  6590  0121                     	line	68
  6591                           	
  6592                           l2589:	
  6593  0121                     	movf	(__div_to_l_@f2),w
  6594  0121  0874               	movwf	(??__div_to_l_+0)+0
  6595  0122  00F8               	movf	(__div_to_l_@f2+1),w
  6596  0123  0875               	movwf	((??__div_to_l_+0)+0+1)
  6597  0124  00F9               	movf	(__div_to_l_@f2+2),w
  6598  0125  0876               	movwf	((??__div_to_l_+0)+0+2)
  6599  0126  00FA               	movf	(__div_to_l_@f2+3),w
  6600  0127  0877               	movwf	((??__div_to_l_+0)+0+3)
  6601  0128  00FB               	clrc
  6602  0129  1003               	rlf	(??__div_to_l_+0)+2,w
  6603  012A  0D7A               	rlf	(??__div_to_l_+0)+3,w
  6604  012B  0D7B               	movwf	(??__div_to_l_+4)+0
  6605  012C  00FC               	movf	(??__div_to_l_+4)+0,w
  6606  012D  087C               	movwf	(__div_to_l_@cntr)
  6607  012E  00A4               	movf	(((__div_to_l_@cntr))),w
  6608  012F  0824               	btfss	status,2
  6609  0130  1D03               	goto	u4421
  6610  0131  2933               	goto	u4420
  6611  0132  2934               u4421:
  6612  0133                     	goto	l405
  6613  0133  293E               u4420:
  6614  0134                     	line	69
  6615                           	
  6616                           l2591:	
  6617  0134                     	movlw	high highword(0)
  6618  0134  3000               	movwf	(?__div_to_l_+3)
  6619  0135  00F3               	movlw	low highword(0)
  6620  0136  3000               	movwf	(?__div_to_l_+2)
  6621  0137  00F2               	movlw	high(0)
  6622  0138  3000               	movwf	(?__div_to_l_+1)
  6623  0139  00F1               	movlw	low(0)
  6624  013A  3000               	movwf	(?__div_to_l_)
  6625  013B  00F0               
  6626                           	goto	l404
  6627  013C  29F3               	
  6628                           l2593:	
  6629  013D                     	goto	l404
  6630  013D  29F3               	
  6631                           l405:	
  6632  013E                     	line	70
  6633                           	bsf	(__div_to_l_@f1)+(23/8),(23)&7
  6634  013E  17F2               	line	71
  6635                           	
  6636                           l2595:	
  6637  013F                     	movlw	0FFh
  6638  013F  30FF               	andwf	(__div_to_l_@f1),f
  6639  0140  05F0               	movlw	0FFh
  6640  0141  30FF               	andwf	(__div_to_l_@f1+1),f
  6641  0142  05F1               	movlw	0FFh
  6642  0143  30FF               	andwf	(__div_to_l_@f1+2),f
  6643  0144  05F2               	movlw	0
  6644  0145  3000               	andwf	(__div_to_l_@f1+3),f
  6645  0146  05F3               	line	72
  6646                           	
  6647                           l2597:	
  6648  0147                     	bsf	(__div_to_l_@f2)+(23/8),(23)&7
  6649  0147  17F6               	line	73
  6650                           	movlw	0FFh
  6651  0148  30FF               	andwf	(__div_to_l_@f2),f
  6652  0149  05F4               	movlw	0FFh
  6653  014A  30FF               	andwf	(__div_to_l_@f2+1),f
  6654  014B  05F5               	movlw	0FFh
  6655  014C  30FF               	andwf	(__div_to_l_@f2+2),f
  6656  014D  05F6               	movlw	0
  6657  014E  3000               	andwf	(__div_to_l_@f2+3),f
  6658  014F  05F7               	line	74
  6659                           	movlw	high highword(0)
  6660  0150  3000               	movwf	(__div_to_l_@quot+3)
  6661  0151  00A3               	movlw	low highword(0)
  6662  0152  3000               	movwf	(__div_to_l_@quot+2)
  6663  0153  00A2               	movlw	high(0)
  6664  0154  3000               	movwf	(__div_to_l_@quot+1)
  6665  0155  00A1               	movlw	low(0)
  6666  0156  3000               	movwf	(__div_to_l_@quot)
  6667  0157  00A0               
  6668                           	line	75
  6669                           	
  6670                           l2599:	
  6671  0158                     	movlw	07Fh
  6672  0158  307F               	subwf	(__div_to_l_@exp1),f
  6673  0159  02A5               	line	76
  6674                           	
  6675                           l2601:	
  6676  015A                     	movlw	low(0A0h)
  6677  015A  30A0               	addwf	(__div_to_l_@cntr),w
  6678  015B  0724               	movwf	(??__div_to_l_+0)+0
  6679  015C  00F8               	movf	0+(??__div_to_l_+0)+0,w
  6680  015D  0878               	subwf	(__div_to_l_@exp1),f
  6681  015E  02A5               	line	77
  6682                           	movlw	low(020h)
  6683  015F  3020               	movwf	(??__div_to_l_+0)+0
  6684  0160  00F8               	movf	(??__div_to_l_+0)+0,w
  6685  0161  0878               	movwf	(__div_to_l_@cntr)
  6686  0162  00A4               	goto	l2603
  6687  0163  2964               	line	78
  6688                           	
  6689                           l406:	
  6690  0164                     	line	79
  6691                           	
  6692                           l2603:	
  6693  0164                     	movlw	01h
  6694  0164  3001               	movwf	(??__div_to_l_+0)+0
  6695  0165  00F8               u4435:
  6696  0166                     	clrc
  6697  0166  1003               	rlf	(__div_to_l_@quot),f
  6698  0167  0DA0               	rlf	(__div_to_l_@quot+1),f
  6699  0168  0DA1               	rlf	(__div_to_l_@quot+2),f
  6700  0169  0DA2               	rlf	(__div_to_l_@quot+3),f
  6701  016A  0DA3               	decfsz	(??__div_to_l_+0)+0
  6702  016B  0BF8               	goto	u4435
  6703  016C  2966               	line	80
  6704                           	
  6705                           l2605:	
  6706  016D                     	movf	(__div_to_l_@f2+3),w
  6707  016D  0877               	subwf	(__div_to_l_@f1+3),w
  6708  016E  0273               	skipz
  6709  016F  1D03               	goto	u4445
  6710  0170  297B               	movf	(__div_to_l_@f2+2),w
  6711  0171  0876               	subwf	(__div_to_l_@f1+2),w
  6712  0172  0272               	skipz
  6713  0173  1D03               	goto	u4445
  6714  0174  297B               	movf	(__div_to_l_@f2+1),w
  6715  0175  0875               	subwf	(__div_to_l_@f1+1),w
  6716  0176  0271               	skipz
  6717  0177  1D03               	goto	u4445
  6718  0178  297B               	movf	(__div_to_l_@f2),w
  6719  0179  0874               	subwf	(__div_to_l_@f1),w
  6720  017A  0270               u4445:
  6721  017B                     	skipc
  6722  017B  1C03               	goto	u4441
  6723  017C  297E               	goto	u4440
  6724  017D  297F               u4441:
  6725  017E                     	goto	l2611
  6726  017E  298F               u4440:
  6727  017F                     	line	81
  6728                           	
  6729                           l2607:	
  6730  017F                     	movf	(__div_to_l_@f2),w
  6731  017F  0874               	subwf	(__div_to_l_@f1),f
  6732  0180  02F0               	movf	(__div_to_l_@f2+1),w
  6733  0181  0875               	skipc
  6734  0182  1C03               	incfsz	(__div_to_l_@f2+1),w
  6735  0183  0F75               	subwf	(__div_to_l_@f1+1),f
  6736  0184  02F1               	movf	(__div_to_l_@f2+2),w
  6737  0185  0876               	skipc
  6738  0186  1C03               	incfsz	(__div_to_l_@f2+2),w
  6739  0187  0F76               	subwf	(__div_to_l_@f1+2),f
  6740  0188  02F2               	movf	(__div_to_l_@f2+3),w
  6741  0189  0877               	skipc
  6742  018A  1C03               	incfsz	(__div_to_l_@f2+3),w
  6743  018B  0F77               	subwf	(__div_to_l_@f1+3),f
  6744  018C  02F3               	line	82
  6745                           	
  6746                           l2609:	
  6747  018D                     	bsf	(__div_to_l_@quot)+(0/8),(0)&7
  6748  018D  1420               	goto	l2611
  6749  018E  298F               	line	83
  6750                           	
  6751                           l407:	
  6752  018F                     	line	84
  6753                           	
  6754                           l2611:	
  6755  018F                     	movlw	01h
  6756  018F  3001               	movwf	(??__div_to_l_+0)+0
  6757  0190  00F8               u4455:
  6758  0191                     	clrc
  6759  0191  1003               	rlf	(__div_to_l_@f1),f
  6760  0192  0DF0               	rlf	(__div_to_l_@f1+1),f
  6761  0193  0DF1               	rlf	(__div_to_l_@f1+2),f
  6762  0194  0DF2               	rlf	(__div_to_l_@f1+3),f
  6763  0195  0DF3               	decfsz	(??__div_to_l_+0)+0
  6764  0196  0BF8               	goto	u4455
  6765  0197  2991               	line	85
  6766                           	
  6767                           l2613:	
  6768  0198                     	movlw	01h
  6769  0198  3001               	subwf	(__div_to_l_@cntr),f
  6770  0199  02A4               	btfss	status,2
  6771  019A  1D03               	goto	u4461
  6772  019B  299D               	goto	u4460
  6773  019C  299E               u4461:
  6774  019D                     	goto	l2603
  6775  019D  2964               u4460:
  6776  019E                     	
  6777                           l408:	
  6778  019E                     	line	86
  6779                           	btfss	(__div_to_l_@exp1),7
  6780  019E  1FA5               	goto	u4471
  6781  019F  29A1               	goto	u4470
  6782  01A0  29A2               u4471:
  6783  01A1                     	goto	l2623
  6784  01A1  29C7               u4470:
  6785  01A2                     	line	87
  6786                           	
  6787                           l2615:	
  6788  01A2                     	movf	(__div_to_l_@exp1),w
  6789  01A2  0825               	xorlw	80h
  6790  01A3  3A80               	addlw	-((-31)^80h)
  6791  01A4  3E9F               	skipnc
  6792  01A5  1803               	goto	u4481
  6793  01A6  29A8               	goto	u4480
  6794  01A7  29A9               u4481:
  6795  01A8                     	goto	l2621
  6796  01A8  29B4               u4480:
  6797  01A9                     	line	88
  6798                           	
  6799                           l2617:	
  6800  01A9                     	movlw	high highword(0)
  6801  01A9  3000               	movwf	(?__div_to_l_+3)
  6802  01AA  00F3               	movlw	low highword(0)
  6803  01AB  3000               	movwf	(?__div_to_l_+2)
  6804  01AC  00F2               	movlw	high(0)
  6805  01AD  3000               	movwf	(?__div_to_l_+1)
  6806  01AE  00F1               	movlw	low(0)
  6807  01AF  3000               	movwf	(?__div_to_l_)
  6808  01B0  00F0               
  6809                           	goto	l404
  6810  01B1  29F3               	
  6811                           l2619:	
  6812  01B2                     	goto	l404
  6813  01B2  29F3               	
  6814                           l410:	
  6815  01B3                     	goto	l2621
  6816  01B3  29B4               	line	89
  6817                           	
  6818                           l411:	
  6819  01B4                     	line	90
  6820                           	
  6821                           l2621:	
  6822  01B4                     	movlw	01h
  6823  01B4  3001               u4495:
  6824  01B5                     	clrc
  6825  01B5  1003               	rrf	(__div_to_l_@quot+3),f
  6826  01B6  0CA3               	rrf	(__div_to_l_@quot+2),f
  6827  01B7  0CA2               	rrf	(__div_to_l_@quot+1),f
  6828  01B8  0CA1               	rrf	(__div_to_l_@quot),f
  6829  01B9  0CA0               	addlw	-1
  6830  01BA  3EFF               	skipz
  6831  01BB  1D03               	goto	u4495
  6832  01BC  29B5               
  6833                           	line	91
  6834                           	movlw	low(01h)
  6835  01BD  3001               	movwf	(??__div_to_l_+0)+0
  6836  01BE  00F8               	movf	(??__div_to_l_+0)+0,w
  6837  01BF  0878               	addwf	(__div_to_l_@exp1),f
  6838  01C0  07A5               	btfss	status,2
  6839  01C1  1D03               	goto	u4501
  6840  01C2  29C4               	goto	u4500
  6841  01C3  29C5               u4501:
  6842  01C4                     	goto	l2621
  6843  01C4  29B4               u4500:
  6844  01C5                     	goto	l2631
  6845  01C5  29EA               	
  6846                           l412:	
  6847  01C6                     	line	92
  6848                           	goto	l2631
  6849  01C6  29EA               	
  6850                           l409:	
  6851  01C7                     	line	93
  6852                           	
  6853                           l2623:	
  6854  01C7                     	movlw	low(020h)
  6855  01C7  3020               	subwf	(__div_to_l_@exp1),w
  6856  01C8  0225               	skipc
  6857  01C9  1C03               	goto	u4511
  6858  01CA  29CC               	goto	u4510
  6859  01CB  29CD               u4511:
  6860  01CC                     	goto	l415
  6861  01CC  29E3               u4510:
  6862  01CD                     	line	94
  6863                           	
  6864                           l2625:	
  6865  01CD                     	movlw	high highword(0)
  6866  01CD  3000               	movwf	(?__div_to_l_+3)
  6867  01CE  00F3               	movlw	low highword(0)
  6868  01CF  3000               	movwf	(?__div_to_l_+2)
  6869  01D0  00F2               	movlw	high(0)
  6870  01D1  3000               	movwf	(?__div_to_l_+1)
  6871  01D2  00F1               	movlw	low(0)
  6872  01D3  3000               	movwf	(?__div_to_l_)
  6873  01D4  00F0               
  6874                           	goto	l404
  6875  01D5  29F3               	
  6876                           l2627:	
  6877  01D6                     	goto	l404
  6878  01D6  29F3               	
  6879                           l414:	
  6880  01D7                     	line	95
  6881                           	goto	l415
  6882  01D7  29E3               	
  6883                           l416:	
  6884  01D8                     	line	96
  6885                           	
  6886                           l2629:	
  6887  01D8                     	movlw	01h
  6888  01D8  3001               	movwf	(??__div_to_l_+0)+0
  6889  01D9  00F8               u4525:
  6890  01DA                     	clrc
  6891  01DA  1003               	rlf	(__div_to_l_@quot),f
  6892  01DB  0DA0               	rlf	(__div_to_l_@quot+1),f
  6893  01DC  0DA1               	rlf	(__div_to_l_@quot+2),f
  6894  01DD  0DA2               	rlf	(__div_to_l_@quot+3),f
  6895  01DE  0DA3               	decfsz	(??__div_to_l_+0)+0
  6896  01DF  0BF8               	goto	u4525
  6897  01E0  29DA               	line	97
  6898                           	movlw	01h
  6899  01E1  3001               	subwf	(__div_to_l_@exp1),f
  6900  01E2  02A5               	line	98
  6901                           	
  6902                           l415:	
  6903  01E3                     	line	95
  6904                           	movf	((__div_to_l_@exp1)),w
  6905  01E3  0825               	btfss	status,2
  6906  01E4  1D03               	goto	u4531
  6907  01E5  29E7               	goto	u4530
  6908  01E6  29E8               u4531:
  6909  01E7                     	goto	l2629
  6910  01E7  29D8               u4530:
  6911  01E8                     	goto	l2631
  6912  01E8  29EA               	
  6913                           l417:	
  6914  01E9                     	goto	l2631
  6915  01E9  29EA               	line	99
  6916                           	
  6917                           l413:	
  6918  01EA                     	line	100
  6919                           	
  6920                           l2631:	
  6921  01EA                     	movf	(__div_to_l_@quot+3),w
  6922  01EA  0823               	movwf	(?__div_to_l_+3)
  6923  01EB  00F3               	movf	(__div_to_l_@quot+2),w
  6924  01EC  0822               	movwf	(?__div_to_l_+2)
  6925  01ED  00F2               	movf	(__div_to_l_@quot+1),w
  6926  01EE  0821               	movwf	(?__div_to_l_+1)
  6927  01EF  00F1               	movf	(__div_to_l_@quot),w
  6928  01F0  0820               	movwf	(?__div_to_l_)
  6929  01F1  00F0               
  6930                           	goto	l404
  6931  01F2  29F3               	
  6932                           l2633:	
  6933  01F3                     	line	101
  6934                           	
  6935                           l404:	
  6936  01F3                     	return
  6937  01F3  0008               	opt stack 0
  6938                           GLOBAL	__end_of__div_to_l_
  6939                           	__end_of__div_to_l_:
  6940  01F4                     	signat	__div_to_l_,8316
  6941                           	global	___wmul
  6942                           
  6943 ;; *************** function ___wmul *****************
  6944 ;; Defined at:
  6945 ;;		line 15 in file "C:\Program Files (x86)\Microchip\xc8\v2.00\pic\sources\c90\common\Umul16.c"
  6946 ;; Parameters:    Size  Location     Type
  6947 ;;  multiplier      2    0[COMMON] unsigned int 
  6948 ;;  multiplicand    2    2[COMMON] unsigned int 
  6949 ;; Auto vars:     Size  Location     Type
  6950 ;;  product         2    4[COMMON] unsigned int 
  6951 ;; Return value:  Size  Location     Type
  6952 ;;                  2    0[COMMON] unsigned int 
  6953 ;; Registers used:
  6954 ;;		wreg, status,2, status,0
  6955 ;; Tracked objects:
  6956 ;;		On entry : 0/0
  6957 ;;		On exit  : 0/0
  6958 ;;		Unchanged: 0/0
  6959 ;; Data sizes:     COMMON   BANK0   BANK1   BANK3   BANK2
  6960 ;;      Params:         4       0       0       0       0
  6961 ;;      Locals:         2       0       0       0       0
  6962 ;;      Temps:          0       0       0       0       0
  6963 ;;      Totals:         6       0       0       0       0
  6964 ;;Total ram usage:        6 bytes
  6965 ;; Hardware stack levels used:    1
  6966 ;; This function calls:
  6967 ;;		Nothing
  6968 ;; This function is called by:
  6969 ;;		_sprintf
  6970 ;; This function uses a non-reentrant model
  6971 ;;
  6972                           psect	text13,local,class=CODE,delta=2,merge=1,group=1
  6973                           	file	"C:\Program Files (x86)\Microchip\xc8\v2.00\pic\sources\c90\common\Umul16.c"
  6974                           	line	15
  6975                           global __ptext13
  6976                           __ptext13:	;psect for function ___wmul
  6977  1B60                     psect	text13
  6978                           	file	"C:\Program Files (x86)\Microchip\xc8\v2.00\pic\sources\c90\common\Umul16.c"
  6979                           	line	15
  6980                           	global	__size_of___wmul
  6981                           	__size_of___wmul	equ	__end_of___wmul-___wmul
  6982  0028                     	
  6983                           ___wmul:	
  6984  1B60                     ;incstack = 0
  6985                           	opt	stack 6
  6986                           ; Regs used in ___wmul: [wreg+status,2+status,0]
  6987                           	line	43
  6988                           	
  6989                           l2635:	
  6990  1B60                     	clrf	(___wmul@product)
  6991  1B60  01F4               	clrf	(___wmul@product+1)
  6992  1B61  01F5               	goto	l2637
  6993  1B62  2B63               	line	44
  6994                           	
  6995                           l233:	
  6996  1B63                     	line	45
  6997                           	
  6998                           l2637:	
  6999  1B63                     	btfss	(___wmul@multiplier),(0)&7
  7000  1B63  1C70               	goto	u4541
  7001  1B64  2B66               	goto	u4540
  7002  1B65  2B67               u4541:
  7003  1B66                     	goto	l234
  7004  1B66  2B6D               u4540:
  7005  1B67                     	line	46
  7006                           	
  7007                           l2639:	
  7008  1B67                     	movf	(___wmul@multiplicand),w
  7009  1B67  0872               	addwf	(___wmul@product),f
  7010  1B68  07F4               	skipnc
  7011  1B69  1803               	incf	(___wmul@product+1),f
  7012  1B6A  0AF5               	movf	(___wmul@multiplicand+1),w
  7013  1B6B  0873               	addwf	(___wmul@product+1),f
  7014  1B6C  07F5               	
  7015                           l234:	
  7016  1B6D                     	line	47
  7017                           	movlw	01h
  7018  1B6D  3001               	
  7019                           u4555:
  7020  1B6E                     	clrc
  7021  1B6E  1003               	rlf	(___wmul@multiplicand),f
  7022  1B6F  0DF2               	rlf	(___wmul@multiplicand+1),f
  7023  1B70  0DF3               	addlw	-1
  7024  1B71  3EFF               	skipz
  7025  1B72  1D03               	goto	u4555
  7026  1B73  2B6E               	line	48
  7027                           	
  7028                           l2641:	
  7029  1B74                     	movlw	01h
  7030  1B74  3001               	
  7031                           u4565:
  7032  1B75                     	clrc
  7033  1B75  1003               	rrf	(___wmul@multiplier+1),f
  7034  1B76  0CF1               	rrf	(___wmul@multiplier),f
  7035  1B77  0CF0               	addlw	-1
  7036  1B78  3EFF               	skipz
  7037  1B79  1D03               	goto	u4565
  7038  1B7A  2B75               	line	49
  7039                           	
  7040                           l2643:	
  7041  1B7B                     	movf	((___wmul@multiplier)),w
  7042  1B7B  0870               iorwf	((___wmul@multiplier+1)),w
  7043  1B7C  0471               	btfss	status,2
  7044  1B7D  1D03               	goto	u4571
  7045  1B7E  2B80               	goto	u4570
  7046  1B7F  2B81               u4571:
  7047  1B80                     	goto	l2637
  7048  1B80  2B63               u4570:
  7049  1B81                     	goto	l2645
  7050  1B81  2B82               	
  7051                           l235:	
  7052  1B82                     	line	52
  7053                           	
  7054                           l2645:	
  7055  1B82                     	movf	(___wmul@product+1),w
  7056  1B82  0875               	movwf	(?___wmul+1)
  7057  1B83  00F1               	movf	(___wmul@product),w
  7058  1B84  0874               	movwf	(?___wmul)
  7059  1B85  00F0               	goto	l236
  7060  1B86  2B87               	
  7061                           l2647:	
  7062  1B87                     	line	53
  7063                           	
  7064                           l236:	
  7065  1B87                     	return
  7066  1B87  0008               	opt stack 0
  7067                           GLOBAL	__end_of___wmul
  7068                           	__end_of___wmul:
  7069  1B88                     	signat	___wmul,8314
  7070                           	global	___llmod
  7071                           
  7072 ;; *************** function ___llmod *****************
  7073 ;; Defined at:
  7074 ;;		line 5 in file "C:\Program Files (x86)\Microchip\xc8\v2.00\pic\sources\c90\common\llmod.c"
  7075 ;; Parameters:    Size  Location     Type
  7076 ;;  divisor         4    0[COMMON] unsigned long 
  7077 ;;  dividend        4    4[COMMON] unsigned long 
  7078 ;; Auto vars:     Size  Location     Type
  7079 ;;  counter         1    9[COMMON] unsigned char 
  7080 ;; Return value:  Size  Location     Type
  7081 ;;                  4    0[COMMON] unsigned long 
  7082 ;; Registers used:
  7083 ;;		wreg, status,2, status,0
  7084 ;; Tracked objects:
  7085 ;;		On entry : 0/0
  7086 ;;		On exit  : 0/0
  7087 ;;		Unchanged: 0/0
  7088 ;; Data sizes:     COMMON   BANK0   BANK1   BANK3   BANK2
  7089 ;;      Params:         8       0       0       0       0
  7090 ;;      Locals:         1       0       0       0       0
  7091 ;;      Temps:          1       0       0       0       0
  7092 ;;      Totals:        10       0       0       0       0
  7093 ;;Total ram usage:       10 bytes
  7094 ;; Hardware stack levels used:    1
  7095 ;; This function calls:
  7096 ;;		Nothing
  7097 ;; This function is called by:
  7098 ;;		_sprintf
  7099 ;; This function uses a non-reentrant model
  7100 ;;
  7101                           psect	text14,local,class=CODE,delta=2,merge=1,group=1
  7102                           	file	"C:\Program Files (x86)\Microchip\xc8\v2.00\pic\sources\c90\common\llmod.c"
  7103                           	line	5
  7104                           global __ptext14
  7105                           __ptext14:	;psect for function ___llmod
  7106  1C8E                     psect	text14
  7107                           	file	"C:\Program Files (x86)\Microchip\xc8\v2.00\pic\sources\c90\common\llmod.c"
  7108                           	line	5
  7109                           	global	__size_of___llmod
  7110                           	__size_of___llmod	equ	__end_of___llmod-___llmod
  7111  005B                     	
  7112                           ___llmod:	
  7113  1C8E                     ;incstack = 0
  7114                           	opt	stack 6
  7115                           ; Regs used in ___llmod: [wreg+status,2+status,0]
  7116                           	line	12
  7117                           	
  7118                           l2755:	
  7119  1C8E                     	movf	(___llmod@divisor+3),w
  7120  1C8E  0873               	iorwf	(___llmod@divisor+2),w
  7121  1C8F  0472               	iorwf	(___llmod@divisor+1),w
  7122  1C90  0471               	iorwf	(___llmod@divisor),w
  7123  1C91  0470               	skipnz
  7124  1C92  1903               	goto	u4861
  7125  1C93  2C95               	goto	u4860
  7126  1C94  2C96               u4861:
  7127  1C95                     	goto	l2771
  7128  1C95  2CDF               u4860:
  7129  1C96                     	line	13
  7130                           	
  7131                           l2757:	
  7132  1C96                     	clrf	(___llmod@counter)
  7133  1C96  01F9               	incf	(___llmod@counter),f
  7134  1C97  0AF9               	line	14
  7135                           	goto	l2761
  7136  1C98  2CA7               	
  7137                           l485:	
  7138  1C99                     	line	15
  7139                           	
  7140                           l2759:	
  7141  1C99                     	movlw	01h
  7142  1C99  3001               	movwf	(??___llmod+0)+0
  7143  1C9A  00F8               u4875:
  7144  1C9B                     	clrc
  7145  1C9B  1003               	rlf	(___llmod@divisor),f
  7146  1C9C  0DF0               	rlf	(___llmod@divisor+1),f
  7147  1C9D  0DF1               	rlf	(___llmod@divisor+2),f
  7148  1C9E  0DF2               	rlf	(___llmod@divisor+3),f
  7149  1C9F  0DF3               	decfsz	(??___llmod+0)+0
  7150  1CA0  0BF8               	goto	u4875
  7151  1CA1  2C9B               	line	16
  7152                           	movlw	low(01h)
  7153  1CA2  3001               	movwf	(??___llmod+0)+0
  7154  1CA3  00F8               	movf	(??___llmod+0)+0,w
  7155  1CA4  0878               	addwf	(___llmod@counter),f
  7156  1CA5  07F9               	goto	l2761
  7157  1CA6  2CA7               	line	17
  7158                           	
  7159                           l484:	
  7160  1CA7                     	line	14
  7161                           	
  7162                           l2761:	
  7163  1CA7                     	btfss	(___llmod@divisor+3),(31)&7
  7164  1CA7  1FF3               	goto	u4881
  7165  1CA8  2CAA               	goto	u4880
  7166  1CA9  2CAB               u4881:
  7167  1CAA                     	goto	l2759
  7168  1CAA  2C99               u4880:
  7169  1CAB                     	goto	l2763
  7170  1CAB  2CAD               	
  7171                           l486:	
  7172  1CAC                     	goto	l2763
  7173  1CAC  2CAD               	line	18
  7174                           	
  7175                           l487:	
  7176  1CAD                     	line	19
  7177                           	
  7178                           l2763:	
  7179  1CAD                     	movf	(___llmod@divisor+3),w
  7180  1CAD  0873               	subwf	(___llmod@dividend+3),w
  7181  1CAE  0277               	skipz
  7182  1CAF  1D03               	goto	u4895
  7183  1CB0  2CBB               	movf	(___llmod@divisor+2),w
  7184  1CB1  0872               	subwf	(___llmod@dividend+2),w
  7185  1CB2  0276               	skipz
  7186  1CB3  1D03               	goto	u4895
  7187  1CB4  2CBB               	movf	(___llmod@divisor+1),w
  7188  1CB5  0871               	subwf	(___llmod@dividend+1),w
  7189  1CB6  0275               	skipz
  7190  1CB7  1D03               	goto	u4895
  7191  1CB8  2CBB               	movf	(___llmod@divisor),w
  7192  1CB9  0870               	subwf	(___llmod@dividend),w
  7193  1CBA  0274               u4895:
  7194  1CBB                     	skipc
  7195  1CBB  1C03               	goto	u4891
  7196  1CBC  2CBE               	goto	u4890
  7197  1CBD  2CBF               u4891:
  7198  1CBE                     	goto	l2767
  7199  1CBE  2CCE               u4890:
  7200  1CBF                     	line	20
  7201                           	
  7202                           l2765:	
  7203  1CBF                     	movf	(___llmod@divisor),w
  7204  1CBF  0870               	subwf	(___llmod@dividend),f
  7205  1CC0  02F4               	movf	(___llmod@divisor+1),w
  7206  1CC1  0871               	skipc
  7207  1CC2  1C03               	incfsz	(___llmod@divisor+1),w
  7208  1CC3  0F71               	subwf	(___llmod@dividend+1),f
  7209  1CC4  02F5               	movf	(___llmod@divisor+2),w
  7210  1CC5  0872               	skipc
  7211  1CC6  1C03               	incfsz	(___llmod@divisor+2),w
  7212  1CC7  0F72               	subwf	(___llmod@dividend+2),f
  7213  1CC8  02F6               	movf	(___llmod@divisor+3),w
  7214  1CC9  0873               	skipc
  7215  1CCA  1C03               	incfsz	(___llmod@divisor+3),w
  7216  1CCB  0F73               	subwf	(___llmod@dividend+3),f
  7217  1CCC  02F7               	goto	l2767
  7218  1CCD  2CCE               	
  7219                           l488:	
  7220  1CCE                     	line	21
  7221                           	
  7222                           l2767:	
  7223  1CCE                     	movlw	01h
  7224  1CCE  3001               u4905:
  7225  1CCF                     	clrc
  7226  1CCF  1003               	rrf	(___llmod@divisor+3),f
  7227  1CD0  0CF3               	rrf	(___llmod@divisor+2),f
  7228  1CD1  0CF2               	rrf	(___llmod@divisor+1),f
  7229  1CD2  0CF1               	rrf	(___llmod@divisor),f
  7230  1CD3  0CF0               	addlw	-1
  7231  1CD4  3EFF               	skipz
  7232  1CD5  1D03               	goto	u4905
  7233  1CD6  2CCF               
  7234                           	line	22
  7235                           	
  7236                           l2769:	
  7237  1CD7                     	movlw	01h
  7238  1CD7  3001               	subwf	(___llmod@counter),f
  7239  1CD8  02F9               	btfss	status,2
  7240  1CD9  1D03               	goto	u4911
  7241  1CDA  2CDC               	goto	u4910
  7242  1CDB  2CDD               u4911:
  7243  1CDC                     	goto	l2763
  7244  1CDC  2CAD               u4910:
  7245  1CDD                     	goto	l2771
  7246  1CDD  2CDF               	
  7247                           l489:	
  7248  1CDE                     	goto	l2771
  7249  1CDE  2CDF               	line	23
  7250                           	
  7251                           l483:	
  7252  1CDF                     	line	24
  7253                           	
  7254                           l2771:	
  7255  1CDF                     	movf	(___llmod@dividend+3),w
  7256  1CDF  0877               	movwf	(?___llmod+3)
  7257  1CE0  00F3               	movf	(___llmod@dividend+2),w
  7258  1CE1  0876               	movwf	(?___llmod+2)
  7259  1CE2  00F2               	movf	(___llmod@dividend+1),w
  7260  1CE3  0875               	movwf	(?___llmod+1)
  7261  1CE4  00F1               	movf	(___llmod@dividend),w
  7262  1CE5  0874               	movwf	(?___llmod)
  7263  1CE6  00F0               
  7264                           	goto	l490
  7265  1CE7  2CE8               	
  7266                           l2773:	
  7267  1CE8                     	line	25
  7268                           	
  7269                           l490:	
  7270  1CE8                     	return
  7271  1CE8  0008               	opt stack 0
  7272                           GLOBAL	__end_of___llmod
  7273                           	__end_of___llmod:
  7274  1CE9                     	signat	___llmod,8316
  7275                           	global	___lldiv
  7276                           
  7277 ;; *************** function ___lldiv *****************
  7278 ;; Defined at:
  7279 ;;		line 5 in file "C:\Program Files (x86)\Microchip\xc8\v2.00\pic\sources\c90\common\__lldiv.c"
  7280 ;; Parameters:    Size  Location     Type
  7281 ;;  divisor         4    0[COMMON] unsigned long 
  7282 ;;  dividend        4    4[COMMON] unsigned long 
  7283 ;; Auto vars:     Size  Location     Type
  7284 ;;  quotient        4    9[COMMON] unsigned long 
  7285 ;;  counter         1   13[COMMON] unsigned char 
  7286 ;; Return value:  Size  Location     Type
  7287 ;;                  4    0[COMMON] unsigned long 
  7288 ;; Registers used:
  7289 ;;		wreg, status,2, status,0
  7290 ;; Tracked objects:
  7291 ;;		On entry : 0/0
  7292 ;;		On exit  : 0/0
  7293 ;;		Unchanged: 0/0
  7294 ;; Data sizes:     COMMON   BANK0   BANK1   BANK3   BANK2
  7295 ;;      Params:         8       0       0       0       0
  7296 ;;      Locals:         5       0       0       0       0
  7297 ;;      Temps:          1       0       0       0       0
  7298 ;;      Totals:        14       0       0       0       0
  7299 ;;Total ram usage:       14 bytes
  7300 ;; Hardware stack levels used:    1
  7301 ;; This function calls:
  7302 ;;		Nothing
  7303 ;; This function is called by:
  7304 ;;		_sprintf
  7305 ;; This function uses a non-reentrant model
  7306 ;;
  7307                           psect	text15,local,class=CODE,delta=2,merge=1,group=1
  7308                           	file	"C:\Program Files (x86)\Microchip\xc8\v2.00\pic\sources\c90\common\__lldiv.c"
  7309                           	line	5
  7310                           global __ptext15
  7311                           __ptext15:	;psect for function ___lldiv
  7312  1002                     psect	text15
  7313                           	file	"C:\Program Files (x86)\Microchip\xc8\v2.00\pic\sources\c90\common\__lldiv.c"
  7314                           	line	5
  7315                           	global	__size_of___lldiv
  7316                           	__size_of___lldiv	equ	__end_of___lldiv-___lldiv
  7317  006D                     	
  7318                           ___lldiv:	
  7319  1002                     ;incstack = 0
  7320                           	opt	stack 6
  7321                           ; Regs used in ___lldiv: [wreg+status,2+status,0]
  7322                           	line	13
  7323                           	
  7324                           l2649:	
  7325  1002                     	movlw	high highword(0)
  7326  1002  3000               	movwf	(___lldiv@quotient+3)
  7327  1003  00FC               	movlw	low highword(0)
  7328  1004  3000               	movwf	(___lldiv@quotient+2)
  7329  1005  00FB               	movlw	high(0)
  7330  1006  3000               	movwf	(___lldiv@quotient+1)
  7331  1007  00FA               	movlw	low(0)
  7332  1008  3000               	movwf	(___lldiv@quotient)
  7333  1009  00F9               
  7334                           	line	14
  7335                           	movf	(___lldiv@divisor+3),w
  7336  100A  0873               	iorwf	(___lldiv@divisor+2),w
  7337  100B  0472               	iorwf	(___lldiv@divisor+1),w
  7338  100C  0471               	iorwf	(___lldiv@divisor),w
  7339  100D  0470               	skipnz
  7340  100E  1903               	goto	u4581
  7341  100F  2811               	goto	u4580
  7342  1010  2812               u4581:
  7343  1011                     	goto	l2669
  7344  1011  2865               u4580:
  7345  1012                     	line	15
  7346                           	
  7347                           l2651:	
  7348  1012                     	clrf	(___lldiv@counter)
  7349  1012  01FD               	incf	(___lldiv@counter),f
  7350  1013  0AFD               	line	16
  7351                           	goto	l2655
  7352  1014  2823               	
  7353                           l265:	
  7354  1015                     	line	17
  7355                           	
  7356                           l2653:	
  7357  1015                     	movlw	01h
  7358  1015  3001               	movwf	(??___lldiv+0)+0
  7359  1016  00F8               u4595:
  7360  1017                     	clrc
  7361  1017  1003               	rlf	(___lldiv@divisor),f
  7362  1018  0DF0               	rlf	(___lldiv@divisor+1),f
  7363  1019  0DF1               	rlf	(___lldiv@divisor+2),f
  7364  101A  0DF2               	rlf	(___lldiv@divisor+3),f
  7365  101B  0DF3               	decfsz	(??___lldiv+0)+0
  7366  101C  0BF8               	goto	u4595
  7367  101D  2817               	line	18
  7368                           	movlw	low(01h)
  7369  101E  3001               	movwf	(??___lldiv+0)+0
  7370  101F  00F8               	movf	(??___lldiv+0)+0,w
  7371  1020  0878               	addwf	(___lldiv@counter),f
  7372  1021  07FD               	goto	l2655
  7373  1022  2823               	line	19
  7374                           	
  7375                           l264:	
  7376  1023                     	line	16
  7377                           	
  7378                           l2655:	
  7379  1023                     	btfss	(___lldiv@divisor+3),(31)&7
  7380  1023  1FF3               	goto	u4601
  7381  1024  2826               	goto	u4600
  7382  1025  2827               u4601:
  7383  1026                     	goto	l2653
  7384  1026  2815               u4600:
  7385  1027                     	goto	l2657
  7386  1027  2829               	
  7387                           l266:	
  7388  1028                     	goto	l2657
  7389  1028  2829               	line	20
  7390                           	
  7391                           l267:	
  7392  1029                     	line	21
  7393                           	
  7394                           l2657:	
  7395  1029                     	movlw	01h
  7396  1029  3001               	movwf	(??___lldiv+0)+0
  7397  102A  00F8               u4615:
  7398  102B                     	clrc
  7399  102B  1003               	rlf	(___lldiv@quotient),f
  7400  102C  0DF9               	rlf	(___lldiv@quotient+1),f
  7401  102D  0DFA               	rlf	(___lldiv@quotient+2),f
  7402  102E  0DFB               	rlf	(___lldiv@quotient+3),f
  7403  102F  0DFC               	decfsz	(??___lldiv+0)+0
  7404  1030  0BF8               	goto	u4615
  7405  1031  282B               	line	22
  7406                           	
  7407                           l2659:	
  7408  1032                     	movf	(___lldiv@divisor+3),w
  7409  1032  0873               	subwf	(___lldiv@dividend+3),w
  7410  1033  0277               	skipz
  7411  1034  1D03               	goto	u4625
  7412  1035  2840               	movf	(___lldiv@divisor+2),w
  7413  1036  0872               	subwf	(___lldiv@dividend+2),w
  7414  1037  0276               	skipz
  7415  1038  1D03               	goto	u4625
  7416  1039  2840               	movf	(___lldiv@divisor+1),w
  7417  103A  0871               	subwf	(___lldiv@dividend+1),w
  7418  103B  0275               	skipz
  7419  103C  1D03               	goto	u4625
  7420  103D  2840               	movf	(___lldiv@divisor),w
  7421  103E  0870               	subwf	(___lldiv@dividend),w
  7422  103F  0274               u4625:
  7423  1040                     	skipc
  7424  1040  1C03               	goto	u4621
  7425  1041  2843               	goto	u4620
  7426  1042  2844               u4621:
  7427  1043                     	goto	l2665
  7428  1043  2854               u4620:
  7429  1044                     	line	23
  7430                           	
  7431                           l2661:	
  7432  1044                     	movf	(___lldiv@divisor),w
  7433  1044  0870               	subwf	(___lldiv@dividend),f
  7434  1045  02F4               	movf	(___lldiv@divisor+1),w
  7435  1046  0871               	skipc
  7436  1047  1C03               	incfsz	(___lldiv@divisor+1),w
  7437  1048  0F71               	subwf	(___lldiv@dividend+1),f
  7438  1049  02F5               	movf	(___lldiv@divisor+2),w
  7439  104A  0872               	skipc
  7440  104B  1C03               	incfsz	(___lldiv@divisor+2),w
  7441  104C  0F72               	subwf	(___lldiv@dividend+2),f
  7442  104D  02F6               	movf	(___lldiv@divisor+3),w
  7443  104E  0873               	skipc
  7444  104F  1C03               	incfsz	(___lldiv@divisor+3),w
  7445  1050  0F73               	subwf	(___lldiv@dividend+3),f
  7446  1051  02F7               	line	24
  7447                           	
  7448                           l2663:	
  7449  1052                     	bsf	(___lldiv@quotient)+(0/8),(0)&7
  7450  1052  1479               	goto	l2665
  7451  1053  2854               	line	25
  7452                           	
  7453                           l268:	
  7454  1054                     	line	26
  7455                           	
  7456                           l2665:	
  7457  1054                     	movlw	01h
  7458  1054  3001               u4635:
  7459  1055                     	clrc
  7460  1055  1003               	rrf	(___lldiv@divisor+3),f
  7461  1056  0CF3               	rrf	(___lldiv@divisor+2),f
  7462  1057  0CF2               	rrf	(___lldiv@divisor+1),f
  7463  1058  0CF1               	rrf	(___lldiv@divisor),f
  7464  1059  0CF0               	addlw	-1
  7465  105A  3EFF               	skipz
  7466  105B  1D03               	goto	u4635
  7467  105C  2855               
  7468                           	line	27
  7469                           	
  7470                           l2667:	
  7471  105D                     	movlw	01h
  7472  105D  3001               	subwf	(___lldiv@counter),f
  7473  105E  02FD               	btfss	status,2
  7474  105F  1D03               	goto	u4641
  7475  1060  2862               	goto	u4640
  7476  1061  2863               u4641:
  7477  1062                     	goto	l2657
  7478  1062  2829               u4640:
  7479  1063                     	goto	l2669
  7480  1063  2865               	
  7481                           l269:	
  7482  1064                     	goto	l2669
  7483  1064  2865               	line	28
  7484                           	
  7485                           l263:	
  7486  1065                     	line	29
  7487                           	
  7488                           l2669:	
  7489  1065                     	movf	(___lldiv@quotient+3),w
  7490  1065  087C               	movwf	(?___lldiv+3)
  7491  1066  00F3               	movf	(___lldiv@quotient+2),w
  7492  1067  087B               	movwf	(?___lldiv+2)
  7493  1068  00F2               	movf	(___lldiv@quotient+1),w
  7494  1069  087A               	movwf	(?___lldiv+1)
  7495  106A  00F1               	movf	(___lldiv@quotient),w
  7496  106B  0879               	movwf	(?___lldiv)
  7497  106C  00F0               
  7498                           	goto	l270
  7499  106D  286E               	
  7500                           l2671:	
  7501  106E                     	line	30
  7502                           	
  7503                           l270:	
  7504  106E                     	return
  7505  106E  0008               	opt stack 0
  7506                           GLOBAL	__end_of___lldiv
  7507                           	__end_of___lldiv:
  7508  106F                     	signat	___lldiv,8316
  7509                           	global	___fltol
  7510                           
  7511 ;; *************** function ___fltol *****************
  7512 ;; Defined at:
  7513 ;;		line 43 in file "C:\Program Files (x86)\Microchip\xc8\v2.00\pic\sources\c90\common\fltol.c"
  7514 ;; Parameters:    Size  Location     Type
  7515 ;;  f1              4   58[BANK0 ] unsigned long 
  7516 ;; Auto vars:     Size  Location     Type
  7517 ;;  exp1            1   68[BANK0 ] unsigned char 
  7518 ;;  sign1           1   67[BANK0 ] unsigned char 
  7519 ;; Return value:  Size  Location     Type
  7520 ;;                  4   58[BANK0 ] long 
  7521 ;; Registers used:
  7522 ;;		wreg, status,2, status,0
  7523 ;; Tracked objects:
  7524 ;;		On entry : 0/0
  7525 ;;		On exit  : 0/0
  7526 ;;		Unchanged: 0/0
  7527 ;; Data sizes:     COMMON   BANK0   BANK1   BANK3   BANK2
  7528 ;;      Params:         0       4       0       0       0
  7529 ;;      Locals:         0       2       0       0       0
  7530 ;;      Temps:          0       5       0       0       0
  7531 ;;      Totals:         0      11       0       0       0
  7532 ;;Total ram usage:       11 bytes
  7533 ;; Hardware stack levels used:    1
  7534 ;; This function calls:
  7535 ;;		Nothing
  7536 ;; This function is called by:
  7537 ;;		_sprintf
  7538 ;; This function uses a non-reentrant model
  7539 ;;
  7540                           psect	text16,local,class=CODE,delta=2,merge=1,group=1
  7541                           	file	"C:\Program Files (x86)\Microchip\xc8\v2.00\pic\sources\c90\common\fltol.c"
  7542                           	line	43
  7543                           global __ptext16
  7544                           __ptext16:	;psect for function ___fltol
  7545  1EA2                     psect	text16
  7546                           	file	"C:\Program Files (x86)\Microchip\xc8\v2.00\pic\sources\c90\common\fltol.c"
  7547                           	line	43
  7548                           	global	__size_of___fltol
  7549                           	__size_of___fltol	equ	__end_of___fltol-___fltol
  7550  009C                     	
  7551                           ___fltol:	
  7552  1EA2                     ;incstack = 0
  7553                           	opt	stack 6
  7554                           ; Regs used in ___fltol: [wreg+status,2+status,0]
  7555                           	line	47
  7556                           	
  7557                           l2719:	
  7558  1EA2                     	bcf	status, 5	;RP0=0, select bank0
  7559  1EA2  1283               	bcf	status, 6	;RP1=0, select bank0
  7560  1EA3  1303               	movf	(___fltol@f1),w
  7561  1EA4  085A               	movwf	(??___fltol+0)+0
  7562  1EA5  00DE               	movf	(___fltol@f1+1),w
  7563  1EA6  085B               	movwf	((??___fltol+0)+0+1)
  7564  1EA7  00DF               	movf	(___fltol@f1+2),w
  7565  1EA8  085C               	movwf	((??___fltol+0)+0+2)
  7566  1EA9  00E0               	movf	(___fltol@f1+3),w
  7567  1EAA  085D               	movwf	((??___fltol+0)+0+3)
  7568  1EAB  00E1               	clrc
  7569  1EAC  1003               	rlf	(??___fltol+0)+2,w
  7570  1EAD  0D60               	rlf	(??___fltol+0)+3,w
  7571  1EAE  0D61               	movwf	(??___fltol+4)+0
  7572  1EAF  00E2               	movf	(??___fltol+4)+0,w
  7573  1EB0  0862               	movwf	(___fltol@exp1)
  7574  1EB1  00E4               	movf	(((___fltol@exp1))),w
  7575  1EB2  0864               	btfss	status,2
  7576  1EB3  1D03               	goto	u4761
  7577  1EB4  2EB6               	goto	u4760
  7578  1EB5  2EB7               u4761:
  7579  1EB6                     	goto	l2725
  7580  1EB6  2EC1               u4760:
  7581  1EB7                     	line	48
  7582                           	
  7583                           l2721:	
  7584  1EB7                     	movlw	high highword(0)
  7585  1EB7  3000               	movwf	(?___fltol+3)
  7586  1EB8  00DD               	movlw	low highword(0)
  7587  1EB9  3000               	movwf	(?___fltol+2)
  7588  1EBA  00DC               	movlw	high(0)
  7589  1EBB  3000               	movwf	(?___fltol+1)
  7590  1EBC  00DB               	movlw	low(0)
  7591  1EBD  3000               	movwf	(?___fltol)
  7592  1EBE  00DA               
  7593                           	goto	l437
  7594  1EBF  2F3D               	
  7595                           l2723:	
  7596  1EC0                     	goto	l437
  7597  1EC0  2F3D               	
  7598                           l436:	
  7599  1EC1                     	line	49
  7600                           	
  7601                           l2725:	
  7602  1EC1                     	movf	(___fltol@f1),w
  7603  1EC1  085A               	movwf	(??___fltol+0)+0
  7604  1EC2  00DE               	movf	(___fltol@f1+1),w
  7605  1EC3  085B               	movwf	((??___fltol+0)+0+1)
  7606  1EC4  00DF               	movf	(___fltol@f1+2),w
  7607  1EC5  085C               	movwf	((??___fltol+0)+0+2)
  7608  1EC6  00E0               	movf	(___fltol@f1+3),w
  7609  1EC7  085D               	movwf	((??___fltol+0)+0+3)
  7610  1EC8  00E1               	movlw	01Fh
  7611  1EC9  301F               u4775:
  7612  1ECA                     	clrc
  7613  1ECA  1003               	rrf	(??___fltol+0)+3,f
  7614  1ECB  0CE1               	rrf	(??___fltol+0)+2,f
  7615  1ECC  0CE0               	rrf	(??___fltol+0)+1,f
  7616  1ECD  0CDF               	rrf	(??___fltol+0)+0,f
  7617  1ECE  0CDE               u4770:
  7618  1ECF                     	addlw	-1
  7619  1ECF  3EFF               	skipz
  7620  1ED0  1D03               	goto	u4775
  7621  1ED1  2ECA               	movf	0+(??___fltol+0)+0,w
  7622  1ED2  085E               	movwf	(??___fltol+4)+0
  7623  1ED3  00E2               	movf	(??___fltol+4)+0,w
  7624  1ED4  0862               	movwf	(___fltol@sign1)
  7625  1ED5  00E3               	line	50
  7626                           	
  7627                           l2727:	
  7628  1ED6                     	bsf	(___fltol@f1)+(23/8),(23)&7
  7629  1ED6  17DC               	line	51
  7630                           	
  7631                           l2729:	
  7632  1ED7                     	movlw	0FFh
  7633  1ED7  30FF               	andwf	(___fltol@f1),f
  7634  1ED8  05DA               	movlw	0FFh
  7635  1ED9  30FF               	andwf	(___fltol@f1+1),f
  7636  1EDA  05DB               	movlw	0FFh
  7637  1EDB  30FF               	andwf	(___fltol@f1+2),f
  7638  1EDC  05DC               	movlw	0
  7639  1EDD  3000               	andwf	(___fltol@f1+3),f
  7640  1EDE  05DD               	line	52
  7641                           	
  7642                           l2731:	
  7643  1EDF                     	movlw	096h
  7644  1EDF  3096               	subwf	(___fltol@exp1),f
  7645  1EE0  02E4               	line	53
  7646                           	
  7647                           l2733:	
  7648  1EE1                     	btfss	(___fltol@exp1),7
  7649  1EE1  1FE4               	goto	u4781
  7650  1EE2  2EE4               	goto	u4780
  7651  1EE3  2EE5               u4781:
  7652  1EE4                     	goto	l2743
  7653  1EE4  2F0A               u4780:
  7654  1EE5                     	line	54
  7655                           	
  7656                           l2735:	
  7657  1EE5                     	movf	(___fltol@exp1),w
  7658  1EE5  0864               	xorlw	80h
  7659  1EE6  3A80               	addlw	-((-23)^80h)
  7660  1EE7  3E97               	skipnc
  7661  1EE8  1803               	goto	u4791
  7662  1EE9  2EEB               	goto	u4790
  7663  1EEA  2EEC               u4791:
  7664  1EEB                     	goto	l2741
  7665  1EEB  2EF7               u4790:
  7666  1EEC                     	line	55
  7667                           	
  7668                           l2737:	
  7669  1EEC                     	movlw	high highword(0)
  7670  1EEC  3000               	movwf	(?___fltol+3)
  7671  1EED  00DD               	movlw	low highword(0)
  7672  1EEE  3000               	movwf	(?___fltol+2)
  7673  1EEF  00DC               	movlw	high(0)
  7674  1EF0  3000               	movwf	(?___fltol+1)
  7675  1EF1  00DB               	movlw	low(0)
  7676  1EF2  3000               	movwf	(?___fltol)
  7677  1EF3  00DA               
  7678                           	goto	l437
  7679  1EF4  2F3D               	
  7680                           l2739:	
  7681  1EF5                     	goto	l437
  7682  1EF5  2F3D               	
  7683                           l439:	
  7684  1EF6                     	goto	l2741
  7685  1EF6  2EF7               	line	56
  7686                           	
  7687                           l440:	
  7688  1EF7                     	line	57
  7689                           	
  7690                           l2741:	
  7691  1EF7                     	movlw	01h
  7692  1EF7  3001               u4805:
  7693  1EF8                     	clrc
  7694  1EF8  1003               	rrf	(___fltol@f1+3),f
  7695  1EF9  0CDD               	rrf	(___fltol@f1+2),f
  7696  1EFA  0CDC               	rrf	(___fltol@f1+1),f
  7697  1EFB  0CDB               	rrf	(___fltol@f1),f
  7698  1EFC  0CDA               	addlw	-1
  7699  1EFD  3EFF               	skipz
  7700  1EFE  1D03               	goto	u4805
  7701  1EFF  2EF8               
  7702                           	line	58
  7703                           	movlw	low(01h)
  7704  1F00  3001               	movwf	(??___fltol+0)+0
  7705  1F01  00DE               	movf	(??___fltol+0)+0,w
  7706  1F02  085E               	addwf	(___fltol@exp1),f
  7707  1F03  07E4               	btfss	status,2
  7708  1F04  1D03               	goto	u4811
  7709  1F05  2F07               	goto	u4810
  7710  1F06  2F08               u4811:
  7711  1F07                     	goto	l2741
  7712  1F07  2EF7               u4810:
  7713  1F08                     	goto	l2751
  7714  1F08  2F2D               	
  7715                           l441:	
  7716  1F09                     	line	59
  7717                           	goto	l2751
  7718  1F09  2F2D               	
  7719                           l438:	
  7720  1F0A                     	line	60
  7721                           	
  7722                           l2743:	
  7723  1F0A                     	movlw	low(020h)
  7724  1F0A  3020               	subwf	(___fltol@exp1),w
  7725  1F0B  0264               	skipc
  7726  1F0C  1C03               	goto	u4821
  7727  1F0D  2F0F               	goto	u4820
  7728  1F0E  2F10               u4821:
  7729  1F0F                     	goto	l444
  7730  1F0F  2F26               u4820:
  7731  1F10                     	line	61
  7732                           	
  7733                           l2745:	
  7734  1F10                     	movlw	high highword(0)
  7735  1F10  3000               	movwf	(?___fltol+3)
  7736  1F11  00DD               	movlw	low highword(0)
  7737  1F12  3000               	movwf	(?___fltol+2)
  7738  1F13  00DC               	movlw	high(0)
  7739  1F14  3000               	movwf	(?___fltol+1)
  7740  1F15  00DB               	movlw	low(0)
  7741  1F16  3000               	movwf	(?___fltol)
  7742  1F17  00DA               
  7743                           	goto	l437
  7744  1F18  2F3D               	
  7745                           l2747:	
  7746  1F19                     	goto	l437
  7747  1F19  2F3D               	
  7748                           l443:	
  7749  1F1A                     	line	62
  7750                           	goto	l444
  7751  1F1A  2F26               	
  7752                           l445:	
  7753  1F1B                     	line	63
  7754                           	
  7755                           l2749:	
  7756  1F1B                     	movlw	01h
  7757  1F1B  3001               	movwf	(??___fltol+0)+0
  7758  1F1C  00DE               u4835:
  7759  1F1D                     	clrc
  7760  1F1D  1003               	rlf	(___fltol@f1),f
  7761  1F1E  0DDA               	rlf	(___fltol@f1+1),f
  7762  1F1F  0DDB               	rlf	(___fltol@f1+2),f
  7763  1F20  0DDC               	rlf	(___fltol@f1+3),f
  7764  1F21  0DDD               	decfsz	(??___fltol+0)+0
  7765  1F22  0BDE               	goto	u4835
  7766  1F23  2F1D               	line	64
  7767                           	movlw	01h
  7768  1F24  3001               	subwf	(___fltol@exp1),f
  7769  1F25  02E4               	line	65
  7770                           	
  7771                           l444:	
  7772  1F26                     	line	62
  7773                           	movf	((___fltol@exp1)),w
  7774  1F26  0864               	btfss	status,2
  7775  1F27  1D03               	goto	u4841
  7776  1F28  2F2A               	goto	u4840
  7777  1F29  2F2B               u4841:
  7778  1F2A                     	goto	l2749
  7779  1F2A  2F1B               u4840:
  7780  1F2B                     	goto	l2751
  7781  1F2B  2F2D               	
  7782                           l446:	
  7783  1F2C                     	goto	l2751
  7784  1F2C  2F2D               	line	66
  7785                           	
  7786                           l442:	
  7787  1F2D                     	line	67
  7788                           	
  7789                           l2751:	
  7790  1F2D                     	movf	((___fltol@sign1)),w
  7791  1F2D  0863               	btfsc	status,2
  7792  1F2E  1903               	goto	u4851
  7793  1F2F  2F31               	goto	u4850
  7794  1F30  2F32               u4851:
  7795  1F31                     	goto	l447
  7796  1F31  2F3D               u4850:
  7797  1F32                     	line	68
  7798                           	
  7799                           l2753:	
  7800  1F32                     	comf	(___fltol@f1),f
  7801  1F32  09DA               	comf	(___fltol@f1+1),f
  7802  1F33  09DB               	comf	(___fltol@f1+2),f
  7803  1F34  09DC               	comf	(___fltol@f1+3),f
  7804  1F35  09DD               	incf	(___fltol@f1),f
  7805  1F36  0ADA               	skipnz
  7806  1F37  1903               	incf	(___fltol@f1+1),f
  7807  1F38  0ADB               	skipnz
  7808  1F39  1903               	incf	(___fltol@f1+2),f
  7809  1F3A  0ADC               	skipnz
  7810  1F3B  1903               	incf	(___fltol@f1+3),f
  7811  1F3C  0ADD               	
  7812                           l447:	
  7813  1F3D                     	line	69
  7814                           	line	70
  7815                           	
  7816                           l437:	
  7817  1F3D                     	return
  7818  1F3D  0008               	opt stack 0
  7819                           GLOBAL	__end_of___fltol
  7820                           	__end_of___fltol:
  7821  1F3E                     	signat	___fltol,4220
  7822                           	global	___flsub
  7823                           
  7824 ;; *************** function ___flsub *****************
  7825 ;; Defined at:
  7826 ;;		line 242 in file "C:\Program Files (x86)\Microchip\xc8\v2.00\pic\sources\c90\common\sprcadd.c"
  7827 ;; Parameters:    Size  Location     Type
  7828 ;;  a               4    4[BANK1 ] long 
  7829 ;;  b               4    8[BANK1 ] long 
  7830 ;; Auto vars:     Size  Location     Type
  7831 ;;		None
  7832 ;; Return value:  Size  Location     Type
  7833 ;;                  4    4[BANK1 ] long 
  7834 ;; Registers used:
  7835 ;;		wreg, status,2, status,0, btemp+1, pclath, cstack
  7836 ;; Tracked objects:
  7837 ;;		On entry : 0/0
  7838 ;;		On exit  : 0/0
  7839 ;;		Unchanged: 0/0
  7840 ;; Data sizes:     COMMON   BANK0   BANK1   BANK3   BANK2
  7841 ;;      Params:         0       0       8       0       0
  7842 ;;      Locals:         0       0       0       0       0
  7843 ;;      Temps:          0       0       0       0       0
  7844 ;;      Totals:         0       0       8       0       0
  7845 ;;Total ram usage:        8 bytes
  7846 ;; Hardware stack levels used:    1
  7847 ;; Hardware stack levels required when called:    1
  7848 ;; This function calls:
  7849 ;;		___fladd
  7850 ;; This function is called by:
  7851 ;;		_sprintf
  7852 ;; This function uses a non-reentrant model
  7853 ;;
  7854                           psect	text17,local,class=CODE,delta=2,merge=1,group=1
  7855                           	file	"C:\Program Files (x86)\Microchip\xc8\v2.00\pic\sources\c90\common\sprcadd.c"
  7856                           	line	242
  7857                           global __ptext17
  7858                           __ptext17:	;psect for function ___flsub
  7859  0807                     psect	text17
  7860                           	file	"C:\Program Files (x86)\Microchip\xc8\v2.00\pic\sources\c90\common\sprcadd.c"
  7861                           	line	242
  7862                           	global	__size_of___flsub
  7863                           	__size_of___flsub	equ	__end_of___flsub-___flsub
  7864  0051                     	
  7865                           ___flsub:	
  7866  0807                     ;incstack = 0
  7867                           	opt	stack 5
  7868                           ; Regs used in ___flsub: [wreg+status,2+status,0+btemp+1+pclath+cstack]
  7869                           	line	248
  7870                           	
  7871                           l2775:	
  7872  0807                     	movlw	080h
  7873  0807  3080               	bsf	status, 5	;RP0=1, select bank1
  7874  0808  1683               	bcf	status, 6	;RP1=0, select bank1
  7875  0809  1303               	xorwf	(___flsub@a+3)^080h,f
  7876  080A  06A7               	line	249
  7877                           	
  7878                           l2777:	
  7879  080B                     	movf	(___flsub@b+3)^080h,w
  7880  080B  082B               	bcf	status, 5	;RP0=0, select bank0
  7881  080C  1283               	bcf	status, 6	;RP1=0, select bank0
  7882  080D  1303               	movwf	(___fladd@b+3)
  7883  080E  00DE               	bsf	status, 5	;RP0=1, select bank1
  7884  080F  1683               	bcf	status, 6	;RP1=0, select bank1
  7885  0810  1303               	movf	(___flsub@b+2)^080h,w
  7886  0811  082A               	bcf	status, 5	;RP0=0, select bank0
  7887  0812  1283               	bcf	status, 6	;RP1=0, select bank0
  7888  0813  1303               	movwf	(___fladd@b+2)
  7889  0814  00DD               	bsf	status, 5	;RP0=1, select bank1
  7890  0815  1683               	bcf	status, 6	;RP1=0, select bank1
  7891  0816  1303               	movf	(___flsub@b+1)^080h,w
  7892  0817  0829               	bcf	status, 5	;RP0=0, select bank0
  7893  0818  1283               	bcf	status, 6	;RP1=0, select bank0
  7894  0819  1303               	movwf	(___fladd@b+1)
  7895  081A  00DC               	bsf	status, 5	;RP0=1, select bank1
  7896  081B  1683               	bcf	status, 6	;RP1=0, select bank1
  7897  081C  1303               	movf	(___flsub@b)^080h,w
  7898  081D  0828               	bcf	status, 5	;RP0=0, select bank0
  7899  081E  1283               	bcf	status, 6	;RP1=0, select bank0
  7900  081F  1303               	movwf	(___fladd@b)
  7901  0820  00DB               
  7902                           	bsf	status, 5	;RP0=1, select bank1
  7903  0821  1683               	bcf	status, 6	;RP1=0, select bank1
  7904  0822  1303               	movf	(___flsub@a+3)^080h,w
  7905  0823  0827               	bcf	status, 5	;RP0=0, select bank0
  7906  0824  1283               	bcf	status, 6	;RP1=0, select bank0
  7907  0825  1303               	movwf	(___fladd@a+3)
  7908  0826  00E2               	bsf	status, 5	;RP0=1, select bank1
  7909  0827  1683               	bcf	status, 6	;RP1=0, select bank1
  7910  0828  1303               	movf	(___flsub@a+2)^080h,w
  7911  0829  0826               	bcf	status, 5	;RP0=0, select bank0
  7912  082A  1283               	bcf	status, 6	;RP1=0, select bank0
  7913  082B  1303               	movwf	(___fladd@a+2)
  7914  082C  00E1               	bsf	status, 5	;RP0=1, select bank1
  7915  082D  1683               	bcf	status, 6	;RP1=0, select bank1
  7916  082E  1303               	movf	(___flsub@a+1)^080h,w
  7917  082F  0825               	bcf	status, 5	;RP0=0, select bank0
  7918  0830  1283               	bcf	status, 6	;RP1=0, select bank0
  7919  0831  1303               	movwf	(___fladd@a+1)
  7920  0832  00E0               	bsf	status, 5	;RP0=1, select bank1
  7921  0833  1683               	bcf	status, 6	;RP1=0, select bank1
  7922  0834  1303               	movf	(___flsub@a)^080h,w
  7923  0835  0824               	bcf	status, 5	;RP0=0, select bank0
  7924  0836  1283               	bcf	status, 6	;RP1=0, select bank0
  7925  0837  1303               	movwf	(___fladd@a)
  7926  0838  00DF               
  7927                           	fcall	___fladd
  7928  0839  120A  158A  211B  120A  158A  	bcf	status, 5	;RP0=0, select bank0
  7929  083E  1283               	bcf	status, 6	;RP1=0, select bank0
  7930  083F  1303               	movf	(3+(?___fladd)),w
  7931  0840  085E               	bsf	status, 5	;RP0=1, select bank1
  7932  0841  1683               	bcf	status, 6	;RP1=0, select bank1
  7933  0842  1303               	movwf	(?___flsub+3)^080h
  7934  0843  00A7               	bcf	status, 5	;RP0=0, select bank0
  7935  0844  1283               	bcf	status, 6	;RP1=0, select bank0
  7936  0845  1303               	movf	(2+(?___fladd)),w
  7937  0846  085D               	bsf	status, 5	;RP0=1, select bank1
  7938  0847  1683               	bcf	status, 6	;RP1=0, select bank1
  7939  0848  1303               	movwf	(?___flsub+2)^080h
  7940  0849  00A6               	bcf	status, 5	;RP0=0, select bank0
  7941  084A  1283               	bcf	status, 6	;RP1=0, select bank0
  7942  084B  1303               	movf	(1+(?___fladd)),w
  7943  084C  085C               	bsf	status, 5	;RP0=1, select bank1
  7944  084D  1683               	bcf	status, 6	;RP1=0, select bank1
  7945  084E  1303               	movwf	(?___flsub+1)^080h
  7946  084F  00A5               	bcf	status, 5	;RP0=0, select bank0
  7947  0850  1283               	bcf	status, 6	;RP1=0, select bank0
  7948  0851  1303               	movf	(0+(?___fladd)),w
  7949  0852  085B               	bsf	status, 5	;RP0=1, select bank1
  7950  0853  1683               	bcf	status, 6	;RP1=0, select bank1
  7951  0854  1303               	movwf	(?___flsub)^080h
  7952  0855  00A4               
  7953                           	goto	l607
  7954  0856  2857               	
  7955                           l2779:	
  7956  0857                     	line	250
  7957                           	
  7958                           l607:	
  7959  0857                     	return
  7960  0857  0008               	opt stack 0
  7961                           GLOBAL	__end_of___flsub
  7962                           	__end_of___flsub:
  7963  0858                     	signat	___flsub,8316
  7964                           	global	___fladd
  7965                           
  7966 ;; *************** function ___fladd *****************
  7967 ;; Defined at:
  7968 ;;		line 10 in file "C:\Program Files (x86)\Microchip\xc8\v2.00\pic\sources\c90\common\sprcadd.c"
  7969 ;; Parameters:    Size  Location     Type
  7970 ;;  b               4   59[BANK0 ] long 
  7971 ;;  a               4   63[BANK0 ] long 
  7972 ;; Auto vars:     Size  Location     Type
  7973 ;;  grs             1    3[BANK1 ] unsigned char 
  7974 ;;  bexp            1    2[BANK1 ] unsigned char 
  7975 ;;  aexp            1    1[BANK1 ] unsigned char 
  7976 ;;  signs           1    0[BANK1 ] unsigned char 
  7977 ;; Return value:  Size  Location     Type
  7978 ;;                  4   59[BANK0 ] unsigned char 
  7979 ;; Registers used:
  7980 ;;		wreg, status,2, status,0, btemp+1
  7981 ;; Tracked objects:
  7982 ;;		On entry : 0/0
  7983 ;;		On exit  : 0/0
  7984 ;;		Unchanged: 0/0
  7985 ;; Data sizes:     COMMON   BANK0   BANK1   BANK3   BANK2
  7986 ;;      Params:         0       8       0       0       0
  7987 ;;      Locals:         0       0       4       0       0
  7988 ;;      Temps:          0      12       0       0       0
  7989 ;;      Totals:         0      20       4       0       0
  7990 ;;Total ram usage:       24 bytes
  7991 ;; Hardware stack levels used:    1
  7992 ;; This function calls:
  7993 ;;		Nothing
  7994 ;; This function is called by:
  7995 ;;		_sprintf
  7996 ;;		___flsub
  7997 ;; This function uses a non-reentrant model
  7998 ;;
  7999                           psect	text18,local,class=CODE,delta=2,merge=1,group=1
  8000                           	line	10
  8001                           global __ptext18
  8002                           __ptext18:	;psect for function ___fladd
  8003  091B                     psect	text18
  8004                           	file	"C:\Program Files (x86)\Microchip\xc8\v2.00\pic\sources\c90\common\sprcadd.c"
  8005                           	line	10
  8006                           	global	__size_of___fladd
  8007                           	__size_of___fladd	equ	__end_of___fladd-___fladd
  8008  0370                     	
  8009                           ___fladd:	
  8010  091B                     ;incstack = 0
  8011                           	opt	stack 5
  8012                           ; Regs used in ___fladd: [wreg+status,2+status,0+btemp+1]
  8013                           	line	21
  8014                           	
  8015                           l2137:	
  8016  091B                     	bcf	status, 5	;RP0=0, select bank0
  8017  091B  1283               	bcf	status, 6	;RP1=0, select bank0
  8018  091C  1303               	movf	0+(___fladd@b)+03h,w
  8019  091D  085E               	andlw	080h
  8020  091E  3980               	movwf	(??___fladd+0)+0
  8021  091F  00E3               	movf	(??___fladd+0)+0,w
  8022  0920  0863               	bsf	status, 5	;RP0=1, select bank1
  8023  0921  1683               	bcf	status, 6	;RP1=0, select bank1
  8024  0922  1303               	movwf	(___fladd@signs)^080h
  8025  0923  00A0               	line	22
  8026                           	
  8027                           l2139:	
  8028  0924                     	bcf	status, 5	;RP0=0, select bank0
  8029  0924  1283               	bcf	status, 6	;RP1=0, select bank0
  8030  0925  1303               	movf	0+(___fladd@b)+03h,w
  8031  0926  085E               	movwf	(??___fladd+0)+0
  8032  0927  00E3               	addwf	(??___fladd+0)+0,w
  8033  0928  0763               	movwf	(??___fladd+1)+0
  8034  0929  00E4               	movf	(??___fladd+1)+0,w
  8035  092A  0864               	bsf	status, 5	;RP0=1, select bank1
  8036  092B  1683               	bcf	status, 6	;RP1=0, select bank1
  8037  092C  1303               	movwf	(___fladd@bexp)^080h
  8038  092D  00A2               	line	23
  8039                           	
  8040                           l2141:	
  8041  092E                     	bcf	status, 5	;RP0=0, select bank0
  8042  092E  1283               	bcf	status, 6	;RP1=0, select bank0
  8043  092F  1303               	btfss	0+(___fladd@b)+02h,(7)&7
  8044  0930  1FDD               	goto	u3191
  8045  0931  2933               	goto	u3190
  8046  0932  2934               u3191:
  8047  0933                     	goto	l2145
  8048  0933  2938               u3190:
  8049  0934                     	line	24
  8050                           	
  8051                           l2143:	
  8052  0934                     	bsf	status, 5	;RP0=1, select bank1
  8053  0934  1683               	bcf	status, 6	;RP1=0, select bank1
  8054  0935  1303               	bsf	(___fladd@bexp)^080h+(0/8),(0)&7
  8055  0936  1422               	goto	l2145
  8056  0937  2938               	line	25
  8057                           	
  8058                           l553:	
  8059  0938                     	line	28
  8060                           	
  8061                           l2145:	
  8062  0938                     	bsf	status, 5	;RP0=1, select bank1
  8063  0938  1683               	bcf	status, 6	;RP1=0, select bank1
  8064  0939  1303               	movf	((___fladd@bexp)^080h),w
  8065  093A  0822               	btfsc	status,2
  8066  093B  1903               	goto	u3201
  8067  093C  293E               	goto	u3200
  8068  093D  293F               u3201:
  8069  093E                     	goto	l2155
  8070  093E  2953               u3200:
  8071  093F                     	line	30
  8072                           	
  8073                           l2147:	
  8074  093F                     		incf	((___fladd@bexp)^080h),w
  8075  093F  0A22               	btfss	status,2
  8076  0940  1D03               	goto	u3211
  8077  0941  2943               	goto	u3210
  8078  0942  2944               u3211:
  8079  0943                     	goto	l2151
  8080  0943  294F               u3210:
  8081  0944                     	line	32
  8082                           	
  8083                           l2149:	
  8084  0944                     	movlw	0x0
  8085  0944  3000               	bcf	status, 5	;RP0=0, select bank0
  8086  0945  1283               	bcf	status, 6	;RP1=0, select bank0
  8087  0946  1303               	movwf	(___fladd@b+3)
  8088  0947  00DE               	movlw	0x0
  8089  0948  3000               	movwf	(___fladd@b+2)
  8090  0949  00DD               	movlw	0x0
  8091  094A  3000               	movwf	(___fladd@b+1)
  8092  094B  00DC               	movlw	0x0
  8093  094C  3000               	movwf	(___fladd@b)
  8094  094D  00DB               
  8095                           	goto	l2151
  8096  094E  294F               	line	33
  8097                           	
  8098                           l555:	
  8099  094F                     	line	35
  8100                           	
  8101                           l2151:	
  8102  094F                     	bcf	status, 5	;RP0=0, select bank0
  8103  094F  1283               	bsf	(___fladd@b)+(23/8),(23)&7
  8104  0950  17DD               	line	37
  8105                           	
  8106                           l2153:	
  8107  0951                     	clrf	0+(___fladd@b)+03h
  8108  0951  01DE               	line	38
  8109                           	goto	l2157
  8110  0952  295D               	line	39
  8111                           	
  8112                           l554:	
  8113  0953                     	line	41
  8114                           	
  8115                           l2155:	
  8116  0953                     	movlw	0x0
  8117  0953  3000               	bcf	status, 5	;RP0=0, select bank0
  8118  0954  1283               	movwf	(___fladd@b+3)
  8119  0955  00DE               	movlw	0x0
  8120  0956  3000               	movwf	(___fladd@b+2)
  8121  0957  00DD               	movlw	0x0
  8122  0958  3000               	movwf	(___fladd@b+1)
  8123  0959  00DC               	movlw	0x0
  8124  095A  3000               	movwf	(___fladd@b)
  8125  095B  00DB               
  8126                           	goto	l2157
  8127  095C  295D               	line	42
  8128                           	
  8129                           l556:	
  8130  095D                     	line	44
  8131                           	
  8132                           l2157:	
  8133  095D                     	movf	0+(___fladd@a)+03h,w
  8134  095D  0862               	andlw	080h
  8135  095E  3980               	movwf	(??___fladd+0)+0
  8136  095F  00E3               	movf	(??___fladd+0)+0,w
  8137  0960  0863               	bsf	status, 5	;RP0=1, select bank1
  8138  0961  1683               	bcf	status, 6	;RP1=0, select bank1
  8139  0962  1303               	movwf	(___fladd@aexp)^080h
  8140  0963  00A1               	line	46
  8141                           	
  8142                           l2159:	
  8143  0964                     	movf	(___fladd@aexp)^080h,w
  8144  0964  0821               	xorwf	(___fladd@signs)^080h,w
  8145  0965  0620               	skipnz
  8146  0966  1903               	goto	u3221
  8147  0967  2969               	goto	u3220
  8148  0968  296A               u3221:
  8149  0969                     	goto	l2163
  8150  0969  296C               u3220:
  8151  096A                     	line	47
  8152                           	
  8153                           l2161:	
  8154  096A                     	bsf	(___fladd@signs)^080h+(6/8),(6)&7
  8155  096A  1720               	goto	l2163
  8156  096B  296C               	line	48
  8157                           	
  8158                           l557:	
  8159  096C                     	line	49
  8160                           	
  8161                           l2163:	
  8162  096C                     	bcf	status, 5	;RP0=0, select bank0
  8163  096C  1283               	bcf	status, 6	;RP1=0, select bank0
  8164  096D  1303               	movf	0+(___fladd@a)+03h,w
  8165  096E  0862               	movwf	(??___fladd+0)+0
  8166  096F  00E3               	addwf	(??___fladd+0)+0,w
  8167  0970  0763               	movwf	(??___fladd+1)+0
  8168  0971  00E4               	movf	(??___fladd+1)+0,w
  8169  0972  0864               	bsf	status, 5	;RP0=1, select bank1
  8170  0973  1683               	bcf	status, 6	;RP1=0, select bank1
  8171  0974  1303               	movwf	(___fladd@aexp)^080h
  8172  0975  00A1               	line	50
  8173                           	
  8174                           l2165:	
  8175  0976                     	bcf	status, 5	;RP0=0, select bank0
  8176  0976  1283               	bcf	status, 6	;RP1=0, select bank0
  8177  0977  1303               	btfss	0+(___fladd@a)+02h,(7)&7
  8178  0978  1FE1               	goto	u3231
  8179  0979  297B               	goto	u3230
  8180  097A  297C               u3231:
  8181  097B                     	goto	l2169
  8182  097B  2980               u3230:
  8183  097C                     	line	51
  8184                           	
  8185                           l2167:	
  8186  097C                     	bsf	status, 5	;RP0=1, select bank1
  8187  097C  1683               	bcf	status, 6	;RP1=0, select bank1
  8188  097D  1303               	bsf	(___fladd@aexp)^080h+(0/8),(0)&7
  8189  097E  1421               	goto	l2169
  8190  097F  2980               	line	52
  8191                           	
  8192                           l558:	
  8193  0980                     	line	55
  8194                           	
  8195                           l2169:	
  8196  0980                     	bsf	status, 5	;RP0=1, select bank1
  8197  0980  1683               	bcf	status, 6	;RP1=0, select bank1
  8198  0981  1303               	movf	((___fladd@aexp)^080h),w
  8199  0982  0821               	btfsc	status,2
  8200  0983  1903               	goto	u3241
  8201  0984  2986               	goto	u3240
  8202  0985  2987               u3241:
  8203  0986                     	goto	l2179
  8204  0986  299B               u3240:
  8205  0987                     	line	57
  8206                           	
  8207                           l2171:	
  8208  0987                     		incf	((___fladd@aexp)^080h),w
  8209  0987  0A21               	btfss	status,2
  8210  0988  1D03               	goto	u3251
  8211  0989  298B               	goto	u3250
  8212  098A  298C               u3251:
  8213  098B                     	goto	l2175
  8214  098B  2997               u3250:
  8215  098C                     	line	59
  8216                           	
  8217                           l2173:	
  8218  098C                     	movlw	0x0
  8219  098C  3000               	bcf	status, 5	;RP0=0, select bank0
  8220  098D  1283               	bcf	status, 6	;RP1=0, select bank0
  8221  098E  1303               	movwf	(___fladd@a+3)
  8222  098F  00E2               	movlw	0x0
  8223  0990  3000               	movwf	(___fladd@a+2)
  8224  0991  00E1               	movlw	0x0
  8225  0992  3000               	movwf	(___fladd@a+1)
  8226  0993  00E0               	movlw	0x0
  8227  0994  3000               	movwf	(___fladd@a)
  8228  0995  00DF               
  8229                           	goto	l2175
  8230  0996  2997               	line	60
  8231                           	
  8232                           l560:	
  8233  0997                     	line	62
  8234                           	
  8235                           l2175:	
  8236  0997                     	bcf	status, 5	;RP0=0, select bank0
  8237  0997  1283               	bsf	(___fladd@a)+(23/8),(23)&7
  8238  0998  17E1               	line	64
  8239                           	
  8240                           l2177:	
  8241  0999                     	clrf	0+(___fladd@a)+03h
  8242  0999  01E2               	line	65
  8243                           	goto	l561
  8244  099A  29A4               	line	66
  8245                           	
  8246                           l559:	
  8247  099B                     	line	68
  8248                           	
  8249                           l2179:	
  8250  099B                     	movlw	0x0
  8251  099B  3000               	bcf	status, 5	;RP0=0, select bank0
  8252  099C  1283               	movwf	(___fladd@a+3)
  8253  099D  00E2               	movlw	0x0
  8254  099E  3000               	movwf	(___fladd@a+2)
  8255  099F  00E1               	movlw	0x0
  8256  09A0  3000               	movwf	(___fladd@a+1)
  8257  09A1  00E0               	movlw	0x0
  8258  09A2  3000               	movwf	(___fladd@a)
  8259  09A3  00DF               
  8260                           	line	69
  8261                           	
  8262                           l561:	
  8263  09A4                     	line	75
  8264                           	bsf	status, 5	;RP0=1, select bank1
  8265  09A4  1683               	bcf	status, 6	;RP1=0, select bank1
  8266  09A5  1303               	movf	(___fladd@bexp)^080h,w
  8267  09A6  0822               	subwf	(___fladd@aexp)^080h,w
  8268  09A7  0221               	skipnc
  8269  09A8  1803               	goto	u3261
  8270  09A9  29AB               	goto	u3260
  8271  09AA  29AC               u3261:
  8272  09AB                     	goto	l2215
  8273  09AB  2A24               u3260:
  8274  09AC                     	line	77
  8275                           	
  8276                           l2181:	
  8277  09AC                     	btfss	(___fladd@signs)^080h,(6)&7
  8278  09AC  1F20               	goto	u3271
  8279  09AD  29AF               	goto	u3270
  8280  09AE  29B0               u3271:
  8281  09AF                     	goto	l2185
  8282  09AF  29B9               u3270:
  8283  09B0                     	line	78
  8284                           	
  8285                           l2183:	
  8286  09B0                     	movlw	low(080h)
  8287  09B0  3080               	bcf	status, 5	;RP0=0, select bank0
  8288  09B1  1283               	bcf	status, 6	;RP1=0, select bank0
  8289  09B2  1303               	movwf	(??___fladd+0)+0
  8290  09B3  00E3               	movf	(??___fladd+0)+0,w
  8291  09B4  0863               	bsf	status, 5	;RP0=1, select bank1
  8292  09B5  1683               	bcf	status, 6	;RP1=0, select bank1
  8293  09B6  1303               	xorwf	(___fladd@signs)^080h,f
  8294  09B7  06A0               	goto	l2185
  8295  09B8  29B9               	line	79
  8296                           	
  8297                           l563:	
  8298  09B9                     	line	81
  8299                           	
  8300                           l2185:	
  8301  09B9                     	movf	(___fladd@bexp)^080h,w
  8302  09B9  0822               	bcf	status, 5	;RP0=0, select bank0
  8303  09BA  1283               	bcf	status, 6	;RP1=0, select bank0
  8304  09BB  1303               	movwf	(??___fladd+0)+0
  8305  09BC  00E3               	movf	(??___fladd+0)+0,w
  8306  09BD  0863               	bsf	status, 5	;RP0=1, select bank1
  8307  09BE  1683               	bcf	status, 6	;RP1=0, select bank1
  8308  09BF  1303               	movwf	(___fladd@grs)^080h
  8309  09C0  00A3               	line	82
  8310                           	
  8311                           l2187:	
  8312  09C1                     	movf	(___fladd@aexp)^080h,w
  8313  09C1  0821               	bcf	status, 5	;RP0=0, select bank0
  8314  09C2  1283               	bcf	status, 6	;RP1=0, select bank0
  8315  09C3  1303               	movwf	(??___fladd+0)+0
  8316  09C4  00E3               	movf	(??___fladd+0)+0,w
  8317  09C5  0863               	bsf	status, 5	;RP0=1, select bank1
  8318  09C6  1683               	bcf	status, 6	;RP1=0, select bank1
  8319  09C7  1303               	movwf	(___fladd@bexp)^080h
  8320  09C8  00A2               	line	83
  8321                           	
  8322                           l2189:	
  8323  09C9                     	movf	(___fladd@grs)^080h,w
  8324  09C9  0823               	bcf	status, 5	;RP0=0, select bank0
  8325  09CA  1283               	bcf	status, 6	;RP1=0, select bank0
  8326  09CB  1303               	movwf	(??___fladd+0)+0
  8327  09CC  00E3               	movf	(??___fladd+0)+0,w
  8328  09CD  0863               	bsf	status, 5	;RP0=1, select bank1
  8329  09CE  1683               	bcf	status, 6	;RP1=0, select bank1
  8330  09CF  1303               	movwf	(___fladd@aexp)^080h
  8331  09D0  00A1               	line	84
  8332                           	
  8333                           l2191:	
  8334  09D1                     	bcf	status, 5	;RP0=0, select bank0
  8335  09D1  1283               	bcf	status, 6	;RP1=0, select bank0
  8336  09D2  1303               	movf	(___fladd@b),w
  8337  09D3  085B               	movwf	(??___fladd+0)+0
  8338  09D4  00E3               	movf	(??___fladd+0)+0,w
  8339  09D5  0863               	bsf	status, 5	;RP0=1, select bank1
  8340  09D6  1683               	bcf	status, 6	;RP1=0, select bank1
  8341  09D7  1303               	movwf	(___fladd@grs)^080h
  8342  09D8  00A3               	line	85
  8343                           	
  8344                           l2193:	
  8345  09D9                     	bcf	status, 5	;RP0=0, select bank0
  8346  09D9  1283               	bcf	status, 6	;RP1=0, select bank0
  8347  09DA  1303               	movf	(___fladd@a),w
  8348  09DB  085F               	movwf	(??___fladd+0)+0
  8349  09DC  00E3               	movf	(??___fladd+0)+0,w
  8350  09DD  0863               	movwf	(___fladd@b)
  8351  09DE  00DB               	line	86
  8352                           	
  8353                           l2195:	
  8354  09DF                     	bsf	status, 5	;RP0=1, select bank1
  8355  09DF  1683               	bcf	status, 6	;RP1=0, select bank1
  8356  09E0  1303               	movf	(___fladd@grs)^080h,w
  8357  09E1  0823               	bcf	status, 5	;RP0=0, select bank0
  8358  09E2  1283               	bcf	status, 6	;RP1=0, select bank0
  8359  09E3  1303               	movwf	(??___fladd+0)+0
  8360  09E4  00E3               	movf	(??___fladd+0)+0,w
  8361  09E5  0863               	movwf	(___fladd@a)
  8362  09E6  00DF               	line	87
  8363                           	
  8364                           l2197:	
  8365  09E7                     	movf	0+(___fladd@b)+01h,w
  8366  09E7  085C               	movwf	(??___fladd+0)+0
  8367  09E8  00E3               	movf	(??___fladd+0)+0,w
  8368  09E9  0863               	bsf	status, 5	;RP0=1, select bank1
  8369  09EA  1683               	bcf	status, 6	;RP1=0, select bank1
  8370  09EB  1303               	movwf	(___fladd@grs)^080h
  8371  09EC  00A3               	line	88
  8372                           	
  8373                           l2199:	
  8374  09ED                     	bcf	status, 5	;RP0=0, select bank0
  8375  09ED  1283               	bcf	status, 6	;RP1=0, select bank0
  8376  09EE  1303               	movf	0+(___fladd@a)+01h,w
  8377  09EF  0860               	movwf	(??___fladd+0)+0
  8378  09F0  00E3               	movf	(??___fladd+0)+0,w
  8379  09F1  0863               	movwf	0+(___fladd@b)+01h
  8380  09F2  00DC               	line	89
  8381                           	
  8382                           l2201:	
  8383  09F3                     	bsf	status, 5	;RP0=1, select bank1
  8384  09F3  1683               	bcf	status, 6	;RP1=0, select bank1
  8385  09F4  1303               	movf	(___fladd@grs)^080h,w
  8386  09F5  0823               	bcf	status, 5	;RP0=0, select bank0
  8387  09F6  1283               	bcf	status, 6	;RP1=0, select bank0
  8388  09F7  1303               	movwf	(??___fladd+0)+0
  8389  09F8  00E3               	movf	(??___fladd+0)+0,w
  8390  09F9  0863               	movwf	0+(___fladd@a)+01h
  8391  09FA  00E0               	line	90
  8392                           	
  8393                           l2203:	
  8394  09FB                     	movf	0+(___fladd@b)+02h,w
  8395  09FB  085D               	movwf	(??___fladd+0)+0
  8396  09FC  00E3               	movf	(??___fladd+0)+0,w
  8397  09FD  0863               	bsf	status, 5	;RP0=1, select bank1
  8398  09FE  1683               	bcf	status, 6	;RP1=0, select bank1
  8399  09FF  1303               	movwf	(___fladd@grs)^080h
  8400  0A00  00A3               	line	91
  8401                           	
  8402                           l2205:	
  8403  0A01                     	bcf	status, 5	;RP0=0, select bank0
  8404  0A01  1283               	bcf	status, 6	;RP1=0, select bank0
  8405  0A02  1303               	movf	0+(___fladd@a)+02h,w
  8406  0A03  0861               	movwf	(??___fladd+0)+0
  8407  0A04  00E3               	movf	(??___fladd+0)+0,w
  8408  0A05  0863               	movwf	0+(___fladd@b)+02h
  8409  0A06  00DD               	line	92
  8410                           	
  8411                           l2207:	
  8412  0A07                     	bsf	status, 5	;RP0=1, select bank1
  8413  0A07  1683               	bcf	status, 6	;RP1=0, select bank1
  8414  0A08  1303               	movf	(___fladd@grs)^080h,w
  8415  0A09  0823               	bcf	status, 5	;RP0=0, select bank0
  8416  0A0A  1283               	bcf	status, 6	;RP1=0, select bank0
  8417  0A0B  1303               	movwf	(??___fladd+0)+0
  8418  0A0C  00E3               	movf	(??___fladd+0)+0,w
  8419  0A0D  0863               	movwf	0+(___fladd@a)+02h
  8420  0A0E  00E1               	line	93
  8421                           	
  8422                           l2209:	
  8423  0A0F                     	movf	0+(___fladd@b)+03h,w
  8424  0A0F  085E               	movwf	(??___fladd+0)+0
  8425  0A10  00E3               	movf	(??___fladd+0)+0,w
  8426  0A11  0863               	bsf	status, 5	;RP0=1, select bank1
  8427  0A12  1683               	bcf	status, 6	;RP1=0, select bank1
  8428  0A13  1303               	movwf	(___fladd@grs)^080h
  8429  0A14  00A3               	line	94
  8430                           	
  8431                           l2211:	
  8432  0A15                     	bcf	status, 5	;RP0=0, select bank0
  8433  0A15  1283               	bcf	status, 6	;RP1=0, select bank0
  8434  0A16  1303               	movf	0+(___fladd@a)+03h,w
  8435  0A17  0862               	movwf	(??___fladd+0)+0
  8436  0A18  00E3               	movf	(??___fladd+0)+0,w
  8437  0A19  0863               	movwf	0+(___fladd@b)+03h
  8438  0A1A  00DE               	line	95
  8439                           	
  8440                           l2213:	
  8441  0A1B                     	bsf	status, 5	;RP0=1, select bank1
  8442  0A1B  1683               	bcf	status, 6	;RP1=0, select bank1
  8443  0A1C  1303               	movf	(___fladd@grs)^080h,w
  8444  0A1D  0823               	bcf	status, 5	;RP0=0, select bank0
  8445  0A1E  1283               	bcf	status, 6	;RP1=0, select bank0
  8446  0A1F  1303               	movwf	(??___fladd+0)+0
  8447  0A20  00E3               	movf	(??___fladd+0)+0,w
  8448  0A21  0863               	movwf	0+(___fladd@a)+03h
  8449  0A22  00E2               	goto	l2215
  8450  0A23  2A24               	line	96
  8451                           	
  8452                           l562:	
  8453  0A24                     	line	98
  8454                           	
  8455                           l2215:	
  8456  0A24                     	bsf	status, 5	;RP0=1, select bank1
  8457  0A24  1683               	bcf	status, 6	;RP1=0, select bank1
  8458  0A25  1303               	clrf	(___fladd@grs)^080h
  8459  0A26  01A3               	line	100
  8460                           	
  8461                           l2217:	
  8462  0A27                     	movf	(___fladd@bexp)^080h,w
  8463  0A27  0822               	bcf	status, 5	;RP0=0, select bank0
  8464  0A28  1283               	bcf	status, 6	;RP1=0, select bank0
  8465  0A29  1303               	movwf	(??___fladd+0)+0
  8466  0A2A  00E3               	clrf	(??___fladd+0)+0+1
  8467  0A2B  01E4               	comf	(??___fladd+0)+0,f
  8468  0A2C  09E3               	comf	(??___fladd+0)+1,f
  8469  0A2D  09E4               	incf	(??___fladd+0)+0,f
  8470  0A2E  0AE3               	skipnz
  8471  0A2F  1903               	incf	(??___fladd+0)+1,f
  8472  0A30  0AE4               	bsf	status, 5	;RP0=1, select bank1
  8473  0A31  1683               	bcf	status, 6	;RP1=0, select bank1
  8474  0A32  1303               	movf	(___fladd@aexp)^080h,w
  8475  0A33  0821               	bcf	status, 5	;RP0=0, select bank0
  8476  0A34  1283               	bcf	status, 6	;RP1=0, select bank0
  8477  0A35  1303               	addwf	0+(??___fladd+0)+0,w
  8478  0A36  0763               	movwf	(??___fladd+2)+0
  8479  0A37  00E5               	movf	1+(??___fladd+0)+0,w
  8480  0A38  0864               	skipnc
  8481  0A39  1803               	incf	1+(??___fladd+0)+0,w
  8482  0A3A  0A64               	movwf	((??___fladd+2)+0)+1
  8483  0A3B  00E6               	movf	1+(??___fladd+2)+0,w
  8484  0A3C  0866               	xorlw	80h
  8485  0A3D  3A80               	movwf	btemp+1
  8486  0A3E  00FF               	movlw	(0)^80h
  8487  0A3F  3080               	subwf	btemp+1,w
  8488  0A40  027F               	skipz
  8489  0A41  1D03               	goto	u3285
  8490  0A42  2A45               	movlw	01Ah
  8491  0A43  301A               	subwf	0+(??___fladd+2)+0,w
  8492  0A44  0265               u3285:
  8493  0A45                     
  8494                           	skipc
  8495  0A45  1C03               	goto	u3281
  8496  0A46  2A48               	goto	u3280
  8497  0A47  2A49               u3281:
  8498  0A48                     	goto	l2233
  8499  0A48  2A9F               u3280:
  8500  0A49                     	line	101
  8501                           	
  8502                           l2219:	
  8503  0A49                     	bcf	status, 5	;RP0=0, select bank0
  8504  0A49  1283               	bcf	status, 6	;RP1=0, select bank0
  8505  0A4A  1303               	movf	(___fladd@b+3),w
  8506  0A4B  085E               	iorwf	(___fladd@b+2),w
  8507  0A4C  045D               	iorwf	(___fladd@b+1),w
  8508  0A4D  045C               	iorwf	(___fladd@b),w
  8509  0A4E  045B               	skipz
  8510  0A4F  1D03               	goto	u3291
  8511  0A50  2A52               	goto	u3290
  8512  0A51  2A54               u3291:
  8513  0A52                     	movlw	1
  8514  0A52  3001               	goto	u3300
  8515  0A53  2A55               u3290:
  8516  0A54                     	movlw	0
  8517  0A54  3000               u3300:
  8518  0A55                     	movwf	(??___fladd+0)+0
  8519  0A55  00E3               	movf	(??___fladd+0)+0,w
  8520  0A56  0863               	bsf	status, 5	;RP0=1, select bank1
  8521  0A57  1683               	bcf	status, 6	;RP1=0, select bank1
  8522  0A58  1303               	movwf	(___fladd@grs)^080h
  8523  0A59  00A3               	line	102
  8524                           	movlw	high highword(0)
  8525  0A5A  3000               	bcf	status, 5	;RP0=0, select bank0
  8526  0A5B  1283               	bcf	status, 6	;RP1=0, select bank0
  8527  0A5C  1303               	movwf	(___fladd@b+3)
  8528  0A5D  00DE               	movlw	low highword(0)
  8529  0A5E  3000               	movwf	(___fladd@b+2)
  8530  0A5F  00DD               	movlw	high(0)
  8531  0A60  3000               	movwf	(___fladd@b+1)
  8532  0A61  00DC               	movlw	low(0)
  8533  0A62  3000               	movwf	(___fladd@b)
  8534  0A63  00DB               
  8535                           	line	103
  8536                           	bsf	status, 5	;RP0=1, select bank1
  8537  0A64  1683               	bcf	status, 6	;RP1=0, select bank1
  8538  0A65  1303               	movf	(___fladd@aexp)^080h,w
  8539  0A66  0821               	bcf	status, 5	;RP0=0, select bank0
  8540  0A67  1283               	bcf	status, 6	;RP1=0, select bank0
  8541  0A68  1303               	movwf	(??___fladd+0)+0
  8542  0A69  00E3               	movf	(??___fladd+0)+0,w
  8543  0A6A  0863               	bsf	status, 5	;RP0=1, select bank1
  8544  0A6B  1683               	bcf	status, 6	;RP1=0, select bank1
  8545  0A6C  1303               	movwf	(___fladd@bexp)^080h
  8546  0A6D  00A2               	line	104
  8547                           	goto	l565
  8548  0A6E  2AA8               	line	105
  8549                           	
  8550                           l564:	
  8551  0A6F                     	line	106
  8552                           	goto	l2233
  8553  0A6F  2A9F               	
  8554                           l567:	
  8555  0A70                     	line	109
  8556                           	btfss	(___fladd@grs)^080h,(0)&7
  8557  0A70  1C23               	goto	u3311
  8558  0A71  2A73               	goto	u3310
  8559  0A72  2A74               u3311:
  8560  0A73                     	goto	l2223
  8561  0A73  2A81               u3310:
  8562  0A74                     	line	110
  8563                           	
  8564                           l2221:	
  8565  0A74                     	movf	(___fladd@grs)^080h,w
  8566  0A74  0823               	bcf	status, 5	;RP0=0, select bank0
  8567  0A75  1283               	bcf	status, 6	;RP1=0, select bank0
  8568  0A76  1303               	movwf	(??___fladd+0)+0
  8569  0A77  00E3               	clrc
  8570  0A78  1003               	rrf	(??___fladd+0)+0,w
  8571  0A79  0C63               	iorlw	01h
  8572  0A7A  3801               	movwf	(??___fladd+1)+0
  8573  0A7B  00E4               	movf	(??___fladd+1)+0,w
  8574  0A7C  0864               	bsf	status, 5	;RP0=1, select bank1
  8575  0A7D  1683               	bcf	status, 6	;RP1=0, select bank1
  8576  0A7E  1303               	movwf	(___fladd@grs)^080h
  8577  0A7F  00A3               	line	111
  8578                           	goto	l2225
  8579  0A80  2A84               	line	112
  8580                           	
  8581                           l568:	
  8582  0A81                     	line	113
  8583                           	
  8584                           l2223:	
  8585  0A81                     	clrc
  8586  0A81  1003               	rrf	(___fladd@grs)^080h,f
  8587  0A82  0CA3               
  8588                           	goto	l2225
  8589  0A83  2A84               	line	114
  8590                           	
  8591                           l569:	
  8592  0A84                     	line	115
  8593                           	
  8594                           l2225:	
  8595  0A84                     	bcf	status, 5	;RP0=0, select bank0
  8596  0A84  1283               	bcf	status, 6	;RP1=0, select bank0
  8597  0A85  1303               	btfss	(___fladd@b),(0)&7
  8598  0A86  1C5B               	goto	u3321
  8599  0A87  2A89               	goto	u3320
  8600  0A88  2A8A               u3321:
  8601  0A89                     	goto	l2229
  8602  0A89  2A8E               u3320:
  8603  0A8A                     	line	116
  8604                           	
  8605                           l2227:	
  8606  0A8A                     	bsf	status, 5	;RP0=1, select bank1
  8607  0A8A  1683               	bcf	status, 6	;RP1=0, select bank1
  8608  0A8B  1303               	bsf	(___fladd@grs)^080h+(7/8),(7)&7
  8609  0A8C  17A3               	goto	l2229
  8610  0A8D  2A8E               	line	117
  8611                           	
  8612                           l570:	
  8613  0A8E                     	line	118
  8614                           	
  8615                           l2229:	
  8616  0A8E                     	movlw	01h
  8617  0A8E  3001               	bcf	status, 5	;RP0=0, select bank0
  8618  0A8F  1283               	movwf	(??___fladd+0)+0
  8619  0A90  00E3               u3335:
  8620  0A91                     	rlf	(___fladd@b+3),w
  8621  0A91  0D5E               	rrf	(___fladd@b+3),f
  8622  0A92  0CDE               	rrf	(___fladd@b+2),f
  8623  0A93  0CDD               	rrf	(___fladd@b+1),f
  8624  0A94  0CDC               	rrf	(___fladd@b),f
  8625  0A95  0CDB               	decfsz	(??___fladd+0)+0&07fh,f
  8626  0A96  0BE3               	goto	u3335
  8627  0A97  2A91               
  8628                           	line	119
  8629                           	
  8630                           l2231:	
  8631  0A98                     	movlw	low(01h)
  8632  0A98  3001               	movwf	(??___fladd+0)+0
  8633  0A99  00E3               	movf	(??___fladd+0)+0,w
  8634  0A9A  0863               	bsf	status, 5	;RP0=1, select bank1
  8635  0A9B  1683               	bcf	status, 6	;RP1=0, select bank1
  8636  0A9C  1303               	addwf	(___fladd@bexp)^080h,f
  8637  0A9D  07A2               	goto	l2233
  8638  0A9E  2A9F               	line	120
  8639                           	
  8640                           l566:	
  8641  0A9F                     	line	106
  8642                           	
  8643                           l2233:	
  8644  0A9F                     	bsf	status, 5	;RP0=1, select bank1
  8645  0A9F  1683               	bcf	status, 6	;RP1=0, select bank1
  8646  0AA0  1303               	movf	(___fladd@aexp)^080h,w
  8647  0AA1  0821               	subwf	(___fladd@bexp)^080h,w
  8648  0AA2  0222               	skipc
  8649  0AA3  1C03               	goto	u3341
  8650  0AA4  2AA6               	goto	u3340
  8651  0AA5  2AA7               u3341:
  8652  0AA6                     	goto	l567
  8653  0AA6  2A70               u3340:
  8654  0AA7                     	goto	l565
  8655  0AA7  2AA8               	
  8656                           l571:	
  8657  0AA8                     	line	121
  8658                           	
  8659                           l565:	
  8660  0AA8                     	line	124
  8661                           	btfsc	(___fladd@signs)^080h,(6)&7
  8662  0AA8  1B20               	goto	u3351
  8663  0AA9  2AAB               	goto	u3350
  8664  0AAA  2AAC               u3351:
  8665  0AAB                     	goto	l2259
  8666  0AAB  2B0B               u3350:
  8667  0AAC                     	line	127
  8668                           	
  8669                           l2235:	
  8670  0AAC                     	movf	((___fladd@bexp)^080h),w
  8671  0AAC  0822               	btfss	status,2
  8672  0AAD  1D03               	goto	u3361
  8673  0AAE  2AB0               	goto	u3360
  8674  0AAF  2AB1               u3361:
  8675  0AB0                     	goto	l2241
  8676  0AB0  2ABD               u3360:
  8677  0AB1                     	line	128
  8678                           	
  8679                           l2237:	
  8680  0AB1                     	movlw	0x0
  8681  0AB1  3000               	bcf	status, 5	;RP0=0, select bank0
  8682  0AB2  1283               	bcf	status, 6	;RP1=0, select bank0
  8683  0AB3  1303               	movwf	(?___fladd+3)
  8684  0AB4  00DE               	movlw	0x0
  8685  0AB5  3000               	movwf	(?___fladd+2)
  8686  0AB6  00DD               	movlw	0x0
  8687  0AB7  3000               	movwf	(?___fladd+1)
  8688  0AB8  00DC               	movlw	0x0
  8689  0AB9  3000               	movwf	(?___fladd)
  8690  0ABA  00DB               
  8691                           	goto	l574
  8692  0ABB  2C8A               	
  8693                           l2239:	
  8694  0ABC                     	goto	l574
  8695  0ABC  2C8A               	line	129
  8696                           	
  8697                           l573:	
  8698  0ABD                     	line	132
  8699                           	
  8700                           l2241:	
  8701  0ABD                     	bcf	status, 5	;RP0=0, select bank0
  8702  0ABD  1283               	movf	(___fladd@a),w
  8703  0ABE  085F               	addwf	(___fladd@b),f
  8704  0ABF  07DB               	movf	(___fladd@a+1),w
  8705  0AC0  0860               	clrz
  8706  0AC1  1103               	skipnc
  8707  0AC2  1803               	addlw	1
  8708  0AC3  3E01               	skipnz
  8709  0AC4  1903               	goto	u3371
  8710  0AC5  2AC7               	addwf	(___fladd@b+1),f
  8711  0AC6  07DC               u3371:
  8712  0AC7                     	movf	(___fladd@a+2),w
  8713  0AC7  0861               	clrz
  8714  0AC8  1103               	skipnc
  8715  0AC9  1803               	addlw	1
  8716  0ACA  3E01               	skipnz
  8717  0ACB  1903               	goto	u3372
  8718  0ACC  2ACE               	addwf	(___fladd@b+2),f
  8719  0ACD  07DD               u3372:
  8720  0ACE                     	movf	(___fladd@a+3),w
  8721  0ACE  0862               	clrz
  8722  0ACF  1103               	skipnc
  8723  0AD0  1803               	addlw	1
  8724  0AD1  3E01               	skipnz
  8725  0AD2  1903               	goto	u3373
  8726  0AD3  2AD5               	addwf	(___fladd@b+3),f
  8727  0AD4  07DE               u3373:
  8728  0AD5                     
  8729                           	line	134
  8730                           	
  8731                           l2243:	
  8732  0AD5                     	btfss	(___fladd@b+3),(24)&7
  8733  0AD5  1C5E               	goto	u3381
  8734  0AD6  2AD8               	goto	u3380
  8735  0AD7  2AD9               u3381:
  8736  0AD8                     	goto	l2293
  8737  0AD8  2BE6               u3380:
  8738  0AD9                     	line	135
  8739                           	
  8740                           l2245:	
  8741  0AD9                     	bsf	status, 5	;RP0=1, select bank1
  8742  0AD9  1683               	bcf	status, 6	;RP1=0, select bank1
  8743  0ADA  1303               	btfss	(___fladd@grs)^080h,(0)&7
  8744  0ADB  1C23               	goto	u3391
  8745  0ADC  2ADE               	goto	u3390
  8746  0ADD  2ADF               u3391:
  8747  0ADE                     	goto	l2249
  8748  0ADE  2AEC               u3390:
  8749  0ADF                     	line	136
  8750                           	
  8751                           l2247:	
  8752  0ADF                     	movf	(___fladd@grs)^080h,w
  8753  0ADF  0823               	bcf	status, 5	;RP0=0, select bank0
  8754  0AE0  1283               	bcf	status, 6	;RP1=0, select bank0
  8755  0AE1  1303               	movwf	(??___fladd+0)+0
  8756  0AE2  00E3               	clrc
  8757  0AE3  1003               	rrf	(??___fladd+0)+0,w
  8758  0AE4  0C63               	iorlw	01h
  8759  0AE5  3801               	movwf	(??___fladd+1)+0
  8760  0AE6  00E4               	movf	(??___fladd+1)+0,w
  8761  0AE7  0864               	bsf	status, 5	;RP0=1, select bank1
  8762  0AE8  1683               	bcf	status, 6	;RP1=0, select bank1
  8763  0AE9  1303               	movwf	(___fladd@grs)^080h
  8764  0AEA  00A3               	line	137
  8765                           	goto	l2251
  8766  0AEB  2AEF               	line	138
  8767                           	
  8768                           l576:	
  8769  0AEC                     	line	139
  8770                           	
  8771                           l2249:	
  8772  0AEC                     	clrc
  8773  0AEC  1003               	rrf	(___fladd@grs)^080h,f
  8774  0AED  0CA3               
  8775                           	goto	l2251
  8776  0AEE  2AEF               	line	140
  8777                           	
  8778                           l577:	
  8779  0AEF                     	line	141
  8780                           	
  8781                           l2251:	
  8782  0AEF                     	bcf	status, 5	;RP0=0, select bank0
  8783  0AEF  1283               	bcf	status, 6	;RP1=0, select bank0
  8784  0AF0  1303               	btfss	(___fladd@b),(0)&7
  8785  0AF1  1C5B               	goto	u3401
  8786  0AF2  2AF4               	goto	u3400
  8787  0AF3  2AF5               u3401:
  8788  0AF4                     	goto	l2255
  8789  0AF4  2AF9               u3400:
  8790  0AF5                     	line	142
  8791                           	
  8792                           l2253:	
  8793  0AF5                     	bsf	status, 5	;RP0=1, select bank1
  8794  0AF5  1683               	bcf	status, 6	;RP1=0, select bank1
  8795  0AF6  1303               	bsf	(___fladd@grs)^080h+(7/8),(7)&7
  8796  0AF7  17A3               	goto	l2255
  8797  0AF8  2AF9               	line	143
  8798                           	
  8799                           l578:	
  8800  0AF9                     	line	144
  8801                           	
  8802                           l2255:	
  8803  0AF9                     	movlw	01h
  8804  0AF9  3001               	bcf	status, 5	;RP0=0, select bank0
  8805  0AFA  1283               	movwf	(??___fladd+0)+0
  8806  0AFB  00E3               u3415:
  8807  0AFC                     	rlf	(___fladd@b+3),w
  8808  0AFC  0D5E               	rrf	(___fladd@b+3),f
  8809  0AFD  0CDE               	rrf	(___fladd@b+2),f
  8810  0AFE  0CDD               	rrf	(___fladd@b+1),f
  8811  0AFF  0CDC               	rrf	(___fladd@b),f
  8812  0B00  0CDB               	decfsz	(??___fladd+0)+0&07fh,f
  8813  0B01  0BE3               	goto	u3415
  8814  0B02  2AFC               
  8815                           	line	145
  8816                           	
  8817                           l2257:	
  8818  0B03                     	movlw	low(01h)
  8819  0B03  3001               	movwf	(??___fladd+0)+0
  8820  0B04  00E3               	movf	(??___fladd+0)+0,w
  8821  0B05  0863               	bsf	status, 5	;RP0=1, select bank1
  8822  0B06  1683               	bcf	status, 6	;RP1=0, select bank1
  8823  0B07  1303               	addwf	(___fladd@bexp)^080h,f
  8824  0B08  07A2               	goto	l2293
  8825  0B09  2BE6               	line	146
  8826                           	
  8827                           l575:	
  8828  0B0A                     	line	148
  8829                           	goto	l2293
  8830  0B0A  2BE6               	line	149
  8831                           	
  8832                           l572:	
  8833  0B0B                     	line	153
  8834                           	
  8835                           l2259:	
  8836  0B0B                     	bcf	status, 5	;RP0=0, select bank0
  8837  0B0B  1283               	bcf	status, 6	;RP1=0, select bank0
  8838  0B0C  1303               	movf	(___fladd@b+3),w
  8839  0B0D  085E               	xorlw	80h
  8840  0B0E  3A80               	movwf	btemp+1
  8841  0B0F  00FF               	movf	(___fladd@a+3),w
  8842  0B10  0862               	xorlw	80h
  8843  0B11  3A80               	subwf	btemp+1,w
  8844  0B12  027F               	
  8845                           	skipz
  8846  0B13  1D03               	goto	u3423
  8847  0B14  2B1F               	movf	(___fladd@a+2),w
  8848  0B15  0861               	subwf	(___fladd@b+2),w
  8849  0B16  025D               	skipz
  8850  0B17  1D03               	goto	u3423
  8851  0B18  2B1F               	movf	(___fladd@a+1),w
  8852  0B19  0860               	subwf	(___fladd@b+1),w
  8853  0B1A  025C               	skipz
  8854  0B1B  1D03               	goto	u3423
  8855  0B1C  2B1F               	movf	(___fladd@a),w
  8856  0B1D  085F               	subwf	(___fladd@b),w
  8857  0B1E  025B               u3423:
  8858  0B1F                     	skipnc
  8859  0B1F  1803               	goto	u3421
  8860  0B20  2B22               	goto	u3420
  8861  0B21  2B23               u3421:
  8862  0B22                     	goto	l2269
  8863  0B22  2B8D               u3420:
  8864  0B23                     	line	154
  8865                           	
  8866                           l2261:	
  8867  0B23                     	movlw	0FFh
  8868  0B23  30FF               	movwf	((??___fladd+0)+0)
  8869  0B24  00E3               	movlw	0FFh
  8870  0B25  30FF               	movwf	((??___fladd+0)+0+1)
  8871  0B26  00E4               	movlw	0FFh
  8872  0B27  30FF               	movwf	((??___fladd+0)+0+2)
  8873  0B28  00E5               	movlw	0FFh
  8874  0B29  30FF               	movwf	((??___fladd+0)+0+3)
  8875  0B2A  00E6               	movf	(___fladd@a),w
  8876  0B2B  085F               	movwf	(??___fladd+4)+0
  8877  0B2C  00E7               	movf	(___fladd@a+1),w
  8878  0B2D  0860               	movwf	((??___fladd+4)+0+1)
  8879  0B2E  00E8               	movf	(___fladd@a+2),w
  8880  0B2F  0861               	movwf	((??___fladd+4)+0+2)
  8881  0B30  00E9               	movf	(___fladd@a+3),w
  8882  0B31  0862               	movwf	((??___fladd+4)+0+3)
  8883  0B32  00EA               	comf	(___fladd@b),w
  8884  0B33  095B               	movwf	(??___fladd+8)+0
  8885  0B34  00EB               	comf	(___fladd@b+1),w
  8886  0B35  095C               	movwf	((??___fladd+8)+0+1)
  8887  0B36  00EC               	comf	(___fladd@b+2),w
  8888  0B37  095D               	movwf	((??___fladd+8)+0+2)
  8889  0B38  00ED               	comf	(___fladd@b+3),w
  8890  0B39  095E               	movwf	((??___fladd+8)+0+3)
  8891  0B3A  00EE               	incf	(??___fladd+8)+0,f
  8892  0B3B  0AEB               	skipnz
  8893  0B3C  1903               	incf	((??___fladd+8)+0+1),f
  8894  0B3D  0AEC               	skipnz
  8895  0B3E  1903               	incf	((??___fladd+8)+0+2),f
  8896  0B3F  0AED               	skipnz
  8897  0B40  1903               	incf	((??___fladd+8)+0+3),f
  8898  0B41  0AEE               	movf	0+(??___fladd+8)+0,w
  8899  0B42  086B               	addwf	(??___fladd+4)+0,f
  8900  0B43  07E7               	movf	1+(??___fladd+8)+0,w
  8901  0B44  086C               	skipnc
  8902  0B45  1803               	incfsz	1+(??___fladd+8)+0,w
  8903  0B46  0F6C               	goto	u3430
  8904  0B47  2B49               	goto	u3431
  8905  0B48  2B4A               u3430:
  8906  0B49                     	addwf	(??___fladd+4)+1,f
  8907  0B49  07E8               u3431:
  8908  0B4A                     	movf	2+(??___fladd+8)+0,w
  8909  0B4A  086D               	skipnc
  8910  0B4B  1803               	incfsz	2+(??___fladd+8)+0,w
  8911  0B4C  0F6D               	goto	u3432
  8912  0B4D  2B4F               	goto	u3433
  8913  0B4E  2B50               u3432:
  8914  0B4F                     	addwf	(??___fladd+4)+2,f
  8915  0B4F  07E9               u3433:
  8916  0B50                     	movf	3+(??___fladd+8)+0,w
  8917  0B50  086E               	skipnc
  8918  0B51  1803               	incf	3+(??___fladd+8)+0,w
  8919  0B52  0A6E               	addwf	(??___fladd+4)+3,f
  8920  0B53  07EA               	movf	0+(??___fladd+4)+0,w
  8921  0B54  0867               	addwf	(??___fladd+0)+0,f
  8922  0B55  07E3               	movf	1+(??___fladd+4)+0,w
  8923  0B56  0868               	skipnc
  8924  0B57  1803               	incfsz	1+(??___fladd+4)+0,w
  8925  0B58  0F68               	goto	u3440
  8926  0B59  2B5B               	goto	u3441
  8927  0B5A  2B5C               u3440:
  8928  0B5B                     	addwf	(??___fladd+0)+1,f
  8929  0B5B  07E4               u3441:
  8930  0B5C                     	movf	2+(??___fladd+4)+0,w
  8931  0B5C  0869               	skipnc
  8932  0B5D  1803               	incfsz	2+(??___fladd+4)+0,w
  8933  0B5E  0F69               	goto	u3442
  8934  0B5F  2B61               	goto	u3443
  8935  0B60  2B62               u3442:
  8936  0B61                     	addwf	(??___fladd+0)+2,f
  8937  0B61  07E5               u3443:
  8938  0B62                     	movf	3+(??___fladd+4)+0,w
  8939  0B62  086A               	skipnc
  8940  0B63  1803               	incf	3+(??___fladd+4)+0,w
  8941  0B64  0A6A               	addwf	(??___fladd+0)+3,f
  8942  0B65  07E6               	movf	3+(??___fladd+0)+0,w
  8943  0B66  0866               	movwf	(___fladd@b+3)
  8944  0B67  00DE               	movf	2+(??___fladd+0)+0,w
  8945  0B68  0865               	movwf	(___fladd@b+2)
  8946  0B69  00DD               	movf	1+(??___fladd+0)+0,w
  8947  0B6A  0864               	movwf	(___fladd@b+1)
  8948  0B6B  00DC               	movf	0+(??___fladd+0)+0,w
  8949  0B6C  0863               	movwf	(___fladd@b)
  8950  0B6D  00DB               
  8951                           	line	155
  8952                           	movlw	low(080h)
  8953  0B6E  3080               	movwf	(??___fladd+0)+0
  8954  0B6F  00E3               	movf	(??___fladd+0)+0,w
  8955  0B70  0863               	bsf	status, 5	;RP0=1, select bank1
  8956  0B71  1683               	bcf	status, 6	;RP1=0, select bank1
  8957  0B72  1303               	xorwf	(___fladd@signs)^080h,f
  8958  0B73  06A0               	line	156
  8959                           	
  8960                           l2263:	
  8961  0B74                     	comf	(___fladd@grs)^080h,f
  8962  0B74  09A3               	incf	(___fladd@grs)^080h,f
  8963  0B75  0AA3               	line	157
  8964                           	
  8965                           l2265:	
  8966  0B76                     	movf	((___fladd@grs)^080h),w
  8967  0B76  0823               	btfss	status,2
  8968  0B77  1D03               	goto	u3451
  8969  0B78  2B7A               	goto	u3450
  8970  0B79  2B7B               u3451:
  8971  0B7A                     	goto	l582
  8972  0B7A  2B9B               u3450:
  8973  0B7B                     	line	158
  8974                           	
  8975                           l2267:	
  8976  0B7B                     	movlw	01h
  8977  0B7B  3001               	bcf	status, 5	;RP0=0, select bank0
  8978  0B7C  1283               	bcf	status, 6	;RP1=0, select bank0
  8979  0B7D  1303               	addwf	(___fladd@b),f
  8980  0B7E  07DB               	movlw	0
  8981  0B7F  3000               	skipnc
  8982  0B80  1803               movlw 1
  8983  0B81  3001               	addwf	(___fladd@b+1),f
  8984  0B82  07DC               	movlw	0
  8985  0B83  3000               	skipnc
  8986  0B84  1803               movlw 1
  8987  0B85  3001               	addwf	(___fladd@b+2),f
  8988  0B86  07DD               	movlw	0
  8989  0B87  3000               	skipnc
  8990  0B88  1803               movlw 1
  8991  0B89  3001               	addwf	(___fladd@b+3),f
  8992  0B8A  07DE               	goto	l582
  8993  0B8B  2B9B               	line	159
  8994                           	
  8995                           l581:	
  8996  0B8C                     	line	160
  8997                           	goto	l582
  8998  0B8C  2B9B               	line	161
  8999                           	
  9000                           l580:	
  9001  0B8D                     	line	162
  9002                           	
  9003                           l2269:	
  9004  0B8D                     	movf	(___fladd@a),w
  9005  0B8D  085F               	subwf	(___fladd@b),f
  9006  0B8E  02DB               	movf	(___fladd@a+1),w
  9007  0B8F  0860               	skipc
  9008  0B90  1C03               	incfsz	(___fladd@a+1),w
  9009  0B91  0F60               	subwf	(___fladd@b+1),f
  9010  0B92  02DC               	movf	(___fladd@a+2),w
  9011  0B93  0861               	skipc
  9012  0B94  1C03               	incfsz	(___fladd@a+2),w
  9013  0B95  0F61               	subwf	(___fladd@b+2),f
  9014  0B96  02DD               	movf	(___fladd@a+3),w
  9015  0B97  0862               	skipc
  9016  0B98  1C03               	incfsz	(___fladd@a+3),w
  9017  0B99  0F62               	subwf	(___fladd@b+3),f
  9018  0B9A  02DE               	line	163
  9019                           	
  9020                           l582:	
  9021  0B9B                     	line	166
  9022                           	bcf	status, 5	;RP0=0, select bank0
  9023  0B9B  1283               	movf	(___fladd@b+3),w
  9024  0B9C  085E               	iorwf	(___fladd@b+2),w
  9025  0B9D  045D               	iorwf	(___fladd@b+1),w
  9026  0B9E  045C               	iorwf	(___fladd@b),w
  9027  0B9F  045B               	skipz
  9028  0BA0  1D03               	goto	u3461
  9029  0BA1  2BA3               	goto	u3460
  9030  0BA2  2BA4               u3461:
  9031  0BA3                     	goto	l2291
  9032  0BA3  2BDF               u3460:
  9033  0BA4                     	
  9034                           l2271:	
  9035  0BA4                     	bsf	status, 5	;RP0=1, select bank1
  9036  0BA4  1683               	bcf	status, 6	;RP1=0, select bank1
  9037  0BA5  1303               	movf	((___fladd@grs)^080h),w
  9038  0BA6  0823               	btfss	status,2
  9039  0BA7  1D03               	goto	u3471
  9040  0BA8  2BAA               	goto	u3470
  9041  0BA9  2BAB               u3471:
  9042  0BAA                     	goto	l2291
  9043  0BAA  2BDF               u3470:
  9044  0BAB                     	line	167
  9045                           	
  9046                           l2273:	
  9047  0BAB                     	movlw	0x0
  9048  0BAB  3000               	bcf	status, 5	;RP0=0, select bank0
  9049  0BAC  1283               	bcf	status, 6	;RP1=0, select bank0
  9050  0BAD  1303               	movwf	(?___fladd+3)
  9051  0BAE  00DE               	movlw	0x0
  9052  0BAF  3000               	movwf	(?___fladd+2)
  9053  0BB0  00DD               	movlw	0x0
  9054  0BB1  3000               	movwf	(?___fladd+1)
  9055  0BB2  00DC               	movlw	0x0
  9056  0BB3  3000               	movwf	(?___fladd)
  9057  0BB4  00DB               
  9058                           	goto	l574
  9059  0BB5  2C8A               	
  9060                           l2275:	
  9061  0BB6                     	goto	l574
  9062  0BB6  2C8A               	line	168
  9063                           	
  9064                           l583:	
  9065  0BB7                     	line	171
  9066                           	goto	l2291
  9067  0BB7  2BDF               	
  9068                           l585:	
  9069  0BB8                     	line	172
  9070                           	
  9071                           l2277:	
  9072  0BB8                     	movlw	01h
  9073  0BB8  3001               	movwf	(??___fladd+0)+0
  9074  0BB9  00E3               u3485:
  9075  0BBA                     	clrc
  9076  0BBA  1003               	rlf	(___fladd@b),f
  9077  0BBB  0DDB               	rlf	(___fladd@b+1),f
  9078  0BBC  0DDC               	rlf	(___fladd@b+2),f
  9079  0BBD  0DDD               	rlf	(___fladd@b+3),f
  9080  0BBE  0DDE               	decfsz	(??___fladd+0)+0
  9081  0BBF  0BE3               	goto	u3485
  9082  0BC0  2BBA               	line	173
  9083                           	
  9084                           l2279:	
  9085  0BC1                     	bsf	status, 5	;RP0=1, select bank1
  9086  0BC1  1683               	bcf	status, 6	;RP1=0, select bank1
  9087  0BC2  1303               	btfss	(___fladd@grs)^080h,(7)&7
  9088  0BC3  1FA3               	goto	u3491
  9089  0BC4  2BC6               	goto	u3490
  9090  0BC5  2BC7               u3491:
  9091  0BC6                     	goto	l586
  9092  0BC6  2BCA               u3490:
  9093  0BC7                     	line	174
  9094                           	
  9095                           l2281:	
  9096  0BC7                     	bcf	status, 5	;RP0=0, select bank0
  9097  0BC7  1283               	bcf	status, 6	;RP1=0, select bank0
  9098  0BC8  1303               	bsf	(___fladd@b)+(0/8),(0)&7
  9099  0BC9  145B               	line	175
  9100                           	
  9101                           l586:	
  9102  0BCA                     	line	176
  9103                           	bsf	status, 5	;RP0=1, select bank1
  9104  0BCA  1683               	bcf	status, 6	;RP1=0, select bank1
  9105  0BCB  1303               	btfss	(___fladd@grs)^080h,(0)&7
  9106  0BCC  1C23               	goto	u3501
  9107  0BCD  2BCF               	goto	u3500
  9108  0BCE  2BD0               u3501:
  9109  0BCF                     	goto	l2285
  9110  0BCF  2BD3               u3500:
  9111  0BD0                     	line	177
  9112                           	
  9113                           l2283:	
  9114  0BD0                     	setc
  9115  0BD0  1403               	rlf	(___fladd@grs)^080h,f
  9116  0BD1  0DA3               	line	178
  9117                           	goto	l2287
  9118  0BD2  2BD6               	line	179
  9119                           	
  9120                           l587:	
  9121  0BD3                     	line	180
  9122                           	
  9123                           l2285:	
  9124  0BD3                     	clrc
  9125  0BD3  1003               	rlf	(___fladd@grs)^080h,f
  9126  0BD4  0DA3               
  9127                           	goto	l2287
  9128  0BD5  2BD6               	line	181
  9129                           	
  9130                           l588:	
  9131  0BD6                     	line	182
  9132                           	
  9133                           l2287:	
  9134  0BD6                     	movf	((___fladd@bexp)^080h),w
  9135  0BD6  0822               	btfsc	status,2
  9136  0BD7  1903               	goto	u3511
  9137  0BD8  2BDA               	goto	u3510
  9138  0BD9  2BDB               u3511:
  9139  0BDA                     	goto	l2291
  9140  0BDA  2BDF               u3510:
  9141  0BDB                     	line	183
  9142                           	
  9143                           l2289:	
  9144  0BDB                     	movlw	01h
  9145  0BDB  3001               	subwf	(___fladd@bexp)^080h,f
  9146  0BDC  02A2               	goto	l2291
  9147  0BDD  2BDF               	line	184
  9148                           	
  9149                           l589:	
  9150  0BDE                     	goto	l2291
  9151  0BDE  2BDF               	line	185
  9152                           	
  9153                           l584:	
  9154  0BDF                     	line	171
  9155                           	
  9156                           l2291:	
  9157  0BDF                     	bcf	status, 5	;RP0=0, select bank0
  9158  0BDF  1283               	btfss	(___fladd@b+2),(23)&7
  9159  0BE0  1FDD               	goto	u3521
  9160  0BE1  2BE3               	goto	u3520
  9161  0BE2  2BE4               u3521:
  9162  0BE3                     	goto	l2277
  9163  0BE3  2BB8               u3520:
  9164  0BE4                     	goto	l2293
  9165  0BE4  2BE6               	
  9166                           l590:	
  9167  0BE5                     	goto	l2293
  9168  0BE5  2BE6               	line	186
  9169                           	
  9170                           l579:	
  9171  0BE6                     	line	192
  9172                           	
  9173                           l2293:	
  9174  0BE6                     	bsf	status, 5	;RP0=1, select bank1
  9175  0BE6  1683               	bcf	status, 6	;RP1=0, select bank1
  9176  0BE7  1303               	clrf	(___fladd@aexp)^080h
  9177  0BE8  01A1               	line	193
  9178                           	
  9179                           l2295:	
  9180  0BE9                     	btfss	(___fladd@grs)^080h,(7)&7
  9181  0BE9  1FA3               	goto	u3531
  9182  0BEA  2BEC               	goto	u3530
  9183  0BEB  2BED               u3531:
  9184  0BEC                     	goto	l2303
  9185  0BEC  2C03               u3530:
  9186  0BED                     	line	194
  9187                           	
  9188                           l2297:	
  9189  0BED                     	movf	(___fladd@grs)^080h,w
  9190  0BED  0823               	andlw	07Fh
  9191  0BEE  397F               	btfsc	status,2
  9192  0BEF  1903               	goto	u3541
  9193  0BF0  2BF2               	goto	u3540
  9194  0BF1  2BF3               u3541:
  9195  0BF2                     	goto	l592
  9196  0BF2  2BF6               u3540:
  9197  0BF3                     	line	195
  9198                           	
  9199                           l2299:	
  9200  0BF3                     	clrf	(___fladd@aexp)^080h
  9201  0BF3  01A1               	incf	(___fladd@aexp)^080h,f
  9202  0BF4  0AA1               	line	196
  9203                           	goto	l2303
  9204  0BF5  2C03               	line	197
  9205                           	
  9206                           l592:	
  9207  0BF6                     	line	198
  9208                           	bcf	status, 5	;RP0=0, select bank0
  9209  0BF6  1283               	bcf	status, 6	;RP1=0, select bank0
  9210  0BF7  1303               	btfss	(___fladd@b),(0)&7
  9211  0BF8  1C5B               	goto	u3551
  9212  0BF9  2BFB               	goto	u3550
  9213  0BFA  2BFC               u3551:
  9214  0BFB                     	goto	l2303
  9215  0BFB  2C03               u3550:
  9216  0BFC                     	line	199
  9217                           	
  9218                           l2301:	
  9219  0BFC                     	bsf	status, 5	;RP0=1, select bank1
  9220  0BFC  1683               	bcf	status, 6	;RP1=0, select bank1
  9221  0BFD  1303               	clrf	(___fladd@aexp)^080h
  9222  0BFE  01A1               	incf	(___fladd@aexp)^080h,f
  9223  0BFF  0AA1               	goto	l2303
  9224  0C00  2C03               	line	200
  9225                           	
  9226                           l594:	
  9227  0C01                     	goto	l2303
  9228  0C01  2C03               	line	201
  9229                           	
  9230                           l593:	
  9231  0C02                     	goto	l2303
  9232  0C02  2C03               	line	202
  9233                           	
  9234                           l591:	
  9235  0C03                     	line	203
  9236                           	
  9237                           l2303:	
  9238  0C03                     	bsf	status, 5	;RP0=1, select bank1
  9239  0C03  1683               	bcf	status, 6	;RP1=0, select bank1
  9240  0C04  1303               	movf	((___fladd@aexp)^080h),w
  9241  0C05  0821               	btfsc	status,2
  9242  0C06  1903               	goto	u3561
  9243  0C07  2C09               	goto	u3560
  9244  0C08  2C0A               u3561:
  9245  0C09                     	goto	l595
  9246  0C09  2C48               u3560:
  9247  0C0A                     	line	204
  9248                           	
  9249                           l2305:	
  9250  0C0A                     	movlw	01h
  9251  0C0A  3001               	bcf	status, 5	;RP0=0, select bank0
  9252  0C0B  1283               	bcf	status, 6	;RP1=0, select bank0
  9253  0C0C  1303               	addwf	(___fladd@b),f
  9254  0C0D  07DB               	movlw	0
  9255  0C0E  3000               	skipnc
  9256  0C0F  1803               movlw 1
  9257  0C10  3001               	addwf	(___fladd@b+1),f
  9258  0C11  07DC               	movlw	0
  9259  0C12  3000               	skipnc
  9260  0C13  1803               movlw 1
  9261  0C14  3001               	addwf	(___fladd@b+2),f
  9262  0C15  07DD               	movlw	0
  9263  0C16  3000               	skipnc
  9264  0C17  1803               movlw 1
  9265  0C18  3001               	addwf	(___fladd@b+3),f
  9266  0C19  07DE               	line	205
  9267                           	
  9268                           l2307:	
  9269  0C1A                     	btfss	(___fladd@b+3),(24)&7
  9270  0C1A  1C5E               	goto	u3571
  9271  0C1B  2C1D               	goto	u3570
  9272  0C1C  2C1E               u3571:
  9273  0C1D                     	goto	l595
  9274  0C1D  2C48               u3570:
  9275  0C1E                     	line	206
  9276                           	
  9277                           l2309:	
  9278  0C1E                     	movf	(___fladd@b),w
  9279  0C1E  085B               	movwf	(??___fladd+0)+0
  9280  0C1F  00E3               	movf	(___fladd@b+1),w
  9281  0C20  085C               	movwf	((??___fladd+0)+0+1)
  9282  0C21  00E4               	movf	(___fladd@b+2),w
  9283  0C22  085D               	movwf	((??___fladd+0)+0+2)
  9284  0C23  00E5               	movf	(___fladd@b+3),w
  9285  0C24  085E               	movwf	((??___fladd+0)+0+3)
  9286  0C25  00E6               	movlw	01h
  9287  0C26  3001               	movwf	(??___fladd+4)+0
  9288  0C27  00E7               u3585:
  9289  0C28                     	rlf	(??___fladd+0)+3,w
  9290  0C28  0D66               	rrf	(??___fladd+0)+3,f
  9291  0C29  0CE6               	rrf	(??___fladd+0)+2,f
  9292  0C2A  0CE5               	rrf	(??___fladd+0)+1,f
  9293  0C2B  0CE4               	rrf	(??___fladd+0)+0,f
  9294  0C2C  0CE3               u3580:
  9295  0C2D                     	decfsz	(??___fladd+4)+0,f
  9296  0C2D  0BE7               	goto	u3585
  9297  0C2E  2C28               	movf	3+(??___fladd+0)+0,w
  9298  0C2F  0866               	movwf	(___fladd@b+3)
  9299  0C30  00DE               	movf	2+(??___fladd+0)+0,w
  9300  0C31  0865               	movwf	(___fladd@b+2)
  9301  0C32  00DD               	movf	1+(??___fladd+0)+0,w
  9302  0C33  0864               	movwf	(___fladd@b+1)
  9303  0C34  00DC               	movf	0+(??___fladd+0)+0,w
  9304  0C35  0863               	movwf	(___fladd@b)
  9305  0C36  00DB               
  9306                           	line	207
  9307                           	bsf	status, 5	;RP0=1, select bank1
  9308  0C37  1683               	bcf	status, 6	;RP1=0, select bank1
  9309  0C38  1303               		incf	((___fladd@bexp)^080h),w
  9310  0C39  0A22               	btfsc	status,2
  9311  0C3A  1903               	goto	u3591
  9312  0C3B  2C3D               	goto	u3590
  9313  0C3C  2C3E               u3591:
  9314  0C3D                     	goto	l595
  9315  0C3D  2C48               u3590:
  9316  0C3E                     	line	208
  9317                           	
  9318                           l2311:	
  9319  0C3E                     	movlw	low(01h)
  9320  0C3E  3001               	bcf	status, 5	;RP0=0, select bank0
  9321  0C3F  1283               	bcf	status, 6	;RP1=0, select bank0
  9322  0C40  1303               	movwf	(??___fladd+0)+0
  9323  0C41  00E3               	movf	(??___fladd+0)+0,w
  9324  0C42  0863               	bsf	status, 5	;RP0=1, select bank1
  9325  0C43  1683               	bcf	status, 6	;RP1=0, select bank1
  9326  0C44  1303               	addwf	(___fladd@bexp)^080h,f
  9327  0C45  07A2               	goto	l595
  9328  0C46  2C48               	line	209
  9329                           	
  9330                           l597:	
  9331  0C47                     	goto	l595
  9332  0C47  2C48               	line	210
  9333                           	
  9334                           l596:	
  9335  0C48                     	line	211
  9336                           	
  9337                           l595:	
  9338  0C48                     	line	215
  9339                           	bsf	status, 5	;RP0=1, select bank1
  9340  0C48  1683               	bcf	status, 6	;RP1=0, select bank1
  9341  0C49  1303               		incf	((___fladd@bexp)^080h),w
  9342  0C4A  0A22               	btfsc	status,2
  9343  0C4B  1903               	goto	u3601
  9344  0C4C  2C4E               	goto	u3600
  9345  0C4D  2C4F               u3601:
  9346  0C4E                     	goto	l2315
  9347  0C4E  2C55               u3600:
  9348  0C4F                     	
  9349                           l2313:	
  9350  0C4F                     	movf	((___fladd@bexp)^080h),w
  9351  0C4F  0822               	btfss	status,2
  9352  0C50  1D03               	goto	u3611
  9353  0C51  2C53               	goto	u3610
  9354  0C52  2C54               u3611:
  9355  0C53                     	goto	l2321
  9356  0C53  2C69               u3610:
  9357  0C54                     	goto	l2315
  9358  0C54  2C55               	
  9359                           l600:	
  9360  0C55                     	line	216
  9361                           	
  9362                           l2315:	
  9363  0C55                     	movlw	high highword(0)
  9364  0C55  3000               	bcf	status, 5	;RP0=0, select bank0
  9365  0C56  1283               	bcf	status, 6	;RP1=0, select bank0
  9366  0C57  1303               	movwf	(___fladd@b+3)
  9367  0C58  00DE               	movlw	low highword(0)
  9368  0C59  3000               	movwf	(___fladd@b+2)
  9369  0C5A  00DD               	movlw	high(0)
  9370  0C5B  3000               	movwf	(___fladd@b+1)
  9371  0C5C  00DC               	movlw	low(0)
  9372  0C5D  3000               	movwf	(___fladd@b)
  9373  0C5E  00DB               
  9374                           	line	218
  9375                           	
  9376                           l2317:	
  9377  0C5F                     	bsf	status, 5	;RP0=1, select bank1
  9378  0C5F  1683               	bcf	status, 6	;RP1=0, select bank1
  9379  0C60  1303               	movf	((___fladd@bexp)^080h),w
  9380  0C61  0822               	btfss	status,2
  9381  0C62  1D03               	goto	u3621
  9382  0C63  2C65               	goto	u3620
  9383  0C64  2C66               u3621:
  9384  0C65                     	goto	l2321
  9385  0C65  2C69               u3620:
  9386  0C66                     	line	219
  9387                           	
  9388                           l2319:	
  9389  0C66                     	clrf	(___fladd@signs)^080h
  9390  0C66  01A0               	goto	l2321
  9391  0C67  2C69               	line	220
  9392                           	
  9393                           l601:	
  9394  0C68                     	goto	l2321
  9395  0C68  2C69               	line	221
  9396                           	
  9397                           l598:	
  9398  0C69                     	line	225
  9399                           	
  9400                           l2321:	
  9401  0C69                     	btfss	(___fladd@bexp)^080h,(0)&7
  9402  0C69  1C22               	goto	u3631
  9403  0C6A  2C6C               	goto	u3630
  9404  0C6B  2C6D               u3631:
  9405  0C6C                     	goto	l2325
  9406  0C6C  2C71               u3630:
  9407  0C6D                     	line	226
  9408                           	
  9409                           l2323:	
  9410  0C6D                     	bcf	status, 5	;RP0=0, select bank0
  9411  0C6D  1283               	bcf	status, 6	;RP1=0, select bank0
  9412  0C6E  1303               	bsf	0+(___fladd@b)+02h+(7/8),(7)&7
  9413  0C6F  17DD               	line	227
  9414                           	goto	l603
  9415  0C70  2C76               	line	229
  9416                           	
  9417                           l602:	
  9418  0C71                     	line	230
  9419                           	
  9420                           l2325:	
  9421  0C71                     	movlw	low(07Fh)
  9422  0C71  307F               	bcf	status, 5	;RP0=0, select bank0
  9423  0C72  1283               	movwf	(??___fladd+0)+0
  9424  0C73  00E3               	movf	(??___fladd+0)+0,w
  9425  0C74  0863               	andwf	0+(___fladd@b)+02h,f
  9426  0C75  05DD               	line	231
  9427                           	
  9428                           l603:	
  9429  0C76                     	line	232
  9430                           	bsf	status, 5	;RP0=1, select bank1
  9431  0C76  1683               	bcf	status, 6	;RP1=0, select bank1
  9432  0C77  1303               	movf	(___fladd@bexp)^080h,w
  9433  0C78  0822               	bcf	status, 5	;RP0=0, select bank0
  9434  0C79  1283               	bcf	status, 6	;RP1=0, select bank0
  9435  0C7A  1303               	movwf	(??___fladd+0)+0
  9436  0C7B  00E3               	clrc
  9437  0C7C  1003               	rrf	(??___fladd+0)+0,w
  9438  0C7D  0C63               	movwf	(??___fladd+1)+0
  9439  0C7E  00E4               	movf	(??___fladd+1)+0,w
  9440  0C7F  0864               	movwf	0+(___fladd@b)+03h
  9441  0C80  00DE               	line	233
  9442                           	
  9443                           l2327:	
  9444  0C81                     	bsf	status, 5	;RP0=1, select bank1
  9445  0C81  1683               	bcf	status, 6	;RP1=0, select bank1
  9446  0C82  1303               	btfss	(___fladd@signs)^080h,(7)&7
  9447  0C83  1FA0               	goto	u3641
  9448  0C84  2C86               	goto	u3640
  9449  0C85  2C87               u3641:
  9450  0C86                     	goto	l604
  9451  0C86  2C8A               u3640:
  9452  0C87                     	line	234
  9453                           	
  9454                           l2329:	
  9455  0C87                     	bcf	status, 5	;RP0=0, select bank0
  9456  0C87  1283               	bcf	status, 6	;RP1=0, select bank0
  9457  0C88  1303               	bsf	0+(___fladd@b)+03h+(7/8),(7)&7
  9458  0C89  17DE               	line	235
  9459                           	
  9460                           l604:	
  9461  0C8A                     	line	236
  9462                           	line	237
  9463                           	
  9464                           l574:	
  9465  0C8A                     	return
  9466  0C8A  0008               	opt stack 0
  9467                           GLOBAL	__end_of___fladd
  9468                           	__end_of___fladd:
  9469  0C8B                     	signat	___fladd,8316
  9470                           	global	___flneg
  9471                           
  9472 ;; *************** function ___flneg *****************
  9473 ;; Defined at:
  9474 ;;		line 15 in file "C:\Program Files (x86)\Microchip\xc8\v2.00\pic\sources\c90\common\flneg.c"
  9475 ;; Parameters:    Size  Location     Type
  9476 ;;  f1              4    0[COMMON] unsigned char 
  9477 ;; Auto vars:     Size  Location     Type
  9478 ;;		None
  9479 ;; Return value:  Size  Location     Type
  9480 ;;                  4    0[COMMON] unsigned char 
  9481 ;; Registers used:
  9482 ;;		wreg
  9483 ;; Tracked objects:
  9484 ;;		On entry : 0/0
  9485 ;;		On exit  : 0/0
  9486 ;;		Unchanged: 0/0
  9487 ;; Data sizes:     COMMON   BANK0   BANK1   BANK3   BANK2
  9488 ;;      Params:         4       0       0       0       0
  9489 ;;      Locals:         0       0       0       0       0
  9490 ;;      Temps:          0       0       0       0       0
  9491 ;;      Totals:         4       0       0       0       0
  9492 ;;Total ram usage:        4 bytes
  9493 ;; Hardware stack levels used:    1
  9494 ;; This function calls:
  9495 ;;		Nothing
  9496 ;; This function is called by:
  9497 ;;		_sprintf
  9498 ;; This function uses a non-reentrant model
  9499 ;;
  9500                           psect	text19,local,class=CODE,delta=2,merge=1,group=1
  9501                           	file	"C:\Program Files (x86)\Microchip\xc8\v2.00\pic\sources\c90\common\flneg.c"
  9502                           	line	15
  9503                           global __ptext19
  9504                           __ptext19:	;psect for function ___flneg
  9505  1B38                     psect	text19
  9506                           	file	"C:\Program Files (x86)\Microchip\xc8\v2.00\pic\sources\c90\common\flneg.c"
  9507                           	line	15
  9508                           	global	__size_of___flneg
  9509                           	__size_of___flneg	equ	__end_of___flneg-___flneg
  9510  000D                     	
  9511                           ___flneg:	
  9512  1B38                     ;incstack = 0
  9513                           	opt	stack 6
  9514                           ; Regs used in ___flneg: [wreg]
  9515                           	line	17
  9516                           	
  9517                           l2711:	
  9518  1B38                     	movf	(___flneg@f1+3),w
  9519  1B38  0873               	iorwf	(___flneg@f1+2),w
  9520  1B39  0472               	iorwf	(___flneg@f1+1),w
  9521  1B3A  0471               	iorwf	(___flneg@f1),w
  9522  1B3B  0470               	skipnz
  9523  1B3C  1903               	goto	u4751
  9524  1B3D  2B3F               	goto	u4750
  9525  1B3E  2B40               u4751:
  9526  1B3F                     	goto	l2715
  9527  1B3F  2B43               u4750:
  9528  1B40                     	line	18
  9529                           	
  9530                           l2713:	
  9531  1B40                     	movlw	080h
  9532  1B40  3080               	xorwf	(___flneg@f1+3),f
  9533  1B41  06F3               	goto	l2715
  9534  1B42  2B43               	
  9535                           l432:	
  9536  1B43                     	line	19
  9537                           	
  9538                           l2715:	
  9539  1B43                     	goto	l433
  9540  1B43  2B44               	
  9541                           l2717:	
  9542  1B44                     	line	20
  9543                           	
  9544                           l433:	
  9545  1B44                     	return
  9546  1B44  0008               	opt stack 0
  9547                           GLOBAL	__end_of___flneg
  9548                           	__end_of___flneg:
  9549  1B45                     	signat	___flneg,4220
  9550                           	global	___flge
  9551                           
  9552 ;; *************** function ___flge *****************
  9553 ;; Defined at:
  9554 ;;		line 4 in file "C:\Program Files (x86)\Microchip\xc8\v2.00\pic\sources\c90\common\flge.c"
  9555 ;; Parameters:    Size  Location     Type
  9556 ;;  ff1             4    0[COMMON] unsigned char 
  9557 ;;  ff2             4    4[COMMON] unsigned char 
  9558 ;; Auto vars:     Size  Location     Type
  9559 ;;		None
  9560 ;; Return value:  Size  Location     Type
  9561 ;;		None               void
  9562 ;; Registers used:
  9563 ;;		wreg, status,2, status,0
  9564 ;; Tracked objects:
  9565 ;;		On entry : 0/0
  9566 ;;		On exit  : 0/0
  9567 ;;		Unchanged: 0/0
  9568 ;; Data sizes:     COMMON   BANK0   BANK1   BANK3   BANK2
  9569 ;;      Params:         8       0       0       0       0
  9570 ;;      Locals:         0       0       0       0       0
  9571 ;;      Temps:          0       8       0       0       0
  9572 ;;      Totals:         8       8       0       0       0
  9573 ;;Total ram usage:       16 bytes
  9574 ;; Hardware stack levels used:    1
  9575 ;; This function calls:
  9576 ;;		Nothing
  9577 ;; This function is called by:
  9578 ;;		_sprintf
  9579 ;; This function uses a non-reentrant model
  9580 ;;
  9581                           psect	text20,local,class=CODE,delta=2,merge=1,group=1
  9582                           	file	"C:\Program Files (x86)\Microchip\xc8\v2.00\pic\sources\c90\common\flge.c"
  9583                           	line	4
  9584                           global __ptext20
  9585                           __ptext20:	;psect for function ___flge
  9586  0858                     psect	text20
  9587                           	file	"C:\Program Files (x86)\Microchip\xc8\v2.00\pic\sources\c90\common\flge.c"
  9588                           	line	4
  9589                           	global	__size_of___flge
  9590                           	__size_of___flge	equ	__end_of___flge-___flge
  9591  00C3                     	
  9592                           ___flge:	
  9593  0858                     ;incstack = 0
  9594                           	opt	stack 6
  9595                           ; Regs used in ___flge: [wreg+status,2+status,0]
  9596                           	line	7
  9597                           	
  9598                           l2685:	
  9599  0858                     	movlw	0
  9600  0858  3000               	andwf	(___flge@ff1),w
  9601  0859  0570               	bcf	status, 5	;RP0=0, select bank0
  9602  085A  1283               	bcf	status, 6	;RP1=0, select bank0
  9603  085B  1303               	movwf	(??___flge+0)+0
  9604  085C  00A0               	movlw	0
  9605  085D  3000               	andwf	(___flge@ff1+1),w
  9606  085E  0571               	movwf	((??___flge+0)+0+1)
  9607  085F  00A1               	movlw	080h
  9608  0860  3080               	andwf	(___flge@ff1+2),w
  9609  0861  0572               	movwf	((??___flge+0)+0+2)
  9610  0862  00A2               	movlw	07Fh
  9611  0863  307F               	andwf	(___flge@ff1+3),w
  9612  0864  0573               	movwf	((??___flge+0)+0+3)
  9613  0865  00A3               	movf	3+(??___flge+0)+0,w
  9614  0866  0823               	iorwf	2+(??___flge+0)+0,w
  9615  0867  0422               	iorwf	1+(??___flge+0)+0,w
  9616  0868  0421               	iorwf	0+(??___flge+0)+0,w
  9617  0869  0420               	skipz
  9618  086A  1D03               	goto	u4681
  9619  086B  286D               	goto	u4680
  9620  086C  286E               u4681:
  9621  086D                     	goto	l425
  9622  086D  2876               u4680:
  9623  086E                     	line	8
  9624                           	
  9625                           l2687:	
  9626  086E                     	movlw	high highword(0)
  9627  086E  3000               	movwf	(___flge@ff1+3)
  9628  086F  00F3               	movlw	low highword(0)
  9629  0870  3000               	movwf	(___flge@ff1+2)
  9630  0871  00F2               	movlw	high(0)
  9631  0872  3000               	movwf	(___flge@ff1+1)
  9632  0873  00F1               	movlw	low(0)
  9633  0874  3000               	movwf	(___flge@ff1)
  9634  0875  00F0               
  9635                           	
  9636                           l425:	
  9637  0876                     	line	9
  9638                           	movlw	0
  9639  0876  3000               	andwf	(___flge@ff2),w
  9640  0877  0574               	movwf	(??___flge+0)+0
  9641  0878  00A0               	movlw	0
  9642  0879  3000               	andwf	(___flge@ff2+1),w
  9643  087A  0575               	movwf	((??___flge+0)+0+1)
  9644  087B  00A1               	movlw	080h
  9645  087C  3080               	andwf	(___flge@ff2+2),w
  9646  087D  0576               	movwf	((??___flge+0)+0+2)
  9647  087E  00A2               	movlw	07Fh
  9648  087F  307F               	andwf	(___flge@ff2+3),w
  9649  0880  0577               	movwf	((??___flge+0)+0+3)
  9650  0881  00A3               	movf	3+(??___flge+0)+0,w
  9651  0882  0823               	iorwf	2+(??___flge+0)+0,w
  9652  0883  0422               	iorwf	1+(??___flge+0)+0,w
  9653  0884  0421               	iorwf	0+(??___flge+0)+0,w
  9654  0885  0420               	skipz
  9655  0886  1D03               	goto	u4691
  9656  0887  2889               	goto	u4690
  9657  0888  288A               u4691:
  9658  0889                     	goto	l2691
  9659  0889  2893               u4690:
  9660  088A                     	line	10
  9661                           	
  9662                           l2689:	
  9663  088A                     	movlw	high highword(0)
  9664  088A  3000               	movwf	(___flge@ff2+3)
  9665  088B  00F7               	movlw	low highword(0)
  9666  088C  3000               	movwf	(___flge@ff2+2)
  9667  088D  00F6               	movlw	high(0)
  9668  088E  3000               	movwf	(___flge@ff2+1)
  9669  088F  00F5               	movlw	low(0)
  9670  0890  3000               	movwf	(___flge@ff2)
  9671  0891  00F4               
  9672                           	goto	l2691
  9673  0892  2893               	
  9674                           l426:	
  9675  0893                     	line	12
  9676                           	
  9677                           l2691:	
  9678  0893                     	btfss	(___flge@ff1+3),(31)&7
  9679  0893  1FF3               	goto	u4701
  9680  0894  2896               	goto	u4700
  9681  0895  2897               u4701:
  9682  0896                     	goto	l2695
  9683  0896  28C9               u4700:
  9684  0897                     	line	13
  9685                           	
  9686                           l2693:	
  9687  0897                     	movlw	0
  9688  0897  3000               	movwf	((??___flge+0)+0)
  9689  0898  00A0               	movlw	0
  9690  0899  3000               	movwf	((??___flge+0)+0+1)
  9691  089A  00A1               	movlw	0
  9692  089B  3000               	movwf	((??___flge+0)+0+2)
  9693  089C  00A2               	movlw	080h
  9694  089D  3080               	movwf	((??___flge+0)+0+3)
  9695  089E  00A3               	comf	(___flge@ff1),w
  9696  089F  0970               	movwf	(??___flge+4)+0
  9697  08A0  00A4               	comf	(___flge@ff1+1),w
  9698  08A1  0971               	movwf	((??___flge+4)+0+1)
  9699  08A2  00A5               	comf	(___flge@ff1+2),w
  9700  08A3  0972               	movwf	((??___flge+4)+0+2)
  9701  08A4  00A6               	comf	(___flge@ff1+3),w
  9702  08A5  0973               	movwf	((??___flge+4)+0+3)
  9703  08A6  00A7               	incf	(??___flge+4)+0,f
  9704  08A7  0AA4               	skipnz
  9705  08A8  1903               	incf	((??___flge+4)+0+1),f
  9706  08A9  0AA5               	skipnz
  9707  08AA  1903               	incf	((??___flge+4)+0+2),f
  9708  08AB  0AA6               	skipnz
  9709  08AC  1903               	incf	((??___flge+4)+0+3),f
  9710  08AD  0AA7               	movf	0+(??___flge+4)+0,w
  9711  08AE  0824               	addwf	(??___flge+0)+0,f
  9712  08AF  07A0               	movf	1+(??___flge+4)+0,w
  9713  08B0  0825               	skipnc
  9714  08B1  1803               	incfsz	1+(??___flge+4)+0,w
  9715  08B2  0F25               	goto	u4710
  9716  08B3  28B5               	goto	u4711
  9717  08B4  28B6               u4710:
  9718  08B5                     	addwf	(??___flge+0)+1,f
  9719  08B5  07A1               u4711:
  9720  08B6                     	movf	2+(??___flge+4)+0,w
  9721  08B6  0826               	skipnc
  9722  08B7  1803               	incfsz	2+(??___flge+4)+0,w
  9723  08B8  0F26               	goto	u4712
  9724  08B9  28BB               	goto	u4713
  9725  08BA  28BC               u4712:
  9726  08BB                     	addwf	(??___flge+0)+2,f
  9727  08BB  07A2               u4713:
  9728  08BC                     	movf	3+(??___flge+4)+0,w
  9729  08BC  0827               	skipnc
  9730  08BD  1803               	incf	3+(??___flge+4)+0,w
  9731  08BE  0A27               	addwf	(??___flge+0)+3,f
  9732  08BF  07A3               	movf	3+(??___flge+0)+0,w
  9733  08C0  0823               	movwf	(___flge@ff1+3)
  9734  08C1  00F3               	movf	2+(??___flge+0)+0,w
  9735  08C2  0822               	movwf	(___flge@ff1+2)
  9736  08C3  00F2               	movf	1+(??___flge+0)+0,w
  9737  08C4  0821               	movwf	(___flge@ff1+1)
  9738  08C5  00F1               	movf	0+(??___flge+0)+0,w
  9739  08C6  0820               	movwf	(___flge@ff1)
  9740  08C7  00F0               
  9741                           	goto	l2695
  9742  08C8  28C9               	
  9743                           l427:	
  9744  08C9                     	line	14
  9745                           	
  9746                           l2695:	
  9747  08C9                     	btfss	(___flge@ff2+3),(31)&7
  9748  08C9  1FF7               	goto	u4721
  9749  08CA  28CC               	goto	u4720
  9750  08CB  28CD               u4721:
  9751  08CC                     	goto	l2699
  9752  08CC  28FF               u4720:
  9753  08CD                     	line	15
  9754                           	
  9755                           l2697:	
  9756  08CD                     	movlw	0
  9757  08CD  3000               	movwf	((??___flge+0)+0)
  9758  08CE  00A0               	movlw	0
  9759  08CF  3000               	movwf	((??___flge+0)+0+1)
  9760  08D0  00A1               	movlw	0
  9761  08D1  3000               	movwf	((??___flge+0)+0+2)
  9762  08D2  00A2               	movlw	080h
  9763  08D3  3080               	movwf	((??___flge+0)+0+3)
  9764  08D4  00A3               	comf	(___flge@ff2),w
  9765  08D5  0974               	movwf	(??___flge+4)+0
  9766  08D6  00A4               	comf	(___flge@ff2+1),w
  9767  08D7  0975               	movwf	((??___flge+4)+0+1)
  9768  08D8  00A5               	comf	(___flge@ff2+2),w
  9769  08D9  0976               	movwf	((??___flge+4)+0+2)
  9770  08DA  00A6               	comf	(___flge@ff2+3),w
  9771  08DB  0977               	movwf	((??___flge+4)+0+3)
  9772  08DC  00A7               	incf	(??___flge+4)+0,f
  9773  08DD  0AA4               	skipnz
  9774  08DE  1903               	incf	((??___flge+4)+0+1),f
  9775  08DF  0AA5               	skipnz
  9776  08E0  1903               	incf	((??___flge+4)+0+2),f
  9777  08E1  0AA6               	skipnz
  9778  08E2  1903               	incf	((??___flge+4)+0+3),f
  9779  08E3  0AA7               	movf	0+(??___flge+4)+0,w
  9780  08E4  0824               	addwf	(??___flge+0)+0,f
  9781  08E5  07A0               	movf	1+(??___flge+4)+0,w
  9782  08E6  0825               	skipnc
  9783  08E7  1803               	incfsz	1+(??___flge+4)+0,w
  9784  08E8  0F25               	goto	u4730
  9785  08E9  28EB               	goto	u4731
  9786  08EA  28EC               u4730:
  9787  08EB                     	addwf	(??___flge+0)+1,f
  9788  08EB  07A1               u4731:
  9789  08EC                     	movf	2+(??___flge+4)+0,w
  9790  08EC  0826               	skipnc
  9791  08ED  1803               	incfsz	2+(??___flge+4)+0,w
  9792  08EE  0F26               	goto	u4732
  9793  08EF  28F1               	goto	u4733
  9794  08F0  28F2               u4732:
  9795  08F1                     	addwf	(??___flge+0)+2,f
  9796  08F1  07A2               u4733:
  9797  08F2                     	movf	3+(??___flge+4)+0,w
  9798  08F2  0827               	skipnc
  9799  08F3  1803               	incf	3+(??___flge+4)+0,w
  9800  08F4  0A27               	addwf	(??___flge+0)+3,f
  9801  08F5  07A3               	movf	3+(??___flge+0)+0,w
  9802  08F6  0823               	movwf	(___flge@ff2+3)
  9803  08F7  00F7               	movf	2+(??___flge+0)+0,w
  9804  08F8  0822               	movwf	(___flge@ff2+2)
  9805  08F9  00F6               	movf	1+(??___flge+0)+0,w
  9806  08FA  0821               	movwf	(___flge@ff2+1)
  9807  08FB  00F5               	movf	0+(??___flge+0)+0,w
  9808  08FC  0820               	movwf	(___flge@ff2)
  9809  08FD  00F4               
  9810                           	goto	l2699
  9811  08FE  28FF               	
  9812                           l428:	
  9813  08FF                     	line	16
  9814                           	
  9815                           l2699:	
  9816  08FF                     	movlw	080h
  9817  08FF  3080               	xorwf	(___flge@ff1+3),f
  9818  0900  06F3               	line	17
  9819                           	
  9820                           l2701:	
  9821  0901                     	movlw	080h
  9822  0901  3080               	xorwf	(___flge@ff2+3),f
  9823  0902  06F7               	line	18
  9824                           	
  9825                           l2703:	
  9826  0903                     	movf	(___flge@ff2+3),w
  9827  0903  0877               	subwf	(___flge@ff1+3),w
  9828  0904  0273               	skipz
  9829  0905  1D03               	goto	u4745
  9830  0906  2911               	movf	(___flge@ff2+2),w
  9831  0907  0876               	subwf	(___flge@ff1+2),w
  9832  0908  0272               	skipz
  9833  0909  1D03               	goto	u4745
  9834  090A  2911               	movf	(___flge@ff2+1),w
  9835  090B  0875               	subwf	(___flge@ff1+1),w
  9836  090C  0271               	skipz
  9837  090D  1D03               	goto	u4745
  9838  090E  2911               	movf	(___flge@ff2),w
  9839  090F  0874               	subwf	(___flge@ff1),w
  9840  0910  0270               u4745:
  9841  0911                     	skipnc
  9842  0911  1803               	goto	u4741
  9843  0912  2914               	goto	u4740
  9844  0913  2915               u4741:
  9845  0914                     	goto	l2707
  9846  0914  2917               u4740:
  9847  0915                     	
  9848                           l2705:	
  9849  0915                     	clrc
  9850  0915  1003               	
  9851                           	goto	l429
  9852  0916  291A               	
  9853                           l1989:	
  9854  0917                     	
  9855                           l2707:	
  9856  0917                     	setc
  9857  0917  1403               	
  9858                           	goto	l429
  9859  0918  291A               	
  9860                           l1991:	
  9861  0919                     	goto	l429
  9862  0919  291A               	
  9863                           l2709:	
  9864  091A                     	line	19
  9865                           	
  9866                           l429:	
  9867  091A                     	return
  9868  091A  0008               	opt stack 0
  9869                           GLOBAL	__end_of___flge
  9870                           	__end_of___flge:
  9871  091B                     	signat	___flge,8312
  9872                           	global	___fleq
  9873                           
  9874 ;; *************** function ___fleq *****************
  9875 ;; Defined at:
  9876 ;;		line 4 in file "C:\Program Files (x86)\Microchip\xc8\v2.00\pic\sources\c90\common\fleq.c"
  9877 ;; Parameters:    Size  Location     Type
  9878 ;;  ff1             4    0[COMMON] unsigned char 
  9879 ;;  ff2             4    4[COMMON] unsigned char 
  9880 ;; Auto vars:     Size  Location     Type
  9881 ;;		None
  9882 ;; Return value:  Size  Location     Type
  9883 ;;		None               void
  9884 ;; Registers used:
  9885 ;;		wreg, status,2, status,0
  9886 ;; Tracked objects:
  9887 ;;		On entry : 0/0
  9888 ;;		On exit  : 0/0
  9889 ;;		Unchanged: 0/0
  9890 ;; Data sizes:     COMMON   BANK0   BANK1   BANK3   BANK2
  9891 ;;      Params:         8       0       0       0       0
  9892 ;;      Locals:         0       0       0       0       0
  9893 ;;      Temps:          4       0       0       0       0
  9894 ;;      Totals:        12       0       0       0       0
  9895 ;;Total ram usage:       12 bytes
  9896 ;; Hardware stack levels used:    1
  9897 ;; This function calls:
  9898 ;;		Nothing
  9899 ;; This function is called by:
  9900 ;;		_sprintf
  9901 ;; This function uses a non-reentrant model
  9902 ;;
  9903                           psect	text21,local,class=CODE,delta=2,merge=1,group=1
  9904                           	file	"C:\Program Files (x86)\Microchip\xc8\v2.00\pic\sources\c90\common\fleq.c"
  9905                           	line	4
  9906                           global __ptext21
  9907                           __ptext21:	;psect for function ___fleq
  9908  1C3E                     psect	text21
  9909                           	file	"C:\Program Files (x86)\Microchip\xc8\v2.00\pic\sources\c90\common\fleq.c"
  9910                           	line	4
  9911                           	global	__size_of___fleq
  9912                           	__size_of___fleq	equ	__end_of___fleq-___fleq
  9913  0050                     	
  9914                           ___fleq:	
  9915  1C3E                     ;incstack = 0
  9916                           	opt	stack 6
  9917                           ; Regs used in ___fleq: [wreg+status,2+status,0]
  9918                           	line	7
  9919                           	
  9920                           l2673:	
  9921  1C3E                     	movlw	0
  9922  1C3E  3000               	andwf	(___fleq@ff1),w
  9923  1C3F  0570               	movwf	(??___fleq+0)+0
  9924  1C40  00F8               	movlw	0
  9925  1C41  3000               	andwf	(___fleq@ff1+1),w
  9926  1C42  0571               	movwf	((??___fleq+0)+0+1)
  9927  1C43  00F9               	movlw	080h
  9928  1C44  3080               	andwf	(___fleq@ff1+2),w
  9929  1C45  0572               	movwf	((??___fleq+0)+0+2)
  9930  1C46  00FA               	movlw	07Fh
  9931  1C47  307F               	andwf	(___fleq@ff1+3),w
  9932  1C48  0573               	movwf	((??___fleq+0)+0+3)
  9933  1C49  00FB               	movf	3+(??___fleq+0)+0,w
  9934  1C4A  087B               	iorwf	2+(??___fleq+0)+0,w
  9935  1C4B  047A               	iorwf	1+(??___fleq+0)+0,w
  9936  1C4C  0479               	iorwf	0+(??___fleq+0)+0,w
  9937  1C4D  0478               	skipz
  9938  1C4E  1D03               	goto	u4651
  9939  1C4F  2C51               	goto	u4650
  9940  1C50  2C52               u4651:
  9941  1C51                     	goto	l420
  9942  1C51  2C5A               u4650:
  9943  1C52                     	line	8
  9944                           	
  9945                           l2675:	
  9946  1C52                     	movlw	high highword(0)
  9947  1C52  3000               	movwf	(___fleq@ff1+3)
  9948  1C53  00F3               	movlw	low highword(0)
  9949  1C54  3000               	movwf	(___fleq@ff1+2)
  9950  1C55  00F2               	movlw	high(0)
  9951  1C56  3000               	movwf	(___fleq@ff1+1)
  9952  1C57  00F1               	movlw	low(0)
  9953  1C58  3000               	movwf	(___fleq@ff1)
  9954  1C59  00F0               
  9955                           	
  9956                           l420:	
  9957  1C5A                     	line	9
  9958                           	movlw	0
  9959  1C5A  3000               	andwf	(___fleq@ff2),w
  9960  1C5B  0574               	movwf	(??___fleq+0)+0
  9961  1C5C  00F8               	movlw	0
  9962  1C5D  3000               	andwf	(___fleq@ff2+1),w
  9963  1C5E  0575               	movwf	((??___fleq+0)+0+1)
  9964  1C5F  00F9               	movlw	080h
  9965  1C60  3080               	andwf	(___fleq@ff2+2),w
  9966  1C61  0576               	movwf	((??___fleq+0)+0+2)
  9967  1C62  00FA               	movlw	07Fh
  9968  1C63  307F               	andwf	(___fleq@ff2+3),w
  9969  1C64  0577               	movwf	((??___fleq+0)+0+3)
  9970  1C65  00FB               	movf	3+(??___fleq+0)+0,w
  9971  1C66  087B               	iorwf	2+(??___fleq+0)+0,w
  9972  1C67  047A               	iorwf	1+(??___fleq+0)+0,w
  9973  1C68  0479               	iorwf	0+(??___fleq+0)+0,w
  9974  1C69  0478               	skipz
  9975  1C6A  1D03               	goto	u4661
  9976  1C6B  2C6D               	goto	u4660
  9977  1C6C  2C6E               u4661:
  9978  1C6D                     	goto	l421
  9979  1C6D  2C76               u4660:
  9980  1C6E                     	line	10
  9981                           	
  9982                           l2677:	
  9983  1C6E                     	movlw	high highword(0)
  9984  1C6E  3000               	movwf	(___fleq@ff2+3)
  9985  1C6F  00F7               	movlw	low highword(0)
  9986  1C70  3000               	movwf	(___fleq@ff2+2)
  9987  1C71  00F6               	movlw	high(0)
  9988  1C72  3000               	movwf	(___fleq@ff2+1)
  9989  1C73  00F5               	movlw	low(0)
  9990  1C74  3000               	movwf	(___fleq@ff2)
  9991  1C75  00F4               
  9992                           	
  9993                           l421:	
  9994  1C76                     	line	11
  9995                           	movf	(___fleq@ff2+3),w
  9996  1C76  0877               	xorwf	(___fleq@ff1+3),w
  9997  1C77  0673               	skipz
  9998  1C78  1D03               	goto	u4675
  9999  1C79  2C84               	movf	(___fleq@ff2+2),w
 10000  1C7A  0876               	xorwf	(___fleq@ff1+2),w
 10001  1C7B  0672               	skipz
 10002  1C7C  1D03               	goto	u4675
 10003  1C7D  2C84               	movf	(___fleq@ff2+1),w
 10004  1C7E  0875               	xorwf	(___fleq@ff1+1),w
 10005  1C7F  0671               	skipz
 10006  1C80  1D03               	goto	u4675
 10007  1C81  2C84               	movf	(___fleq@ff2),w
 10008  1C82  0874               	xorwf	(___fleq@ff1),w
 10009  1C83  0670               u4675:
 10010  1C84                     	skipnz
 10011  1C84  1903               	goto	u4671
 10012  1C85  2C87               	goto	u4670
 10013  1C86  2C88               u4671:
 10014  1C87                     	goto	l2681
 10015  1C87  2C8A               u4670:
 10016  1C88                     	
 10017                           l2679:	
 10018  1C88                     	clrc
 10019  1C88  1003               	
 10020                           	goto	l422
 10021  1C89  2C8D               	
 10022                           l1985:	
 10023  1C8A                     	
 10024                           l2681:	
 10025  1C8A                     	setc
 10026  1C8A  1403               	
 10027                           	goto	l422
 10028  1C8B  2C8D               	
 10029                           l1987:	
 10030  1C8C                     	goto	l422
 10031  1C8C  2C8D               	
 10032                           l2683:	
 10033  1C8D                     	line	12
 10034                           	
 10035                           l422:	
 10036  1C8D                     	return
 10037  1C8D  0008               	opt stack 0
 10038                           GLOBAL	__end_of___fleq
 10039                           	__end_of___fleq:
 10040  1C8E                     	signat	___fleq,8312
 10041                           	global	_adc_start
 10042                           
 10043 ;; *************** function _adc_start *****************
 10044 ;; Defined at:
 10045 ;;		line 63 in file "newmain.c"
 10046 ;; Parameters:    Size  Location     Type
 10047 ;;		None
 10048 ;; Auto vars:     Size  Location     Type
 10049 ;;		None
 10050 ;; Return value:  Size  Location     Type
 10051 ;;                  1    wreg      void 
 10052 ;; Registers used:
 10053 ;;		None
 10054 ;; Tracked objects:
 10055 ;;		On entry : 0/0
 10056 ;;		On exit  : 0/0
 10057 ;;		Unchanged: 0/0
 10058 ;; Data sizes:     COMMON   BANK0   BANK1   BANK3   BANK2
 10059 ;;      Params:         0       0       0       0       0
 10060 ;;      Locals:         0       0       0       0       0
 10061 ;;      Temps:          0       0       0       0       0
 10062 ;;      Totals:         0       0       0       0       0
 10063 ;;Total ram usage:        0 bytes
 10064 ;; Hardware stack levels used:    1
 10065 ;; This function calls:
 10066 ;;		Nothing
 10067 ;; This function is called by:
 10068 ;;		_main
 10069 ;; This function uses a non-reentrant model
 10070 ;;
 10071                           psect	text22,local,class=CODE,delta=2,merge=1,group=0
 10072                           	file	"newmain.c"
 10073                           	line	63
 10074                           global __ptext22
 10075                           __ptext22:	;psect for function _adc_start
 10076  0003                     psect	text22
 10077                           	file	"newmain.c"
 10078                           	line	63
 10079                           	global	__size_of_adc_start
 10080                           	__size_of_adc_start	equ	__end_of_adc_start-_adc_start
 10081  0004                     	
 10082                           _adc_start:	
 10083  0003                     ;incstack = 0
 10084                           	opt	stack 7
 10085                           ; Regs used in _adc_start: []
 10086                           	line	65
 10087                           	
 10088                           l2979:	
 10089  0003                     ;newmain.c: 65:     GO_DONE=1;
 10090                           	bcf	status, 5	;RP0=0, select bank0
 10091  0003  1283               	bcf	status, 6	;RP1=0, select bank0
 10092  0004  1303               	bsf	(250/8),(250)&7	;volatile
 10093  0005  151F               	line	66
 10094                           	
 10095                           l53:	
 10096  0006                     	return
 10097  0006  0008               	opt stack 0
 10098                           GLOBAL	__end_of_adc_start
 10099                           	__end_of_adc_start:
 10100  0007                     	signat	_adc_start,89
 10101                           	global	_adc_read
 10102                           
 10103 ;; *************** function _adc_read *****************
 10104 ;; Defined at:
 10105 ;;		line 67 in file "newmain.c"
 10106 ;; Parameters:    Size  Location     Type
 10107 ;;		None
 10108 ;; Auto vars:     Size  Location     Type
 10109 ;;		None
 10110 ;; Return value:  Size  Location     Type
 10111 ;;                  4   39[BANK0 ] float 
 10112 ;; Registers used:
 10113 ;;		wreg, status,2, status,0, btemp+1, pclath, cstack
 10114 ;; Tracked objects:
 10115 ;;		On entry : 0/0
 10116 ;;		On exit  : 0/0
 10117 ;;		Unchanged: 0/0
 10118 ;; Data sizes:     COMMON   BANK0   BANK1   BANK3   BANK2
 10119 ;;      Params:         0       4       0       0       0
 10120 ;;      Locals:         0       0       0       0       0
 10121 ;;      Temps:          0       0       0       0       0
 10122 ;;      Totals:         0       4       0       0       0
 10123 ;;Total ram usage:        4 bytes
 10124 ;; Hardware stack levels used:    1
 10125 ;; Hardware stack levels required when called:    2
 10126 ;; This function calls:
 10127 ;;		___fldiv
 10128 ;;		___flmul
 10129 ;;		___xxtofl
 10130 ;; This function is called by:
 10131 ;;		_main
 10132 ;; This function uses a non-reentrant model
 10133 ;;
 10134                           psect	text23,local,class=CODE,delta=2,merge=1,group=0
 10135                           	line	67
 10136                           global __ptext23
 10137                           __ptext23:	;psect for function _adc_read
 10138  1E1C                     psect	text23
 10139                           	file	"newmain.c"
 10140                           	line	67
 10141                           	global	__size_of_adc_read
 10142                           	__size_of_adc_read	equ	__end_of_adc_read-_adc_read
 10143  0086                     	
 10144                           _adc_read:	
 10145  1E1C                     ;incstack = 0
 10146                           	opt	stack 5
 10147                           ; Regs used in _adc_read: [wreg+status,2+status,0+btemp+1+pclath+cstack]
 10148                           	line	69
 10149                           	
 10150                           l2981:	
 10151  1E1C                     ;newmain.c: 69:     while(GO_DONE);
 10152                           	goto	l56
 10153  1E1C  2E1D               	
 10154                           l57:	
 10155  1E1D                     	
 10156                           l56:	
 10157  1E1D                     	bcf	status, 5	;RP0=0, select bank0
 10158  1E1D  1283               	bcf	status, 6	;RP1=0, select bank0
 10159  1E1E  1303               	btfsc	(250/8),(250)&7	;volatile
 10160  1E1F  191F               	goto	u5371
 10161  1E20  2E22               	goto	u5370
 10162  1E21  2E23               u5371:
 10163  1E22                     	goto	l56
 10164  1E22  2E1D               u5370:
 10165  1E23                     	goto	l2983
 10166  1E23  2E24               	
 10167                           l58:	
 10168  1E24                     	line	70
 10169                           	
 10170                           l2983:	
 10171  1E24                     ;newmain.c: 70:     adc_val=ADRESL+(ADRESH);
 10172                           	bsf	status, 5	;RP0=1, select bank1
 10173  1E24  1683               	bcf	status, 6	;RP1=0, select bank1
 10174  1E25  1303               	movf	(158)^080h,w	;volatile
 10175  1E26  081E               	bcf	status, 5	;RP0=0, select bank0
 10176  1E27  1283               	bcf	status, 6	;RP1=0, select bank0
 10177  1E28  1303               	addwf	(30),w	;volatile
 10178  1E29  071E               	movwf	(___xxtofl@val)
 10179  1E2A  00F0               	clrf	(___xxtofl@val)+1
 10180  1E2B  01F1               	rlf	1+(___xxtofl@val),f
 10181  1E2C  0DF1               	
 10182                           	clrf	(___xxtofl@val)+2
 10183  1E2D  01F2               	btfsc	(___xxtofl@val)+1,7
 10184  1E2E  1BF1               	decf	2+(___xxtofl@val),f
 10185  1E2F  03F2               	movf	(___xxtofl@val)+2,w
 10186  1E30  0872               	movwf	3+(___xxtofl@val)
 10187  1E31  00F3               	movlw	low(01h)
 10188  1E32  3001               	fcall	___xxtofl
 10189  1E33  160A  158A  273E  160A  158A  	movf	(3+(?___xxtofl)),w
 10190  1E38  0873               	bsf	status, 5	;RP0=1, select bank1
 10191  1E39  1683               	bcf	status, 6	;RP1=0, select bank1
 10192  1E3A  1303               	movwf	(_adc_val+3)^080h
 10193  1E3B  00E9               	movf	(2+(?___xxtofl)),w
 10194  1E3C  0872               	movwf	(_adc_val+2)^080h
 10195  1E3D  00E8               	movf	(1+(?___xxtofl)),w
 10196  1E3E  0871               	movwf	(_adc_val+1)^080h
 10197  1E3F  00E7               	movf	(0+(?___xxtofl)),w
 10198  1E40  0870               	movwf	(_adc_val)^080h
 10199  1E41  00E6               
 10200                           	line	71
 10201                           	
 10202                           l2985:	
 10203  1E42                     ;newmain.c: 71:     adc_val=((adc_val)/1024)*5;
 10204                           	movlw	0x40
 10205  1E42  3040               	bcf	status, 5	;RP0=0, select bank0
 10206  1E43  1283               	bcf	status, 6	;RP1=0, select bank0
 10207  1E44  1303               	movwf	(___flmul@b+3)
 10208  1E45  00B0               	movlw	0xa0
 10209  1E46  30A0               	movwf	(___flmul@b+2)
 10210  1E47  00AF               	movlw	0x0
 10211  1E48  3000               	movwf	(___flmul@b+1)
 10212  1E49  00AE               	movlw	0x0
 10213  1E4A  3000               	movwf	(___flmul@b)
 10214  1E4B  00AD               
 10215                           	movlw	0x44
 10216  1E4C  3044               	movwf	(___fldiv@a+3)
 10217  1E4D  00F3               	movlw	0x80
 10218  1E4E  3080               	movwf	(___fldiv@a+2)
 10219  1E4F  00F2               	movlw	0x0
 10220  1E50  3000               	movwf	(___fldiv@a+1)
 10221  1E51  00F1               	movlw	0x0
 10222  1E52  3000               	movwf	(___fldiv@a)
 10223  1E53  00F0               
 10224                           	bsf	status, 5	;RP0=1, select bank1
 10225  1E54  1683               	bcf	status, 6	;RP1=0, select bank1
 10226  1E55  1303               	movf	(_adc_val+3)^080h,w
 10227  1E56  0869               	movwf	(___fldiv@b+3)
 10228  1E57  00F7               	movf	(_adc_val+2)^080h,w
 10229  1E58  0868               	movwf	(___fldiv@b+2)
 10230  1E59  00F6               	movf	(_adc_val+1)^080h,w
 10231  1E5A  0867               	movwf	(___fldiv@b+1)
 10232  1E5B  00F5               	movf	(_adc_val)^080h,w
 10233  1E5C  0866               	movwf	(___fldiv@b)
 10234  1E5D  00F4               
 10235                           	fcall	___fldiv
 10236  1E5E  160A  118A  206F  160A  158A  	movf	(3+(?___fldiv)),w
 10237  1E63  0873               	bcf	status, 5	;RP0=0, select bank0
 10238  1E64  1283               	bcf	status, 6	;RP1=0, select bank0
 10239  1E65  1303               	movwf	(___flmul@a+3)
 10240  1E66  00B4               	movf	(2+(?___fldiv)),w
 10241  1E67  0872               	movwf	(___flmul@a+2)
 10242  1E68  00B3               	movf	(1+(?___fldiv)),w
 10243  1E69  0871               	movwf	(___flmul@a+1)
 10244  1E6A  00B2               	movf	(0+(?___fldiv)),w
 10245  1E6B  0870               	movwf	(___flmul@a)
 10246  1E6C  00B1               
 10247                           	fcall	___flmul
 10248  1E6D  120A  158A  248B  160A  158A  	bcf	status, 5	;RP0=0, select bank0
 10249  1E72  1283               	bcf	status, 6	;RP1=0, select bank0
 10250  1E73  1303               	movf	(3+(?___flmul)),w
 10251  1E74  0830               	bsf	status, 5	;RP0=1, select bank1
 10252  1E75  1683               	bcf	status, 6	;RP1=0, select bank1
 10253  1E76  1303               	movwf	(_adc_val+3)^080h
 10254  1E77  00E9               	bcf	status, 5	;RP0=0, select bank0
 10255  1E78  1283               	bcf	status, 6	;RP1=0, select bank0
 10256  1E79  1303               	movf	(2+(?___flmul)),w
 10257  1E7A  082F               	bsf	status, 5	;RP0=1, select bank1
 10258  1E7B  1683               	bcf	status, 6	;RP1=0, select bank1
 10259  1E7C  1303               	movwf	(_adc_val+2)^080h
 10260  1E7D  00E8               	bcf	status, 5	;RP0=0, select bank0
 10261  1E7E  1283               	bcf	status, 6	;RP1=0, select bank0
 10262  1E7F  1303               	movf	(1+(?___flmul)),w
 10263  1E80  082E               	bsf	status, 5	;RP0=1, select bank1
 10264  1E81  1683               	bcf	status, 6	;RP1=0, select bank1
 10265  1E82  1303               	movwf	(_adc_val+1)^080h
 10266  1E83  00E7               	bcf	status, 5	;RP0=0, select bank0
 10267  1E84  1283               	bcf	status, 6	;RP1=0, select bank0
 10268  1E85  1303               	movf	(0+(?___flmul)),w
 10269  1E86  082D               	bsf	status, 5	;RP0=1, select bank1
 10270  1E87  1683               	bcf	status, 6	;RP1=0, select bank1
 10271  1E88  1303               	movwf	(_adc_val)^080h
 10272  1E89  00E6               
 10273                           	line	72
 10274                           	
 10275                           l2987:	
 10276  1E8A                     ;newmain.c: 72:     return adc_val;
 10277                           	movf	(_adc_val+3)^080h,w
 10278  1E8A  0869               	bcf	status, 5	;RP0=0, select bank0
 10279  1E8B  1283               	bcf	status, 6	;RP1=0, select bank0
 10280  1E8C  1303               	movwf	(?_adc_read+3)
 10281  1E8D  00CA               	bsf	status, 5	;RP0=1, select bank1
 10282  1E8E  1683               	bcf	status, 6	;RP1=0, select bank1
 10283  1E8F  1303               	movf	(_adc_val+2)^080h,w
 10284  1E90  0868               	bcf	status, 5	;RP0=0, select bank0
 10285  1E91  1283               	bcf	status, 6	;RP1=0, select bank0
 10286  1E92  1303               	movwf	(?_adc_read+2)
 10287  1E93  00C9               	bsf	status, 5	;RP0=1, select bank1
 10288  1E94  1683               	bcf	status, 6	;RP1=0, select bank1
 10289  1E95  1303               	movf	(_adc_val+1)^080h,w
 10290  1E96  0867               	bcf	status, 5	;RP0=0, select bank0
 10291  1E97  1283               	bcf	status, 6	;RP1=0, select bank0
 10292  1E98  1303               	movwf	(?_adc_read+1)
 10293  1E99  00C8               	bsf	status, 5	;RP0=1, select bank1
 10294  1E9A  1683               	bcf	status, 6	;RP1=0, select bank1
 10295  1E9B  1303               	movf	(_adc_val)^080h,w
 10296  1E9C  0866               	bcf	status, 5	;RP0=0, select bank0
 10297  1E9D  1283               	bcf	status, 6	;RP1=0, select bank0
 10298  1E9E  1303               	movwf	(?_adc_read)
 10299  1E9F  00C7               
 10300                           	goto	l59
 10301  1EA0  2EA1               	
 10302                           l2989:	
 10303  1EA1                     	line	73
 10304                           	
 10305                           l59:	
 10306  1EA1                     	return
 10307  1EA1  0008               	opt stack 0
 10308                           GLOBAL	__end_of_adc_read
 10309                           	__end_of_adc_read:
 10310  1EA2                     	signat	_adc_read,92
 10311                           	global	___xxtofl
 10312                           
 10313 ;; *************** function ___xxtofl *****************
 10314 ;; Defined at:
 10315 ;;		line 10 in file "C:\Program Files (x86)\Microchip\xc8\v2.00\pic\sources\c90\common\xxtofl.c"
 10316 ;; Parameters:    Size  Location     Type
 10317 ;;  sign            1    wreg     unsigned char 
 10318 ;;  val             4    0[COMMON] long 
 10319 ;; Auto vars:     Size  Location     Type
 10320 ;;  sign            1    8[COMMON] unsigned char 
 10321 ;;  arg             4   10[COMMON] unsigned long 
 10322 ;;  exp             1    9[COMMON] unsigned char 
 10323 ;; Return value:  Size  Location     Type
 10324 ;;                  4    0[COMMON] unsigned char 
 10325 ;; Registers used:
 10326 ;;		wreg, status,2, status,0
 10327 ;; Tracked objects:
 10328 ;;		On entry : 0/0
 10329 ;;		On exit  : 0/0
 10330 ;;		Unchanged: 0/0
 10331 ;; Data sizes:     COMMON   BANK0   BANK1   BANK3   BANK2
 10332 ;;      Params:         4       0       0       0       0
 10333 ;;      Locals:         6       0       0       0       0
 10334 ;;      Temps:          4       0       0       0       0
 10335 ;;      Totals:        14       0       0       0       0
 10336 ;;Total ram usage:       14 bytes
 10337 ;; Hardware stack levels used:    1
 10338 ;; This function calls:
 10339 ;;		Nothing
 10340 ;; This function is called by:
 10341 ;;		_adc_read
 10342 ;;		_sprintf
 10343 ;; This function uses a non-reentrant model
 10344 ;;
 10345                           psect	text24,local,class=CODE,delta=2,merge=1,group=1
 10346                           	file	"C:\Program Files (x86)\Microchip\xc8\v2.00\pic\sources\c90\common\xxtofl.c"
 10347                           	line	10
 10348                           global __ptext24
 10349                           __ptext24:	;psect for function ___xxtofl
 10350  1F3E                     psect	text24
 10351                           	file	"C:\Program Files (x86)\Microchip\xc8\v2.00\pic\sources\c90\common\xxtofl.c"
 10352                           	line	10
 10353                           	global	__size_of___xxtofl
 10354                           	__size_of___xxtofl	equ	__end_of___xxtofl-___xxtofl
 10355  00C2                     	
 10356                           ___xxtofl:	
 10357  1F3E                     ;incstack = 0
 10358                           	opt	stack 6
 10359                           ; Regs used in ___xxtofl: [wreg+status,2+status,0]
 10360                           ;___xxtofl@sign stored from wreg
 10361                           	movwf	(___xxtofl@sign)
 10362  1F3E  00F8               	line	15
 10363                           	
 10364                           l2923:	
 10365  1F3F                     	movf	((___xxtofl@sign)),w
 10366  1F3F  0878               	btfsc	status,2
 10367  1F40  1903               	goto	u5221
 10368  1F41  2F43               	goto	u5220
 10369  1F42  2F44               u5221:
 10370  1F43                     	goto	l2929
 10371  1F43  2F58               u5220:
 10372  1F44                     	
 10373                           l2925:	
 10374  1F44                     	btfss	(___xxtofl@val+3),7
 10375  1F44  1FF3               	goto	u5231
 10376  1F45  2F47               	goto	u5230
 10377  1F46  2F48               u5231:
 10378  1F47                     	goto	l2929
 10379  1F47  2F58               u5230:
 10380  1F48                     	line	16
 10381                           	
 10382                           l2927:	
 10383  1F48                     	comf	(___xxtofl@val)+0,w
 10384  1F48  0970               	movwf	(___xxtofl@arg)
 10385  1F49  00FA               	comf	(___xxtofl@val)+1,w
 10386  1F4A  0971               	movwf	(___xxtofl@arg+1)
 10387  1F4B  00FB               	comf	(___xxtofl@val)+2,w
 10388  1F4C  0972               	movwf	(___xxtofl@arg+2)
 10389  1F4D  00FC               	comf	(___xxtofl@val)+3,w
 10390  1F4E  0973               	movwf	(___xxtofl@arg+3)
 10391  1F4F  00FD               	incf	(___xxtofl@arg),f
 10392  1F50  0AFA               	skipnz
 10393  1F51  1903               	incf	(___xxtofl@arg+1),f
 10394  1F52  0AFB               	skipnz
 10395  1F53  1903               	incf	(___xxtofl@arg+2),f
 10396  1F54  0AFC               	skipnz
 10397  1F55  1903               	incf	(___xxtofl@arg+3),f
 10398  1F56  0AFD               	line	17
 10399                           	goto	l676
 10400  1F57  2F60               	line	18
 10401                           	
 10402                           l675:	
 10403  1F58                     	line	19
 10404                           	
 10405                           l2929:	
 10406  1F58                     	movf	(___xxtofl@val+3),w
 10407  1F58  0873               	movwf	(___xxtofl@arg+3)
 10408  1F59  00FD               	movf	(___xxtofl@val+2),w
 10409  1F5A  0872               	movwf	(___xxtofl@arg+2)
 10410  1F5B  00FC               	movf	(___xxtofl@val+1),w
 10411  1F5C  0871               	movwf	(___xxtofl@arg+1)
 10412  1F5D  00FB               	movf	(___xxtofl@val),w
 10413  1F5E  0870               	movwf	(___xxtofl@arg)
 10414  1F5F  00FA               
 10415                           	line	20
 10416                           	
 10417                           l676:	
 10418  1F60                     	line	21
 10419                           	movf	(___xxtofl@val+3),w
 10420  1F60  0873               	iorwf	(___xxtofl@val+2),w
 10421  1F61  0472               	iorwf	(___xxtofl@val+1),w
 10422  1F62  0471               	iorwf	(___xxtofl@val),w
 10423  1F63  0470               	skipz
 10424  1F64  1D03               	goto	u5241
 10425  1F65  2F67               	goto	u5240
 10426  1F66  2F68               u5241:
 10427  1F67                     	goto	l2935
 10428  1F67  2F72               u5240:
 10429  1F68                     	line	22
 10430                           	
 10431                           l2931:	
 10432  1F68                     	movlw	0x0
 10433  1F68  3000               	movwf	(?___xxtofl+3)
 10434  1F69  00F3               	movlw	0x0
 10435  1F6A  3000               	movwf	(?___xxtofl+2)
 10436  1F6B  00F2               	movlw	0x0
 10437  1F6C  3000               	movwf	(?___xxtofl+1)
 10438  1F6D  00F1               	movlw	0x0
 10439  1F6E  3000               	movwf	(?___xxtofl)
 10440  1F6F  00F0               
 10441                           	goto	l678
 10442  1F70  2FFF               	
 10443                           l2933:	
 10444  1F71                     	goto	l678
 10445  1F71  2FFF               	
 10446                           l677:	
 10447  1F72                     	line	23
 10448                           	
 10449                           l2935:	
 10450  1F72                     	movlw	low(096h)
 10451  1F72  3096               	movwf	(??___xxtofl+0)+0
 10452  1F73  00F4               	movf	(??___xxtofl+0)+0,w
 10453  1F74  0874               	movwf	(___xxtofl@exp)
 10454  1F75  00F9               	line	24
 10455                           	goto	l2939
 10456  1F76  2F85               	
 10457                           l680:	
 10458  1F77                     	line	25
 10459                           	
 10460                           l2937:	
 10461  1F77                     	movlw	low(01h)
 10462  1F77  3001               	movwf	(??___xxtofl+0)+0
 10463  1F78  00F4               	movf	(??___xxtofl+0)+0,w
 10464  1F79  0874               	addwf	(___xxtofl@exp),f
 10465  1F7A  07F9               	line	26
 10466                           	movlw	01h
 10467  1F7B  3001               u5255:
 10468  1F7C                     	clrc
 10469  1F7C  1003               	rrf	(___xxtofl@arg+3),f
 10470  1F7D  0CFD               	rrf	(___xxtofl@arg+2),f
 10471  1F7E  0CFC               	rrf	(___xxtofl@arg+1),f
 10472  1F7F  0CFB               	rrf	(___xxtofl@arg),f
 10473  1F80  0CFA               	addlw	-1
 10474  1F81  3EFF               	skipz
 10475  1F82  1D03               	goto	u5255
 10476  1F83  2F7C               
 10477                           	goto	l2939
 10478  1F84  2F85               	line	27
 10479                           	
 10480                           l679:	
 10481  1F85                     	line	24
 10482                           	
 10483                           l2939:	
 10484  1F85                     	movlw	high highword(0FE000000h)
 10485  1F85  30FE               	andwf	(___xxtofl@arg+3),w
 10486  1F86  057D               	btfss	status,2
 10487  1F87  1D03               	goto	u5261
 10488  1F88  2F8A               	goto	u5260
 10489  1F89  2F8B               u5261:
 10490  1F8A                     	goto	l2937
 10491  1F8A  2F77               u5260:
 10492  1F8B                     	goto	l682
 10493  1F8B  2FA8               	
 10494                           l681:	
 10495  1F8C                     	line	28
 10496                           	goto	l682
 10497  1F8C  2FA8               	
 10498                           l683:	
 10499  1F8D                     	line	29
 10500                           	
 10501                           l2941:	
 10502  1F8D                     	movlw	low(01h)
 10503  1F8D  3001               	movwf	(??___xxtofl+0)+0
 10504  1F8E  00F4               	movf	(??___xxtofl+0)+0,w
 10505  1F8F  0874               	addwf	(___xxtofl@exp),f
 10506  1F90  07F9               	line	30
 10507                           	
 10508                           l2943:	
 10509  1F91                     	movlw	01h
 10510  1F91  3001               	addwf	(___xxtofl@arg),f
 10511  1F92  07FA               	movlw	0
 10512  1F93  3000               	skipnc
 10513  1F94  1803               movlw 1
 10514  1F95  3001               	addwf	(___xxtofl@arg+1),f
 10515  1F96  07FB               	movlw	0
 10516  1F97  3000               	skipnc
 10517  1F98  1803               movlw 1
 10518  1F99  3001               	addwf	(___xxtofl@arg+2),f
 10519  1F9A  07FC               	movlw	0
 10520  1F9B  3000               	skipnc
 10521  1F9C  1803               movlw 1
 10522  1F9D  3001               	addwf	(___xxtofl@arg+3),f
 10523  1F9E  07FD               	line	31
 10524                           	
 10525                           l2945:	
 10526  1F9F                     	movlw	01h
 10527  1F9F  3001               u5275:
 10528  1FA0                     	clrc
 10529  1FA0  1003               	rrf	(___xxtofl@arg+3),f
 10530  1FA1  0CFD               	rrf	(___xxtofl@arg+2),f
 10531  1FA2  0CFC               	rrf	(___xxtofl@arg+1),f
 10532  1FA3  0CFB               	rrf	(___xxtofl@arg),f
 10533  1FA4  0CFA               	addlw	-1
 10534  1FA5  3EFF               	skipz
 10535  1FA6  1D03               	goto	u5275
 10536  1FA7  2FA0               
 10537                           	line	32
 10538                           	
 10539                           l682:	
 10540  1FA8                     	line	28
 10541                           	movlw	high highword(0FF000000h)
 10542  1FA8  30FF               	andwf	(___xxtofl@arg+3),w
 10543  1FA9  057D               	btfss	status,2
 10544  1FAA  1D03               	goto	u5281
 10545  1FAB  2FAD               	goto	u5280
 10546  1FAC  2FAE               u5281:
 10547  1FAD                     	goto	l2941
 10548  1FAD  2F8D               u5280:
 10549  1FAE                     	goto	l2949
 10550  1FAE  2FBC               	
 10551                           l684:	
 10552  1FAF                     	line	33
 10553                           	goto	l2949
 10554  1FAF  2FBC               	
 10555                           l686:	
 10556  1FB0                     	line	34
 10557                           	
 10558                           l2947:	
 10559  1FB0                     	movlw	01h
 10560  1FB0  3001               	subwf	(___xxtofl@exp),f
 10561  1FB1  02F9               	line	35
 10562                           	movlw	01h
 10563  1FB2  3001               	movwf	(??___xxtofl+0)+0
 10564  1FB3  00F4               u5295:
 10565  1FB4                     	clrc
 10566  1FB4  1003               	rlf	(___xxtofl@arg),f
 10567  1FB5  0DFA               	rlf	(___xxtofl@arg+1),f
 10568  1FB6  0DFB               	rlf	(___xxtofl@arg+2),f
 10569  1FB7  0DFC               	rlf	(___xxtofl@arg+3),f
 10570  1FB8  0DFD               	decfsz	(??___xxtofl+0)+0
 10571  1FB9  0BF4               	goto	u5295
 10572  1FBA  2FB4               	goto	l2949
 10573  1FBB  2FBC               	line	36
 10574                           	
 10575                           l685:	
 10576  1FBC                     	line	33
 10577                           	
 10578                           l2949:	
 10579  1FBC                     	btfsc	(___xxtofl@arg+2),(23)&7
 10580  1FBC  1BFC               	goto	u5301
 10581  1FBD  2FBF               	goto	u5300
 10582  1FBE  2FC0               u5301:
 10583  1FBF                     	goto	l689
 10584  1FBF  2FC7               u5300:
 10585  1FC0                     	
 10586                           l2951:	
 10587  1FC0                     	movlw	low(02h)
 10588  1FC0  3002               	subwf	(___xxtofl@exp),w
 10589  1FC1  0279               	skipnc
 10590  1FC2  1803               	goto	u5311
 10591  1FC3  2FC5               	goto	u5310
 10592  1FC4  2FC6               u5311:
 10593  1FC5                     	goto	l2947
 10594  1FC5  2FB0               u5310:
 10595  1FC6                     	goto	l689
 10596  1FC6  2FC7               	
 10597                           l688:	
 10598  1FC7                     	
 10599                           l689:	
 10600  1FC7                     	line	37
 10601                           	btfsc	(___xxtofl@exp),(0)&7
 10602  1FC7  1879               	goto	u5321
 10603  1FC8  2FCA               	goto	u5320
 10604  1FC9  2FCB               u5321:
 10605  1FCA                     	goto	l690
 10606  1FCA  2FD3               u5320:
 10607  1FCB                     	line	38
 10608                           	
 10609                           l2953:	
 10610  1FCB                     	movlw	0FFh
 10611  1FCB  30FF               	andwf	(___xxtofl@arg),f
 10612  1FCC  05FA               	movlw	0FFh
 10613  1FCD  30FF               	andwf	(___xxtofl@arg+1),f
 10614  1FCE  05FB               	movlw	07Fh
 10615  1FCF  307F               	andwf	(___xxtofl@arg+2),f
 10616  1FD0  05FC               	movlw	0FFh
 10617  1FD1  30FF               	andwf	(___xxtofl@arg+3),f
 10618  1FD2  05FD               	
 10619                           l690:	
 10620  1FD3                     	line	39
 10621                           	clrc
 10622  1FD3  1003               	rrf	(___xxtofl@exp),f
 10623  1FD4  0CF9               
 10624                           	line	40
 10625                           	
 10626                           l2955:	
 10627  1FD5                     	movf	(___xxtofl@exp),w
 10628  1FD5  0879               	movwf	(??___xxtofl+0)+0
 10629  1FD6  00F4               	clrf	(??___xxtofl+0)+0+1
 10630  1FD7  01F5               	clrf	(??___xxtofl+0)+0+2
 10631  1FD8  01F6               	clrf	(??___xxtofl+0)+0+3
 10632  1FD9  01F7               	movlw	018h
 10633  1FDA  3018               u5335:
 10634  1FDB                     	clrc
 10635  1FDB  1003               	rlf	(??___xxtofl+0)+0,f
 10636  1FDC  0DF4               	rlf	(??___xxtofl+0)+1,f
 10637  1FDD  0DF5               	rlf	(??___xxtofl+0)+2,f
 10638  1FDE  0DF6               	rlf	(??___xxtofl+0)+3,f
 10639  1FDF  0DF7               u5330:
 10640  1FE0                     	addlw	-1
 10641  1FE0  3EFF               	skipz
 10642  1FE1  1D03               	goto	u5335
 10643  1FE2  2FDB               	movf	0+(??___xxtofl+0)+0,w
 10644  1FE3  0874               	iorwf	(___xxtofl@arg),f
 10645  1FE4  04FA               	movf	1+(??___xxtofl+0)+0,w
 10646  1FE5  0875               	iorwf	(___xxtofl@arg+1),f
 10647  1FE6  04FB               	movf	2+(??___xxtofl+0)+0,w
 10648  1FE7  0876               	iorwf	(___xxtofl@arg+2),f
 10649  1FE8  04FC               	movf	3+(??___xxtofl+0)+0,w
 10650  1FE9  0877               	iorwf	(___xxtofl@arg+3),f
 10651  1FEA  04FD               	line	41
 10652                           	
 10653                           l2957:	
 10654  1FEB                     	movf	((___xxtofl@sign)),w
 10655  1FEB  0878               	btfsc	status,2
 10656  1FEC  1903               	goto	u5341
 10657  1FED  2FEF               	goto	u5340
 10658  1FEE  2FF0               u5341:
 10659  1FEF                     	goto	l2963
 10660  1FEF  2FF6               u5340:
 10661  1FF0                     	
 10662                           l2959:	
 10663  1FF0                     	btfss	(___xxtofl@val+3),7
 10664  1FF0  1FF3               	goto	u5351
 10665  1FF1  2FF3               	goto	u5350
 10666  1FF2  2FF4               u5351:
 10667  1FF3                     	goto	l2963
 10668  1FF3  2FF6               u5350:
 10669  1FF4                     	line	42
 10670                           	
 10671                           l2961:	
 10672  1FF4                     	bsf	(___xxtofl@arg)+(31/8),(31)&7
 10673  1FF4  17FD               	goto	l2963
 10674  1FF5  2FF6               	
 10675                           l691:	
 10676  1FF6                     	line	43
 10677                           	
 10678                           l2963:	
 10679  1FF6                     	movf	(___xxtofl@arg+3),w
 10680  1FF6  087D               	movwf	(?___xxtofl+3)
 10681  1FF7  00F3               	movf	(___xxtofl@arg+2),w
 10682  1FF8  087C               	movwf	(?___xxtofl+2)
 10683  1FF9  00F2               	movf	(___xxtofl@arg+1),w
 10684  1FFA  087B               	movwf	(?___xxtofl+1)
 10685  1FFB  00F1               	movf	(___xxtofl@arg),w
 10686  1FFC  087A               	movwf	(?___xxtofl)
 10687  1FFD  00F0               
 10688                           	goto	l678
 10689  1FFE  2FFF               	
 10690                           l2965:	
 10691  1FFF                     	line	44
 10692                           	
 10693                           l678:	
 10694  1FFF                     	return
 10695  1FFF  0008               	opt stack 0
 10696                           GLOBAL	__end_of___xxtofl
 10697                           	__end_of___xxtofl:
 10698  2000                     	signat	___xxtofl,8316
 10699                           	global	___flmul
 10700                           
 10701 ;; *************** function ___flmul *****************
 10702 ;; Defined at:
 10703 ;;		line 8 in file "C:\Program Files (x86)\Microchip\xc8\v2.00\pic\sources\c90\common\sprcmul.c"
 10704 ;; Parameters:    Size  Location     Type
 10705 ;;  b               4   13[BANK0 ] unsigned char 
 10706 ;;  a               4   17[BANK0 ] unsigned char 
 10707 ;; Auto vars:     Size  Location     Type
 10708 ;;  prod            4   33[BANK0 ] struct .
 10709 ;;  grs             4   27[BANK0 ] unsigned long 
 10710 ;;  temp            2   37[BANK0 ] struct .
 10711 ;;  bexp            1   32[BANK0 ] unsigned char 
 10712 ;;  aexp            1   31[BANK0 ] unsigned char 
 10713 ;;  sign            1   26[BANK0 ] unsigned char 
 10714 ;; Return value:  Size  Location     Type
 10715 ;;                  4   13[BANK0 ] unsigned char 
 10716 ;; Registers used:
 10717 ;;		wreg, status,2, status,0, btemp+1, pclath, cstack
 10718 ;; Tracked objects:
 10719 ;;		On entry : 0/0
 10720 ;;		On exit  : 0/0
 10721 ;;		Unchanged: 0/0
 10722 ;; Data sizes:     COMMON   BANK0   BANK1   BANK3   BANK2
 10723 ;;      Params:         0       8       0       0       0
 10724 ;;      Locals:         0      13       0       0       0
 10725 ;;      Temps:          0       5       0       0       0
 10726 ;;      Totals:         0      26       0       0       0
 10727 ;;Total ram usage:       26 bytes
 10728 ;; Hardware stack levels used:    1
 10729 ;; Hardware stack levels required when called:    1
 10730 ;; This function calls:
 10731 ;;		__Umul8_16
 10732 ;; This function is called by:
 10733 ;;		_adc_read
 10734 ;;		_fround
 10735 ;;		_scale
 10736 ;;		_sprintf
 10737 ;; This function uses a non-reentrant model
 10738 ;;
 10739                           psect	text25,local,class=CODE,delta=2,merge=1,group=1
 10740                           	file	"C:\Program Files (x86)\Microchip\xc8\v2.00\pic\sources\c90\common\sprcmul.c"
 10741                           	line	8
 10742                           global __ptext25
 10743                           __ptext25:	;psect for function ___flmul
 10744  0C8B                     psect	text25
 10745                           	file	"C:\Program Files (x86)\Microchip\xc8\v2.00\pic\sources\c90\common\sprcmul.c"
 10746                           	line	8
 10747                           	global	__size_of___flmul
 10748                           	__size_of___flmul	equ	__end_of___flmul-___flmul
 10749  0375                     	
 10750                           ___flmul:	
 10751  0C8B                     ;incstack = 0
 10752                           	opt	stack 4
 10753                           ; Regs used in ___flmul: [wreg+status,2+status,0+btemp+1+pclath+cstack]
 10754                           	line	17
 10755                           	
 10756                           l2331:	
 10757  0C8B                     	bcf	status, 5	;RP0=0, select bank0
 10758  0C8B  1283               	bcf	status, 6	;RP1=0, select bank0
 10759  0C8C  1303               	movf	0+(___flmul@b)+03h,w
 10760  0C8D  0830               	andlw	080h
 10761  0C8E  3980               	movwf	(??___flmul+0)+0
 10762  0C8F  00B5               	movf	(??___flmul+0)+0,w
 10763  0C90  0835               	movwf	(___flmul@sign)
 10764  0C91  00BA               	line	18
 10765                           	
 10766                           l2333:	
 10767  0C92                     	movf	0+(___flmul@b)+03h,w
 10768  0C92  0830               	movwf	(??___flmul+0)+0
 10769  0C93  00B5               	addwf	(??___flmul+0)+0,w
 10770  0C94  0735               	movwf	(??___flmul+1)+0
 10771  0C95  00B6               	movf	(??___flmul+1)+0,w
 10772  0C96  0836               	movwf	(___flmul@bexp)
 10773  0C97  00C0               	line	19
 10774                           	
 10775                           l2335:	
 10776  0C98                     	btfss	0+(___flmul@b)+02h,(7)&7
 10777  0C98  1FAF               	goto	u3651
 10778  0C99  2C9B               	goto	u3650
 10779  0C9A  2C9C               u3651:
 10780  0C9B                     	goto	l2339
 10781  0C9B  2C9E               u3650:
 10782  0C9C                     	line	20
 10783                           	
 10784                           l2337:	
 10785  0C9C                     	bsf	(___flmul@bexp)+(0/8),(0)&7
 10786  0C9C  1440               	goto	l2339
 10787  0C9D  2C9E               	line	21
 10788                           	
 10789                           l646:	
 10790  0C9E                     	line	24
 10791                           	
 10792                           l2339:	
 10793  0C9E                     	movf	((___flmul@bexp)),w
 10794  0C9E  0840               	btfsc	status,2
 10795  0C9F  1903               	goto	u3661
 10796  0CA0  2CA2               	goto	u3660
 10797  0CA1  2CA3               u3661:
 10798  0CA2                     	goto	l2347
 10799  0CA2  2CB3               u3660:
 10800  0CA3                     	line	26
 10801                           	
 10802                           l2341:	
 10803  0CA3                     		incf	((___flmul@bexp)),w
 10804  0CA3  0A40               	btfss	status,2
 10805  0CA4  1D03               	goto	u3671
 10806  0CA5  2CA7               	goto	u3670
 10807  0CA6  2CA8               u3671:
 10808  0CA7                     	goto	l2345
 10809  0CA7  2CB1               u3670:
 10810  0CA8                     	line	28
 10811                           	
 10812                           l2343:	
 10813  0CA8                     	movlw	0x0
 10814  0CA8  3000               	movwf	(___flmul@b+3)
 10815  0CA9  00B0               	movlw	0x0
 10816  0CAA  3000               	movwf	(___flmul@b+2)
 10817  0CAB  00AF               	movlw	0x0
 10818  0CAC  3000               	movwf	(___flmul@b+1)
 10819  0CAD  00AE               	movlw	0x0
 10820  0CAE  3000               	movwf	(___flmul@b)
 10821  0CAF  00AD               
 10822                           	goto	l2345
 10823  0CB0  2CB1               	line	29
 10824                           	
 10825                           l648:	
 10826  0CB1                     	line	31
 10827                           	
 10828                           l2345:	
 10829  0CB1                     	bsf	(___flmul@b)+(23/8),(23)&7
 10830  0CB1  17AF               	line	33
 10831                           	goto	l2349
 10832  0CB2  2CBC               	line	34
 10833                           	
 10834                           l647:	
 10835  0CB3                     	line	36
 10836                           	
 10837                           l2347:	
 10838  0CB3                     	movlw	0x0
 10839  0CB3  3000               	movwf	(___flmul@b+3)
 10840  0CB4  00B0               	movlw	0x0
 10841  0CB5  3000               	movwf	(___flmul@b+2)
 10842  0CB6  00AF               	movlw	0x0
 10843  0CB7  3000               	movwf	(___flmul@b+1)
 10844  0CB8  00AE               	movlw	0x0
 10845  0CB9  3000               	movwf	(___flmul@b)
 10846  0CBA  00AD               
 10847                           	goto	l2349
 10848  0CBB  2CBC               	line	37
 10849                           	
 10850                           l649:	
 10851  0CBC                     	line	39
 10852                           	
 10853                           l2349:	
 10854  0CBC                     	movf	0+(___flmul@a)+03h,w
 10855  0CBC  0834               	andlw	080h
 10856  0CBD  3980               	movwf	(??___flmul+0)+0
 10857  0CBE  00B5               	movf	(??___flmul+0)+0,w
 10858  0CBF  0835               	xorwf	(___flmul@sign),f
 10859  0CC0  06BA               	line	40
 10860                           	
 10861                           l2351:	
 10862  0CC1                     	movf	0+(___flmul@a)+03h,w
 10863  0CC1  0834               	movwf	(??___flmul+0)+0
 10864  0CC2  00B5               	addwf	(??___flmul+0)+0,w
 10865  0CC3  0735               	movwf	(??___flmul+1)+0
 10866  0CC4  00B6               	movf	(??___flmul+1)+0,w
 10867  0CC5  0836               	movwf	(___flmul@aexp)
 10868  0CC6  00BF               	line	41
 10869                           	
 10870                           l2353:	
 10871  0CC7                     	btfss	0+(___flmul@a)+02h,(7)&7
 10872  0CC7  1FB3               	goto	u3681
 10873  0CC8  2CCA               	goto	u3680
 10874  0CC9  2CCB               u3681:
 10875  0CCA                     	goto	l2357
 10876  0CCA  2CCD               u3680:
 10877  0CCB                     	line	42
 10878                           	
 10879                           l2355:	
 10880  0CCB                     	bsf	(___flmul@aexp)+(0/8),(0)&7
 10881  0CCB  143F               	goto	l2357
 10882  0CCC  2CCD               	line	43
 10883                           	
 10884                           l650:	
 10885  0CCD                     	line	45
 10886                           	
 10887                           l2357:	
 10888  0CCD                     	movf	((___flmul@aexp)),w
 10889  0CCD  083F               	btfsc	status,2
 10890  0CCE  1903               	goto	u3691
 10891  0CCF  2CD1               	goto	u3690
 10892  0CD0  2CD2               u3691:
 10893  0CD1                     	goto	l2365
 10894  0CD1  2CE2               u3690:
 10895  0CD2                     	line	48
 10896                           	
 10897                           l2359:	
 10898  0CD2                     		incf	((___flmul@aexp)),w
 10899  0CD2  0A3F               	btfss	status,2
 10900  0CD3  1D03               	goto	u3701
 10901  0CD4  2CD6               	goto	u3700
 10902  0CD5  2CD7               u3701:
 10903  0CD6                     	goto	l2363
 10904  0CD6  2CE0               u3700:
 10905  0CD7                     	line	50
 10906                           	
 10907                           l2361:	
 10908  0CD7                     	movlw	0x0
 10909  0CD7  3000               	movwf	(___flmul@a+3)
 10910  0CD8  00B4               	movlw	0x0
 10911  0CD9  3000               	movwf	(___flmul@a+2)
 10912  0CDA  00B3               	movlw	0x0
 10913  0CDB  3000               	movwf	(___flmul@a+1)
 10914  0CDC  00B2               	movlw	0x0
 10915  0CDD  3000               	movwf	(___flmul@a)
 10916  0CDE  00B1               
 10917                           	goto	l2363
 10918  0CDF  2CE0               	line	51
 10919                           	
 10920                           l652:	
 10921  0CE0                     	line	53
 10922                           	
 10923                           l2363:	
 10924  0CE0                     	bsf	(___flmul@a)+(23/8),(23)&7
 10925  0CE0  17B3               	line	54
 10926                           	goto	l2367
 10927  0CE1  2CEB               	line	55
 10928                           	
 10929                           l651:	
 10930  0CE2                     	line	57
 10931                           	
 10932                           l2365:	
 10933  0CE2                     	movlw	0x0
 10934  0CE2  3000               	movwf	(___flmul@a+3)
 10935  0CE3  00B4               	movlw	0x0
 10936  0CE4  3000               	movwf	(___flmul@a+2)
 10937  0CE5  00B3               	movlw	0x0
 10938  0CE6  3000               	movwf	(___flmul@a+1)
 10939  0CE7  00B2               	movlw	0x0
 10940  0CE8  3000               	movwf	(___flmul@a)
 10941  0CE9  00B1               
 10942                           	goto	l2367
 10943  0CEA  2CEB               	line	58
 10944                           	
 10945                           l653:	
 10946  0CEB                     	line	65
 10947                           	
 10948                           l2367:	
 10949  0CEB                     	movf	((___flmul@aexp)),w
 10950  0CEB  083F               	btfsc	status,2
 10951  0CEC  1903               	goto	u3711
 10952  0CED  2CEF               	goto	u3710
 10953  0CEE  2CF0               u3711:
 10954  0CEF                     	goto	l2371
 10955  0CEF  2CF6               u3710:
 10956  0CF0                     	
 10957                           l2369:	
 10958  0CF0                     	movf	((___flmul@bexp)),w
 10959  0CF0  0840               	btfss	status,2
 10960  0CF1  1D03               	goto	u3721
 10961  0CF2  2CF4               	goto	u3720
 10962  0CF3  2CF5               u3721:
 10963  0CF4                     	goto	l2375
 10964  0CF4  2D00               u3720:
 10965  0CF5                     	goto	l2371
 10966  0CF5  2CF6               	
 10967                           l656:	
 10968  0CF6                     	line	66
 10969                           	
 10970                           l2371:	
 10971  0CF6                     	movlw	0x0
 10972  0CF6  3000               	movwf	(?___flmul+3)
 10973  0CF7  00B0               	movlw	0x0
 10974  0CF8  3000               	movwf	(?___flmul+2)
 10975  0CF9  00AF               	movlw	0x0
 10976  0CFA  3000               	movwf	(?___flmul+1)
 10977  0CFB  00AE               	movlw	0x0
 10978  0CFC  3000               	movwf	(?___flmul)
 10979  0CFD  00AD               
 10980                           	goto	l657
 10981  0CFE  2FFF               	
 10982                           l2373:	
 10983  0CFF                     	goto	l657
 10984  0CFF  2FFF               	line	67
 10985                           	
 10986                           l654:	
 10987  0D00                     	line	119
 10988                           	
 10989                           l2375:	
 10990  0D00                     	movf	(___flmul@b),w
 10991  0D00  082D               	movwf	(??___flmul+0)+0
 10992  0D01  00B5               	movf	(??___flmul+0)+0,w
 10993  0D02  0835               	movwf	(__Umul8_16@multiplicand)
 10994  0D03  00F0               	movf	0+(___flmul@a)+02h,w
 10995  0D04  0833               	fcall	__Umul8_16
 10996  0D05  160A  158A  2388  120A  158A  	movf	(1+(?__Umul8_16)),w
 10997  0D0A  0871               	bcf	status, 5	;RP0=0, select bank0
 10998  0D0B  1283               	bcf	status, 6	;RP1=0, select bank0
 10999  0D0C  1303               	movwf	(___flmul@temp+1)
 11000  0D0D  00C6               	movf	(0+(?__Umul8_16)),w
 11001  0D0E  0870               	movwf	(___flmul@temp)
 11002  0D0F  00C5               	line	120
 11003                           	
 11004                           l2377:	
 11005  0D10                     	movf	(___flmul@temp),w
 11006  0D10  0845               	movwf	(??___flmul+0)+0
 11007  0D11  00B5               	clrf	(??___flmul+0)+0+1
 11008  0D12  01B6               	clrf	(??___flmul+0)+0+2
 11009  0D13  01B7               	clrf	(??___flmul+0)+0+3
 11010  0D14  01B8               	movf	3+(??___flmul+0)+0,w
 11011  0D15  0838               	movwf	(___flmul@grs+3)
 11012  0D16  00BE               	movf	2+(??___flmul+0)+0,w
 11013  0D17  0837               	movwf	(___flmul@grs+2)
 11014  0D18  00BD               	movf	1+(??___flmul+0)+0,w
 11015  0D19  0836               	movwf	(___flmul@grs+1)
 11016  0D1A  00BC               	movf	0+(??___flmul+0)+0,w
 11017  0D1B  0835               	movwf	(___flmul@grs)
 11018  0D1C  00BB               
 11019                           	line	121
 11020                           	
 11021                           l2379:	
 11022  0D1D                     	movf	0+(___flmul@temp)+01h,w
 11023  0D1D  0846               	movwf	(??___flmul+0)+0
 11024  0D1E  00B5               	clrf	(??___flmul+0)+0+1
 11025  0D1F  01B6               	clrf	(??___flmul+0)+0+2
 11026  0D20  01B7               	clrf	(??___flmul+0)+0+3
 11027  0D21  01B8               	movf	3+(??___flmul+0)+0,w
 11028  0D22  0838               	movwf	(___flmul@prod+3)
 11029  0D23  00C4               	movf	2+(??___flmul+0)+0,w
 11030  0D24  0837               	movwf	(___flmul@prod+2)
 11031  0D25  00C3               	movf	1+(??___flmul+0)+0,w
 11032  0D26  0836               	movwf	(___flmul@prod+1)
 11033  0D27  00C2               	movf	0+(??___flmul+0)+0,w
 11034  0D28  0835               	movwf	(___flmul@prod)
 11035  0D29  00C1               
 11036                           	line	122
 11037                           	movf	0+(___flmul@b)+01h,w
 11038  0D2A  082E               	movwf	(??___flmul+0)+0
 11039  0D2B  00B5               	movf	(??___flmul+0)+0,w
 11040  0D2C  0835               	movwf	(__Umul8_16@multiplicand)
 11041  0D2D  00F0               	movf	0+(___flmul@a)+01h,w
 11042  0D2E  0832               	fcall	__Umul8_16
 11043  0D2F  160A  158A  2388  120A  158A  	movf	(1+(?__Umul8_16)),w
 11044  0D34  0871               	bcf	status, 5	;RP0=0, select bank0
 11045  0D35  1283               	bcf	status, 6	;RP1=0, select bank0
 11046  0D36  1303               	movwf	(___flmul@temp+1)
 11047  0D37  00C6               	movf	(0+(?__Umul8_16)),w
 11048  0D38  0870               	movwf	(___flmul@temp)
 11049  0D39  00C5               	line	123
 11050                           	
 11051                           l2381:	
 11052  0D3A                     	movf	(___flmul@temp),w
 11053  0D3A  0845               	movwf	(??___flmul+0)+0
 11054  0D3B  00B5               	clrf	(??___flmul+0)+0+1
 11055  0D3C  01B6               	clrf	(??___flmul+0)+0+2
 11056  0D3D  01B7               	clrf	(??___flmul+0)+0+3
 11057  0D3E  01B8               	movf	0+(??___flmul+0)+0,w
 11058  0D3F  0835               	addwf	(___flmul@grs),f
 11059  0D40  07BB               	movf	1+(??___flmul+0)+0,w
 11060  0D41  0836               	clrz
 11061  0D42  1103               	skipnc
 11062  0D43  1803               	addlw	1
 11063  0D44  3E01               	skipnz
 11064  0D45  1903               	goto	u3731
 11065  0D46  2D48               	addwf	(___flmul@grs+1),f
 11066  0D47  07BC               u3731:
 11067  0D48                     	movf	2+(??___flmul+0)+0,w
 11068  0D48  0837               	clrz
 11069  0D49  1103               	skipnc
 11070  0D4A  1803               	addlw	1
 11071  0D4B  3E01               	skipnz
 11072  0D4C  1903               	goto	u3732
 11073  0D4D  2D4F               	addwf	(___flmul@grs+2),f
 11074  0D4E  07BD               u3732:
 11075  0D4F                     	movf	3+(??___flmul+0)+0,w
 11076  0D4F  0838               	clrz
 11077  0D50  1103               	skipnc
 11078  0D51  1803               	addlw	1
 11079  0D52  3E01               	skipnz
 11080  0D53  1903               	goto	u3733
 11081  0D54  2D56               	addwf	(___flmul@grs+3),f
 11082  0D55  07BE               u3733:
 11083  0D56                     
 11084                           	line	124
 11085                           	
 11086                           l2383:	
 11087  0D56                     	movf	0+(___flmul@temp)+01h,w
 11088  0D56  0846               	movwf	(??___flmul+0)+0
 11089  0D57  00B5               	clrf	(??___flmul+0)+0+1
 11090  0D58  01B6               	clrf	(??___flmul+0)+0+2
 11091  0D59  01B7               	clrf	(??___flmul+0)+0+3
 11092  0D5A  01B8               	movf	0+(??___flmul+0)+0,w
 11093  0D5B  0835               	addwf	(___flmul@prod),f
 11094  0D5C  07C1               	movf	1+(??___flmul+0)+0,w
 11095  0D5D  0836               	clrz
 11096  0D5E  1103               	skipnc
 11097  0D5F  1803               	addlw	1
 11098  0D60  3E01               	skipnz
 11099  0D61  1903               	goto	u3741
 11100  0D62  2D64               	addwf	(___flmul@prod+1),f
 11101  0D63  07C2               u3741:
 11102  0D64                     	movf	2+(??___flmul+0)+0,w
 11103  0D64  0837               	clrz
 11104  0D65  1103               	skipnc
 11105  0D66  1803               	addlw	1
 11106  0D67  3E01               	skipnz
 11107  0D68  1903               	goto	u3742
 11108  0D69  2D6B               	addwf	(___flmul@prod+2),f
 11109  0D6A  07C3               u3742:
 11110  0D6B                     	movf	3+(??___flmul+0)+0,w
 11111  0D6B  0838               	clrz
 11112  0D6C  1103               	skipnc
 11113  0D6D  1803               	addlw	1
 11114  0D6E  3E01               	skipnz
 11115  0D6F  1903               	goto	u3743
 11116  0D70  2D72               	addwf	(___flmul@prod+3),f
 11117  0D71  07C4               u3743:
 11118  0D72                     
 11119                           	line	125
 11120                           	movf	0+(___flmul@b)+02h,w
 11121  0D72  082F               	movwf	(??___flmul+0)+0
 11122  0D73  00B5               	movf	(??___flmul+0)+0,w
 11123  0D74  0835               	movwf	(__Umul8_16@multiplicand)
 11124  0D75  00F0               	movf	(___flmul@a),w
 11125  0D76  0831               	fcall	__Umul8_16
 11126  0D77  160A  158A  2388  120A  158A  	movf	(1+(?__Umul8_16)),w
 11127  0D7C  0871               	bcf	status, 5	;RP0=0, select bank0
 11128  0D7D  1283               	bcf	status, 6	;RP1=0, select bank0
 11129  0D7E  1303               	movwf	(___flmul@temp+1)
 11130  0D7F  00C6               	movf	(0+(?__Umul8_16)),w
 11131  0D80  0870               	movwf	(___flmul@temp)
 11132  0D81  00C5               	line	126
 11133                           	
 11134                           l2385:	
 11135  0D82                     	movf	(___flmul@temp),w
 11136  0D82  0845               	movwf	(??___flmul+0)+0
 11137  0D83  00B5               	clrf	(??___flmul+0)+0+1
 11138  0D84  01B6               	clrf	(??___flmul+0)+0+2
 11139  0D85  01B7               	clrf	(??___flmul+0)+0+3
 11140  0D86  01B8               	movf	0+(??___flmul+0)+0,w
 11141  0D87  0835               	addwf	(___flmul@grs),f
 11142  0D88  07BB               	movf	1+(??___flmul+0)+0,w
 11143  0D89  0836               	clrz
 11144  0D8A  1103               	skipnc
 11145  0D8B  1803               	addlw	1
 11146  0D8C  3E01               	skipnz
 11147  0D8D  1903               	goto	u3751
 11148  0D8E  2D90               	addwf	(___flmul@grs+1),f
 11149  0D8F  07BC               u3751:
 11150  0D90                     	movf	2+(??___flmul+0)+0,w
 11151  0D90  0837               	clrz
 11152  0D91  1103               	skipnc
 11153  0D92  1803               	addlw	1
 11154  0D93  3E01               	skipnz
 11155  0D94  1903               	goto	u3752
 11156  0D95  2D97               	addwf	(___flmul@grs+2),f
 11157  0D96  07BD               u3752:
 11158  0D97                     	movf	3+(??___flmul+0)+0,w
 11159  0D97  0838               	clrz
 11160  0D98  1103               	skipnc
 11161  0D99  1803               	addlw	1
 11162  0D9A  3E01               	skipnz
 11163  0D9B  1903               	goto	u3753
 11164  0D9C  2D9E               	addwf	(___flmul@grs+3),f
 11165  0D9D  07BE               u3753:
 11166  0D9E                     
 11167                           	line	127
 11168                           	
 11169                           l2387:	
 11170  0D9E                     	movf	0+(___flmul@temp)+01h,w
 11171  0D9E  0846               	movwf	(??___flmul+0)+0
 11172  0D9F  00B5               	clrf	(??___flmul+0)+0+1
 11173  0DA0  01B6               	clrf	(??___flmul+0)+0+2
 11174  0DA1  01B7               	clrf	(??___flmul+0)+0+3
 11175  0DA2  01B8               	movf	0+(??___flmul+0)+0,w
 11176  0DA3  0835               	addwf	(___flmul@prod),f
 11177  0DA4  07C1               	movf	1+(??___flmul+0)+0,w
 11178  0DA5  0836               	clrz
 11179  0DA6  1103               	skipnc
 11180  0DA7  1803               	addlw	1
 11181  0DA8  3E01               	skipnz
 11182  0DA9  1903               	goto	u3761
 11183  0DAA  2DAC               	addwf	(___flmul@prod+1),f
 11184  0DAB  07C2               u3761:
 11185  0DAC                     	movf	2+(??___flmul+0)+0,w
 11186  0DAC  0837               	clrz
 11187  0DAD  1103               	skipnc
 11188  0DAE  1803               	addlw	1
 11189  0DAF  3E01               	skipnz
 11190  0DB0  1903               	goto	u3762
 11191  0DB1  2DB3               	addwf	(___flmul@prod+2),f
 11192  0DB2  07C3               u3762:
 11193  0DB3                     	movf	3+(??___flmul+0)+0,w
 11194  0DB3  0838               	clrz
 11195  0DB4  1103               	skipnc
 11196  0DB5  1803               	addlw	1
 11197  0DB6  3E01               	skipnz
 11198  0DB7  1903               	goto	u3763
 11199  0DB8  2DBA               	addwf	(___flmul@prod+3),f
 11200  0DB9  07C4               u3763:
 11201  0DBA                     
 11202                           	line	128
 11203                           	
 11204                           l2389:	
 11205  0DBA                     	movlw	08h
 11206  0DBA  3008               	movwf	(??___flmul+0)+0
 11207  0DBB  00B5               u3775:
 11208  0DBC                     	clrc
 11209  0DBC  1003               	rlf	(___flmul@grs),f
 11210  0DBD  0DBB               	rlf	(___flmul@grs+1),f
 11211  0DBE  0DBC               	rlf	(___flmul@grs+2),f
 11212  0DBF  0DBD               	rlf	(___flmul@grs+3),f
 11213  0DC0  0DBE               	decfsz	(??___flmul+0)+0
 11214  0DC1  0BB5               	goto	u3775
 11215  0DC2  2DBC               	line	129
 11216                           	
 11217                           l2391:	
 11218  0DC3                     	movf	0+(___flmul@b)+01h,w
 11219  0DC3  082E               	movwf	(??___flmul+0)+0
 11220  0DC4  00B5               	movf	(??___flmul+0)+0,w
 11221  0DC5  0835               	movwf	(__Umul8_16@multiplicand)
 11222  0DC6  00F0               	movf	(___flmul@a),w
 11223  0DC7  0831               	fcall	__Umul8_16
 11224  0DC8  160A  158A  2388  120A  158A  	movf	(1+(?__Umul8_16)),w
 11225  0DCD  0871               	bcf	status, 5	;RP0=0, select bank0
 11226  0DCE  1283               	bcf	status, 6	;RP1=0, select bank0
 11227  0DCF  1303               	movwf	(___flmul@temp+1)
 11228  0DD0  00C6               	movf	(0+(?__Umul8_16)),w
 11229  0DD1  0870               	movwf	(___flmul@temp)
 11230  0DD2  00C5               	line	130
 11231                           	
 11232                           l2393:	
 11233  0DD3                     	movf	(___flmul@temp),w
 11234  0DD3  0845               	movwf	((??___flmul+0)+0)
 11235  0DD4  00B5               	movf	(___flmul@temp+1),w
 11236  0DD5  0846               	movwf	((??___flmul+0)+0+1)
 11237  0DD6  00B6               	clrf	((??___flmul+0)+0+2)
 11238  0DD7  01B7               	clrf	((??___flmul+0)+0+3)
 11239  0DD8  01B8               	movf	0+(??___flmul+0)+0,w
 11240  0DD9  0835               	addwf	(___flmul@grs),f
 11241  0DDA  07BB               	movf	1+(??___flmul+0)+0,w
 11242  0DDB  0836               	clrz
 11243  0DDC  1103               	skipnc
 11244  0DDD  1803               	addlw	1
 11245  0DDE  3E01               	skipnz
 11246  0DDF  1903               	goto	u3781
 11247  0DE0  2DE2               	addwf	(___flmul@grs+1),f
 11248  0DE1  07BC               u3781:
 11249  0DE2                     	movf	2+(??___flmul+0)+0,w
 11250  0DE2  0837               	clrz
 11251  0DE3  1103               	skipnc
 11252  0DE4  1803               	addlw	1
 11253  0DE5  3E01               	skipnz
 11254  0DE6  1903               	goto	u3782
 11255  0DE7  2DE9               	addwf	(___flmul@grs+2),f
 11256  0DE8  07BD               u3782:
 11257  0DE9                     	movf	3+(??___flmul+0)+0,w
 11258  0DE9  0838               	clrz
 11259  0DEA  1103               	skipnc
 11260  0DEB  1803               	addlw	1
 11261  0DEC  3E01               	skipnz
 11262  0DED  1903               	goto	u3783
 11263  0DEE  2DF0               	addwf	(___flmul@grs+3),f
 11264  0DEF  07BE               u3783:
 11265  0DF0                     
 11266                           	line	131
 11267                           	
 11268                           l2395:	
 11269  0DF0                     	movf	(___flmul@b),w
 11270  0DF0  082D               	movwf	(??___flmul+0)+0
 11271  0DF1  00B5               	movf	(??___flmul+0)+0,w
 11272  0DF2  0835               	movwf	(__Umul8_16@multiplicand)
 11273  0DF3  00F0               	movf	0+(___flmul@a)+01h,w
 11274  0DF4  0832               	fcall	__Umul8_16
 11275  0DF5  160A  158A  2388  120A  158A  	movf	(1+(?__Umul8_16)),w
 11276  0DFA  0871               	bcf	status, 5	;RP0=0, select bank0
 11277  0DFB  1283               	bcf	status, 6	;RP1=0, select bank0
 11278  0DFC  1303               	movwf	(___flmul@temp+1)
 11279  0DFD  00C6               	movf	(0+(?__Umul8_16)),w
 11280  0DFE  0870               	movwf	(___flmul@temp)
 11281  0DFF  00C5               	line	132
 11282                           	
 11283                           l2397:	
 11284  0E00                     	movf	(___flmul@temp),w
 11285  0E00  0845               	movwf	((??___flmul+0)+0)
 11286  0E01  00B5               	movf	(___flmul@temp+1),w
 11287  0E02  0846               	movwf	((??___flmul+0)+0+1)
 11288  0E03  00B6               	clrf	((??___flmul+0)+0+2)
 11289  0E04  01B7               	clrf	((??___flmul+0)+0+3)
 11290  0E05  01B8               	movf	0+(??___flmul+0)+0,w
 11291  0E06  0835               	addwf	(___flmul@grs),f
 11292  0E07  07BB               	movf	1+(??___flmul+0)+0,w
 11293  0E08  0836               	clrz
 11294  0E09  1103               	skipnc
 11295  0E0A  1803               	addlw	1
 11296  0E0B  3E01               	skipnz
 11297  0E0C  1903               	goto	u3791
 11298  0E0D  2E0F               	addwf	(___flmul@grs+1),f
 11299  0E0E  07BC               u3791:
 11300  0E0F                     	movf	2+(??___flmul+0)+0,w
 11301  0E0F  0837               	clrz
 11302  0E10  1103               	skipnc
 11303  0E11  1803               	addlw	1
 11304  0E12  3E01               	skipnz
 11305  0E13  1903               	goto	u3792
 11306  0E14  2E16               	addwf	(___flmul@grs+2),f
 11307  0E15  07BD               u3792:
 11308  0E16                     	movf	3+(??___flmul+0)+0,w
 11309  0E16  0838               	clrz
 11310  0E17  1103               	skipnc
 11311  0E18  1803               	addlw	1
 11312  0E19  3E01               	skipnz
 11313  0E1A  1903               	goto	u3793
 11314  0E1B  2E1D               	addwf	(___flmul@grs+3),f
 11315  0E1C  07BE               u3793:
 11316  0E1D                     
 11317                           	line	133
 11318                           	
 11319                           l2399:	
 11320  0E1D                     	movlw	08h
 11321  0E1D  3008               	movwf	(??___flmul+0)+0
 11322  0E1E  00B5               u3805:
 11323  0E1F                     	clrc
 11324  0E1F  1003               	rlf	(___flmul@grs),f
 11325  0E20  0DBB               	rlf	(___flmul@grs+1),f
 11326  0E21  0DBC               	rlf	(___flmul@grs+2),f
 11327  0E22  0DBD               	rlf	(___flmul@grs+3),f
 11328  0E23  0DBE               	decfsz	(??___flmul+0)+0
 11329  0E24  0BB5               	goto	u3805
 11330  0E25  2E1F               	line	134
 11331                           	movf	(___flmul@b),w
 11332  0E26  082D               	movwf	(??___flmul+0)+0
 11333  0E27  00B5               	movf	(??___flmul+0)+0,w
 11334  0E28  0835               	movwf	(__Umul8_16@multiplicand)
 11335  0E29  00F0               	movf	(___flmul@a),w
 11336  0E2A  0831               	fcall	__Umul8_16
 11337  0E2B  160A  158A  2388  120A  158A  	movf	(1+(?__Umul8_16)),w
 11338  0E30  0871               	bcf	status, 5	;RP0=0, select bank0
 11339  0E31  1283               	bcf	status, 6	;RP1=0, select bank0
 11340  0E32  1303               	movwf	(___flmul@temp+1)
 11341  0E33  00C6               	movf	(0+(?__Umul8_16)),w
 11342  0E34  0870               	movwf	(___flmul@temp)
 11343  0E35  00C5               	line	135
 11344                           	
 11345                           l2401:	
 11346  0E36                     	movf	(___flmul@temp),w
 11347  0E36  0845               	movwf	((??___flmul+0)+0)
 11348  0E37  00B5               	movf	(___flmul@temp+1),w
 11349  0E38  0846               	movwf	((??___flmul+0)+0+1)
 11350  0E39  00B6               	clrf	((??___flmul+0)+0+2)
 11351  0E3A  01B7               	clrf	((??___flmul+0)+0+3)
 11352  0E3B  01B8               	movf	0+(??___flmul+0)+0,w
 11353  0E3C  0835               	addwf	(___flmul@grs),f
 11354  0E3D  07BB               	movf	1+(??___flmul+0)+0,w
 11355  0E3E  0836               	clrz
 11356  0E3F  1103               	skipnc
 11357  0E40  1803               	addlw	1
 11358  0E41  3E01               	skipnz
 11359  0E42  1903               	goto	u3811
 11360  0E43  2E45               	addwf	(___flmul@grs+1),f
 11361  0E44  07BC               u3811:
 11362  0E45                     	movf	2+(??___flmul+0)+0,w
 11363  0E45  0837               	clrz
 11364  0E46  1103               	skipnc
 11365  0E47  1803               	addlw	1
 11366  0E48  3E01               	skipnz
 11367  0E49  1903               	goto	u3812
 11368  0E4A  2E4C               	addwf	(___flmul@grs+2),f
 11369  0E4B  07BD               u3812:
 11370  0E4C                     	movf	3+(??___flmul+0)+0,w
 11371  0E4C  0838               	clrz
 11372  0E4D  1103               	skipnc
 11373  0E4E  1803               	addlw	1
 11374  0E4F  3E01               	skipnz
 11375  0E50  1903               	goto	u3813
 11376  0E51  2E53               	addwf	(___flmul@grs+3),f
 11377  0E52  07BE               u3813:
 11378  0E53                     
 11379                           	line	136
 11380                           	
 11381                           l2403:	
 11382  0E53                     	movf	0+(___flmul@b)+01h,w
 11383  0E53  082E               	movwf	(??___flmul+0)+0
 11384  0E54  00B5               	movf	(??___flmul+0)+0,w
 11385  0E55  0835               	movwf	(__Umul8_16@multiplicand)
 11386  0E56  00F0               	movf	0+(___flmul@a)+02h,w
 11387  0E57  0833               	fcall	__Umul8_16
 11388  0E58  160A  158A  2388  120A  158A  	movf	(1+(?__Umul8_16)),w
 11389  0E5D  0871               	bcf	status, 5	;RP0=0, select bank0
 11390  0E5E  1283               	bcf	status, 6	;RP1=0, select bank0
 11391  0E5F  1303               	movwf	(___flmul@temp+1)
 11392  0E60  00C6               	movf	(0+(?__Umul8_16)),w
 11393  0E61  0870               	movwf	(___flmul@temp)
 11394  0E62  00C5               	line	137
 11395                           	movf	(___flmul@temp),w
 11396  0E63  0845               	movwf	((??___flmul+0)+0)
 11397  0E64  00B5               	movf	(___flmul@temp+1),w
 11398  0E65  0846               	movwf	((??___flmul+0)+0+1)
 11399  0E66  00B6               	clrf	((??___flmul+0)+0+2)
 11400  0E67  01B7               	clrf	((??___flmul+0)+0+3)
 11401  0E68  01B8               	movf	0+(??___flmul+0)+0,w
 11402  0E69  0835               	addwf	(___flmul@prod),f
 11403  0E6A  07C1               	movf	1+(??___flmul+0)+0,w
 11404  0E6B  0836               	clrz
 11405  0E6C  1103               	skipnc
 11406  0E6D  1803               	addlw	1
 11407  0E6E  3E01               	skipnz
 11408  0E6F  1903               	goto	u3821
 11409  0E70  2E72               	addwf	(___flmul@prod+1),f
 11410  0E71  07C2               u3821:
 11411  0E72                     	movf	2+(??___flmul+0)+0,w
 11412  0E72  0837               	clrz
 11413  0E73  1103               	skipnc
 11414  0E74  1803               	addlw	1
 11415  0E75  3E01               	skipnz
 11416  0E76  1903               	goto	u3822
 11417  0E77  2E79               	addwf	(___flmul@prod+2),f
 11418  0E78  07C3               u3822:
 11419  0E79                     	movf	3+(??___flmul+0)+0,w
 11420  0E79  0838               	clrz
 11421  0E7A  1103               	skipnc
 11422  0E7B  1803               	addlw	1
 11423  0E7C  3E01               	skipnz
 11424  0E7D  1903               	goto	u3823
 11425  0E7E  2E80               	addwf	(___flmul@prod+3),f
 11426  0E7F  07C4               u3823:
 11427  0E80                     
 11428                           	line	138
 11429                           	
 11430                           l2405:	
 11431  0E80                     	movf	0+(___flmul@b)+02h,w
 11432  0E80  082F               	movwf	(??___flmul+0)+0
 11433  0E81  00B5               	movf	(??___flmul+0)+0,w
 11434  0E82  0835               	movwf	(__Umul8_16@multiplicand)
 11435  0E83  00F0               	movf	0+(___flmul@a)+01h,w
 11436  0E84  0832               	fcall	__Umul8_16
 11437  0E85  160A  158A  2388  120A  158A  	movf	(1+(?__Umul8_16)),w
 11438  0E8A  0871               	bcf	status, 5	;RP0=0, select bank0
 11439  0E8B  1283               	bcf	status, 6	;RP1=0, select bank0
 11440  0E8C  1303               	movwf	(___flmul@temp+1)
 11441  0E8D  00C6               	movf	(0+(?__Umul8_16)),w
 11442  0E8E  0870               	movwf	(___flmul@temp)
 11443  0E8F  00C5               	line	139
 11444                           	
 11445                           l2407:	
 11446  0E90                     	movf	(___flmul@temp),w
 11447  0E90  0845               	movwf	((??___flmul+0)+0)
 11448  0E91  00B5               	movf	(___flmul@temp+1),w
 11449  0E92  0846               	movwf	((??___flmul+0)+0+1)
 11450  0E93  00B6               	clrf	((??___flmul+0)+0+2)
 11451  0E94  01B7               	clrf	((??___flmul+0)+0+3)
 11452  0E95  01B8               	movf	0+(??___flmul+0)+0,w
 11453  0E96  0835               	addwf	(___flmul@prod),f
 11454  0E97  07C1               	movf	1+(??___flmul+0)+0,w
 11455  0E98  0836               	clrz
 11456  0E99  1103               	skipnc
 11457  0E9A  1803               	addlw	1
 11458  0E9B  3E01               	skipnz
 11459  0E9C  1903               	goto	u3831
 11460  0E9D  2E9F               	addwf	(___flmul@prod+1),f
 11461  0E9E  07C2               u3831:
 11462  0E9F                     	movf	2+(??___flmul+0)+0,w
 11463  0E9F  0837               	clrz
 11464  0EA0  1103               	skipnc
 11465  0EA1  1803               	addlw	1
 11466  0EA2  3E01               	skipnz
 11467  0EA3  1903               	goto	u3832
 11468  0EA4  2EA6               	addwf	(___flmul@prod+2),f
 11469  0EA5  07C3               u3832:
 11470  0EA6                     	movf	3+(??___flmul+0)+0,w
 11471  0EA6  0838               	clrz
 11472  0EA7  1103               	skipnc
 11473  0EA8  1803               	addlw	1
 11474  0EA9  3E01               	skipnz
 11475  0EAA  1903               	goto	u3833
 11476  0EAB  2EAD               	addwf	(___flmul@prod+3),f
 11477  0EAC  07C4               u3833:
 11478  0EAD                     
 11479                           	line	140
 11480                           	movf	0+(___flmul@b)+02h,w
 11481  0EAD  082F               	movwf	(??___flmul+0)+0
 11482  0EAE  00B5               	movf	(??___flmul+0)+0,w
 11483  0EAF  0835               	movwf	(__Umul8_16@multiplicand)
 11484  0EB0  00F0               	movf	0+(___flmul@a)+02h,w
 11485  0EB1  0833               	fcall	__Umul8_16
 11486  0EB2  160A  158A  2388  120A  158A  	movf	(1+(?__Umul8_16)),w
 11487  0EB7  0871               	bcf	status, 5	;RP0=0, select bank0
 11488  0EB8  1283               	bcf	status, 6	;RP1=0, select bank0
 11489  0EB9  1303               	movwf	(___flmul@temp+1)
 11490  0EBA  00C6               	movf	(0+(?__Umul8_16)),w
 11491  0EBB  0870               	movwf	(___flmul@temp)
 11492  0EBC  00C5               	line	141
 11493                           	
 11494                           l2409:	
 11495  0EBD                     	movf	(___flmul@temp),w
 11496  0EBD  0845               	movwf	((??___flmul+0)+0)
 11497  0EBE  00B5               	movf	(___flmul@temp+1),w
 11498  0EBF  0846               	movwf	((??___flmul+0)+0+1)
 11499  0EC0  00B6               	clrf	((??___flmul+0)+0+2)
 11500  0EC1  01B7               	clrf	((??___flmul+0)+0+3)
 11501  0EC2  01B8               	movlw	08h
 11502  0EC3  3008               u3845:
 11503  0EC4                     	clrc
 11504  0EC4  1003               	rlf	(??___flmul+0)+0,f
 11505  0EC5  0DB5               	rlf	(??___flmul+0)+1,f
 11506  0EC6  0DB6               	rlf	(??___flmul+0)+2,f
 11507  0EC7  0DB7               	rlf	(??___flmul+0)+3,f
 11508  0EC8  0DB8               u3840:
 11509  0EC9                     	addlw	-1
 11510  0EC9  3EFF               	skipz
 11511  0ECA  1D03               	goto	u3845
 11512  0ECB  2EC4               	movf	0+(??___flmul+0)+0,w
 11513  0ECC  0835               	addwf	(___flmul@prod),f
 11514  0ECD  07C1               	movf	1+(??___flmul+0)+0,w
 11515  0ECE  0836               	clrz
 11516  0ECF  1103               	skipnc
 11517  0ED0  1803               	addlw	1
 11518  0ED1  3E01               	skipnz
 11519  0ED2  1903               	goto	u3851
 11520  0ED3  2ED5               	addwf	(___flmul@prod+1),f
 11521  0ED4  07C2               u3851:
 11522  0ED5                     	movf	2+(??___flmul+0)+0,w
 11523  0ED5  0837               	clrz
 11524  0ED6  1103               	skipnc
 11525  0ED7  1803               	addlw	1
 11526  0ED8  3E01               	skipnz
 11527  0ED9  1903               	goto	u3852
 11528  0EDA  2EDC               	addwf	(___flmul@prod+2),f
 11529  0EDB  07C3               u3852:
 11530  0EDC                     	movf	3+(??___flmul+0)+0,w
 11531  0EDC  0838               	clrz
 11532  0EDD  1103               	skipnc
 11533  0EDE  1803               	addlw	1
 11534  0EDF  3E01               	skipnz
 11535  0EE0  1903               	goto	u3853
 11536  0EE1  2EE3               	addwf	(___flmul@prod+3),f
 11537  0EE2  07C4               u3853:
 11538  0EE3                     
 11539                           	line	145
 11540                           	
 11541                           l2411:	
 11542  0EE3                     	movf	(___flmul@grs),w
 11543  0EE3  083B               	movwf	(??___flmul+0)+0
 11544  0EE4  00B5               	movf	(___flmul@grs+1),w
 11545  0EE5  083C               	movwf	((??___flmul+0)+0+1)
 11546  0EE6  00B6               	movf	(___flmul@grs+2),w
 11547  0EE7  083D               	movwf	((??___flmul+0)+0+2)
 11548  0EE8  00B7               	movf	(___flmul@grs+3),w
 11549  0EE9  083E               	movwf	((??___flmul+0)+0+3)
 11550  0EEA  00B8               	movlw	018h
 11551  0EEB  3018               u3865:
 11552  0EEC                     	clrc
 11553  0EEC  1003               	rrf	(??___flmul+0)+3,f
 11554  0EED  0CB8               	rrf	(??___flmul+0)+2,f
 11555  0EEE  0CB7               	rrf	(??___flmul+0)+1,f
 11556  0EEF  0CB6               	rrf	(??___flmul+0)+0,f
 11557  0EF0  0CB5               u3860:
 11558  0EF1                     	addlw	-1
 11559  0EF1  3EFF               	skipz
 11560  0EF2  1D03               	goto	u3865
 11561  0EF3  2EEC               	movf	0+(??___flmul+0)+0,w
 11562  0EF4  0835               	addwf	(___flmul@prod),f
 11563  0EF5  07C1               	movf	1+(??___flmul+0)+0,w
 11564  0EF6  0836               	clrz
 11565  0EF7  1103               	skipnc
 11566  0EF8  1803               	addlw	1
 11567  0EF9  3E01               	skipnz
 11568  0EFA  1903               	goto	u3871
 11569  0EFB  2EFD               	addwf	(___flmul@prod+1),f
 11570  0EFC  07C2               u3871:
 11571  0EFD                     	movf	2+(??___flmul+0)+0,w
 11572  0EFD  0837               	clrz
 11573  0EFE  1103               	skipnc
 11574  0EFF  1803               	addlw	1
 11575  0F00  3E01               	skipnz
 11576  0F01  1903               	goto	u3872
 11577  0F02  2F04               	addwf	(___flmul@prod+2),f
 11578  0F03  07C3               u3872:
 11579  0F04                     	movf	3+(??___flmul+0)+0,w
 11580  0F04  0838               	clrz
 11581  0F05  1103               	skipnc
 11582  0F06  1803               	addlw	1
 11583  0F07  3E01               	skipnz
 11584  0F08  1903               	goto	u3873
 11585  0F09  2F0B               	addwf	(___flmul@prod+3),f
 11586  0F0A  07C4               u3873:
 11587  0F0B                     
 11588                           	line	146
 11589                           	
 11590                           l2413:	
 11591  0F0B                     	movlw	08h
 11592  0F0B  3008               	movwf	(??___flmul+0)+0
 11593  0F0C  00B5               u3885:
 11594  0F0D                     	clrc
 11595  0F0D  1003               	rlf	(___flmul@grs),f
 11596  0F0E  0DBB               	rlf	(___flmul@grs+1),f
 11597  0F0F  0DBC               	rlf	(___flmul@grs+2),f
 11598  0F10  0DBD               	rlf	(___flmul@grs+3),f
 11599  0F11  0DBE               	decfsz	(??___flmul+0)+0
 11600  0F12  0BB5               	goto	u3885
 11601  0F13  2F0D               	line	149
 11602                           	
 11603                           l2415:	
 11604  0F14                     	movf	(___flmul@bexp),w
 11605  0F14  0840               	addwf	(___flmul@aexp),w
 11606  0F15  073F               	movwf	(??___flmul+0)+0
 11607  0F16  00B5               	clrf	(??___flmul+0)+0+1
 11608  0F17  01B6               	rlf	1+(??___flmul+0)+0,f
 11609  0F18  0DB6               	
 11610                           	movf	0+(??___flmul+0)+0,w
 11611  0F19  0835               	addlw	low(-126)
 11612  0F1A  3E82               	movwf	(___flmul@temp)
 11613  0F1B  00C5               	movf	1+(??___flmul+0)+0,w
 11614  0F1C  0836               	skipnc
 11615  0F1D  1803               	addlw	1
 11616  0F1E  3E01               	addlw	high(-126)
 11617  0F1F  3EFF               	movwf	1+(___flmul@temp)
 11618  0F20  00C6               	line	152
 11619                           	goto	l2427
 11620  0F21  2F41               	
 11621                           l659:	
 11622  0F22                     	line	153
 11623                           	
 11624                           l2417:	
 11625  0F22                     	movlw	01h
 11626  0F22  3001               	movwf	(??___flmul+0)+0
 11627  0F23  00B5               u3895:
 11628  0F24                     	clrc
 11629  0F24  1003               	rlf	(___flmul@prod),f
 11630  0F25  0DC1               	rlf	(___flmul@prod+1),f
 11631  0F26  0DC2               	rlf	(___flmul@prod+2),f
 11632  0F27  0DC3               	rlf	(___flmul@prod+3),f
 11633  0F28  0DC4               	decfsz	(??___flmul+0)+0
 11634  0F29  0BB5               	goto	u3895
 11635  0F2A  2F24               	line	154
 11636                           	
 11637                           l2419:	
 11638  0F2B                     	btfss	(___flmul@grs+3),(31)&7
 11639  0F2B  1FBE               	goto	u3901
 11640  0F2C  2F2E               	goto	u3900
 11641  0F2D  2F2F               u3901:
 11642  0F2E                     	goto	l2423
 11643  0F2E  2F31               u3900:
 11644  0F2F                     	line	155
 11645                           	
 11646                           l2421:	
 11647  0F2F                     	bsf	(___flmul@prod)+(0/8),(0)&7
 11648  0F2F  1441               	goto	l2423
 11649  0F30  2F31               	line	156
 11650                           	
 11651                           l660:	
 11652  0F31                     	line	157
 11653                           	
 11654                           l2423:	
 11655  0F31                     	movlw	01h
 11656  0F31  3001               	movwf	(??___flmul+0)+0
 11657  0F32  00B5               u3915:
 11658  0F33                     	clrc
 11659  0F33  1003               	rlf	(___flmul@grs),f
 11660  0F34  0DBB               	rlf	(___flmul@grs+1),f
 11661  0F35  0DBC               	rlf	(___flmul@grs+2),f
 11662  0F36  0DBD               	rlf	(___flmul@grs+3),f
 11663  0F37  0DBE               	decfsz	(??___flmul+0)+0
 11664  0F38  0BB5               	goto	u3915
 11665  0F39  2F33               	line	158
 11666                           	
 11667                           l2425:	
 11668  0F3A                     	movlw	0FFh
 11669  0F3A  30FF               	addwf	(___flmul@temp),f
 11670  0F3B  07C5               	skipnc
 11671  0F3C  1803               	incf	(___flmul@temp+1),f
 11672  0F3D  0AC6               	movlw	0FFh
 11673  0F3E  30FF               	addwf	(___flmul@temp+1),f
 11674  0F3F  07C6               	goto	l2427
 11675  0F40  2F41               	line	159
 11676                           	
 11677                           l658:	
 11678  0F41                     	line	152
 11679                           	
 11680                           l2427:	
 11681  0F41                     	btfss	(___flmul@prod+2),(23)&7
 11682  0F41  1FC3               	goto	u3921
 11683  0F42  2F44               	goto	u3920
 11684  0F43  2F45               u3921:
 11685  0F44                     	goto	l2417
 11686  0F44  2F22               u3920:
 11687  0F45                     	goto	l2429
 11688  0F45  2F46               	
 11689                           l661:	
 11690  0F46                     	line	163
 11691                           	
 11692                           l2429:	
 11693  0F46                     	clrf	(___flmul@aexp)
 11694  0F46  01BF               	line	164
 11695                           	
 11696                           l2431:	
 11697  0F47                     	btfss	(___flmul@grs+3),(31)&7
 11698  0F47  1FBE               	goto	u3931
 11699  0F48  2F4A               	goto	u3930
 11700  0F49  2F4B               u3931:
 11701  0F4A                     	goto	l2439
 11702  0F4A  2F6B               u3930:
 11703  0F4B                     	line	165
 11704                           	
 11705                           l2433:	
 11706  0F4B                     	movlw	0FFh
 11707  0F4B  30FF               	andwf	(___flmul@grs),w
 11708  0F4C  053B               	movwf	(??___flmul+0)+0
 11709  0F4D  00B5               	movlw	0FFh
 11710  0F4E  30FF               	andwf	(___flmul@grs+1),w
 11711  0F4F  053C               	movwf	((??___flmul+0)+0+1)
 11712  0F50  00B6               	movlw	0FFh
 11713  0F51  30FF               	andwf	(___flmul@grs+2),w
 11714  0F52  053D               	movwf	((??___flmul+0)+0+2)
 11715  0F53  00B7               	movlw	07Fh
 11716  0F54  307F               	andwf	(___flmul@grs+3),w
 11717  0F55  053E               	movwf	((??___flmul+0)+0+3)
 11718  0F56  00B8               	movf	3+(??___flmul+0)+0,w
 11719  0F57  0838               	iorwf	2+(??___flmul+0)+0,w
 11720  0F58  0437               	iorwf	1+(??___flmul+0)+0,w
 11721  0F59  0436               	iorwf	0+(??___flmul+0)+0,w
 11722  0F5A  0435               	skipnz
 11723  0F5B  1903               	goto	u3941
 11724  0F5C  2F5E               	goto	u3940
 11725  0F5D  2F5F               u3941:
 11726  0F5E                     	goto	l663
 11727  0F5E  2F62               u3940:
 11728  0F5F                     	line	166
 11729                           	
 11730                           l2435:	
 11731  0F5F                     	clrf	(___flmul@aexp)
 11732  0F5F  01BF               	incf	(___flmul@aexp),f
 11733  0F60  0ABF               	line	167
 11734                           	goto	l2439
 11735  0F61  2F6B               	line	168
 11736                           	
 11737                           l663:	
 11738  0F62                     	line	169
 11739                           	btfss	(___flmul@prod),(0)&7
 11740  0F62  1C41               	goto	u3951
 11741  0F63  2F65               	goto	u3950
 11742  0F64  2F66               u3951:
 11743  0F65                     	goto	l2439
 11744  0F65  2F6B               u3950:
 11745  0F66                     	line	170
 11746                           	
 11747                           l2437:	
 11748  0F66                     	clrf	(___flmul@aexp)
 11749  0F66  01BF               	incf	(___flmul@aexp),f
 11750  0F67  0ABF               	goto	l2439
 11751  0F68  2F6B               	line	171
 11752                           	
 11753                           l665:	
 11754  0F69                     	goto	l2439
 11755  0F69  2F6B               	line	172
 11756                           	
 11757                           l664:	
 11758  0F6A                     	goto	l2439
 11759  0F6A  2F6B               	line	173
 11760                           	
 11761                           l662:	
 11762  0F6B                     	line	174
 11763                           	
 11764                           l2439:	
 11765  0F6B                     	movf	((___flmul@aexp)),w
 11766  0F6B  083F               	btfsc	status,2
 11767  0F6C  1903               	goto	u3961
 11768  0F6D  2F6F               	goto	u3960
 11769  0F6E  2F70               u3961:
 11770  0F6F                     	goto	l2449
 11771  0F6F  2FA3               u3960:
 11772  0F70                     	line	175
 11773                           	
 11774                           l2441:	
 11775  0F70                     	movlw	01h
 11776  0F70  3001               	addwf	(___flmul@prod),f
 11777  0F71  07C1               	movlw	0
 11778  0F72  3000               	skipnc
 11779  0F73  1803               movlw 1
 11780  0F74  3001               	addwf	(___flmul@prod+1),f
 11781  0F75  07C2               	movlw	0
 11782  0F76  3000               	skipnc
 11783  0F77  1803               movlw 1
 11784  0F78  3001               	addwf	(___flmul@prod+2),f
 11785  0F79  07C3               	movlw	0
 11786  0F7A  3000               	skipnc
 11787  0F7B  1803               movlw 1
 11788  0F7C  3001               	addwf	(___flmul@prod+3),f
 11789  0F7D  07C4               	line	176
 11790                           	
 11791                           l2443:	
 11792  0F7E                     	btfss	(___flmul@prod+3),(24)&7
 11793  0F7E  1C44               	goto	u3971
 11794  0F7F  2F81               	goto	u3970
 11795  0F80  2F82               u3971:
 11796  0F81                     	goto	l2449
 11797  0F81  2FA3               u3970:
 11798  0F82                     	line	177
 11799                           	
 11800                           l2445:	
 11801  0F82                     	movf	(___flmul@prod),w
 11802  0F82  0841               	movwf	(??___flmul+0)+0
 11803  0F83  00B5               	movf	(___flmul@prod+1),w
 11804  0F84  0842               	movwf	((??___flmul+0)+0+1)
 11805  0F85  00B6               	movf	(___flmul@prod+2),w
 11806  0F86  0843               	movwf	((??___flmul+0)+0+2)
 11807  0F87  00B7               	movf	(___flmul@prod+3),w
 11808  0F88  0844               	movwf	((??___flmul+0)+0+3)
 11809  0F89  00B8               	movlw	01h
 11810  0F8A  3001               	movwf	(??___flmul+4)+0
 11811  0F8B  00B9               u3985:
 11812  0F8C                     	rlf	(??___flmul+0)+3,w
 11813  0F8C  0D38               	rrf	(??___flmul+0)+3,f
 11814  0F8D  0CB8               	rrf	(??___flmul+0)+2,f
 11815  0F8E  0CB7               	rrf	(??___flmul+0)+1,f
 11816  0F8F  0CB6               	rrf	(??___flmul+0)+0,f
 11817  0F90  0CB5               u3980:
 11818  0F91                     	decfsz	(??___flmul+4)+0,f
 11819  0F91  0BB9               	goto	u3985
 11820  0F92  2F8C               	movf	3+(??___flmul+0)+0,w
 11821  0F93  0838               	movwf	(___flmul@prod+3)
 11822  0F94  00C4               	movf	2+(??___flmul+0)+0,w
 11823  0F95  0837               	movwf	(___flmul@prod+2)
 11824  0F96  00C3               	movf	1+(??___flmul+0)+0,w
 11825  0F97  0836               	movwf	(___flmul@prod+1)
 11826  0F98  00C2               	movf	0+(??___flmul+0)+0,w
 11827  0F99  0835               	movwf	(___flmul@prod)
 11828  0F9A  00C1               
 11829                           	line	178
 11830                           	
 11831                           l2447:	
 11832  0F9B                     	movlw	01h
 11833  0F9B  3001               	addwf	(___flmul@temp),f
 11834  0F9C  07C5               	skipnc
 11835  0F9D  1803               	incf	(___flmul@temp+1),f
 11836  0F9E  0AC6               	movlw	0
 11837  0F9F  3000               	addwf	(___flmul@temp+1),f
 11838  0FA0  07C6               	goto	l2449
 11839  0FA1  2FA3               	line	179
 11840                           	
 11841                           l667:	
 11842  0FA2                     	goto	l2449
 11843  0FA2  2FA3               	line	180
 11844                           	
 11845                           l666:	
 11846  0FA3                     	line	183
 11847                           	
 11848                           l2449:	
 11849  0FA3                     	movf	(___flmul@temp+1),w
 11850  0FA3  0846               	xorlw	80h
 11851  0FA4  3A80               	movwf	btemp+1
 11852  0FA5  00FF               	movlw	(0)^80h
 11853  0FA6  3080               	subwf	btemp+1,w
 11854  0FA7  027F               	skipz
 11855  0FA8  1D03               	goto	u3995
 11856  0FA9  2FAC               	movlw	0FFh
 11857  0FAA  30FF               	subwf	(___flmul@temp),w
 11858  0FAB  0245               u3995:
 11859  0FAC                     
 11860                           	skipc
 11861  0FAC  1C03               	goto	u3991
 11862  0FAD  2FAF               	goto	u3990
 11863  0FAE  2FB0               u3991:
 11864  0FAF                     	goto	l2453
 11865  0FAF  2FBB               u3990:
 11866  0FB0                     	line	184
 11867                           	
 11868                           l2451:	
 11869  0FB0                     	movlw	07Fh
 11870  0FB0  307F               	bcf	status, 5	;RP0=0, select bank0
 11871  0FB1  1283               	bcf	status, 6	;RP1=0, select bank0
 11872  0FB2  1303               	movwf	(___flmul@prod+3)
 11873  0FB3  00C4               	movlw	080h
 11874  0FB4  3080               	movwf	(___flmul@prod+2)
 11875  0FB5  00C3               	movlw	0
 11876  0FB6  3000               	movwf	(___flmul@prod+1)
 11877  0FB7  00C2               	movlw	0
 11878  0FB8  3000               	movwf	(___flmul@prod)
 11879  0FB9  00C1               
 11880                           	line	185
 11881                           	goto	l669
 11882  0FBA  2FF2               	line	187
 11883                           	
 11884                           l668:	
 11885  0FBB                     	
 11886                           l2453:	
 11887  0FBB                     	bcf	status, 5	;RP0=0, select bank0
 11888  0FBB  1283               	bcf	status, 6	;RP1=0, select bank0
 11889  0FBC  1303               	movf	(___flmul@temp+1),w
 11890  0FBD  0846               	xorlw	80h
 11891  0FBE  3A80               	movwf	btemp+1
 11892  0FBF  00FF               	movlw	(0)^80h
 11893  0FC0  3080               	subwf	btemp+1,w
 11894  0FC1  027F               	skipz
 11895  0FC2  1D03               	goto	u4005
 11896  0FC3  2FC6               	movlw	01h
 11897  0FC4  3001               	subwf	(___flmul@temp),w
 11898  0FC5  0245               u4005:
 11899  0FC6                     
 11900                           	skipnc
 11901  0FC6  1803               	goto	u4001
 11902  0FC7  2FC9               	goto	u4000
 11903  0FC8  2FCA               u4001:
 11904  0FC9                     	goto	l2459
 11905  0FC9  2FD6               u4000:
 11906  0FCA                     	line	188
 11907                           	
 11908                           l2455:	
 11909  0FCA                     	movlw	high highword(0)
 11910  0FCA  3000               	bcf	status, 5	;RP0=0, select bank0
 11911  0FCB  1283               	bcf	status, 6	;RP1=0, select bank0
 11912  0FCC  1303               	movwf	(___flmul@prod+3)
 11913  0FCD  00C4               	movlw	low highword(0)
 11914  0FCE  3000               	movwf	(___flmul@prod+2)
 11915  0FCF  00C3               	movlw	high(0)
 11916  0FD0  3000               	movwf	(___flmul@prod+1)
 11917  0FD1  00C2               	movlw	low(0)
 11918  0FD2  3000               	movwf	(___flmul@prod)
 11919  0FD3  00C1               
 11920                           	line	190
 11921                           	
 11922                           l2457:	
 11923  0FD4                     	clrf	(___flmul@sign)
 11924  0FD4  01BA               	line	191
 11925                           	goto	l669
 11926  0FD5  2FF2               	line	192
 11927                           	
 11928                           l670:	
 11929  0FD6                     	line	194
 11930                           	
 11931                           l2459:	
 11932  0FD6                     	bcf	status, 5	;RP0=0, select bank0
 11933  0FD6  1283               	bcf	status, 6	;RP1=0, select bank0
 11934  0FD7  1303               	movf	(___flmul@temp),w
 11935  0FD8  0845               	movwf	(??___flmul+0)+0
 11936  0FD9  00B5               	movf	(??___flmul+0)+0,w
 11937  0FDA  0835               	movwf	(___flmul@bexp)
 11938  0FDB  00C0               	line	195
 11939                           	movlw	0FFh
 11940  0FDC  30FF               	andwf	(___flmul@prod),f
 11941  0FDD  05C1               	movlw	0FFh
 11942  0FDE  30FF               	andwf	(___flmul@prod+1),f
 11943  0FDF  05C2               	movlw	07Fh
 11944  0FE0  307F               	andwf	(___flmul@prod+2),f
 11945  0FE1  05C3               	movlw	0
 11946  0FE2  3000               	andwf	(___flmul@prod+3),f
 11947  0FE3  05C4               	line	196
 11948                           	
 11949                           l2461:	
 11950  0FE4                     	btfss	(___flmul@bexp),(0)&7
 11951  0FE4  1C40               	goto	u4011
 11952  0FE5  2FE7               	goto	u4010
 11953  0FE6  2FE8               u4011:
 11954  0FE7                     	goto	l2465
 11955  0FE7  2FEA               u4010:
 11956  0FE8                     	line	197
 11957                           	
 11958                           l2463:	
 11959  0FE8                     	bsf	0+(___flmul@prod)+02h+(7/8),(7)&7
 11960  0FE8  17C3               	goto	l2465
 11961  0FE9  2FEA               	line	198
 11962                           	
 11963                           l672:	
 11964  0FEA                     	line	199
 11965                           	
 11966                           l2465:	
 11967  0FEA                     	movf	(___flmul@bexp),w
 11968  0FEA  0840               	movwf	(??___flmul+0)+0
 11969  0FEB  00B5               	clrc
 11970  0FEC  1003               	rrf	(??___flmul+0)+0,w
 11971  0FED  0C35               	movwf	(??___flmul+1)+0
 11972  0FEE  00B6               	movf	(??___flmul+1)+0,w
 11973  0FEF  0836               	movwf	0+(___flmul@prod)+03h
 11974  0FF0  00C4               	goto	l669
 11975  0FF1  2FF2               	line	200
 11976                           	
 11977                           l671:	
 11978  0FF2                     	
 11979                           l669:	
 11980  0FF2                     	line	201
 11981                           	movf	(___flmul@sign),w
 11982  0FF2  083A               	movwf	(??___flmul+0)+0
 11983  0FF3  00B5               	movf	(??___flmul+0)+0,w
 11984  0FF4  0835               	iorwf	0+(___flmul@prod)+03h,f
 11985  0FF5  04C4               	line	203
 11986                           	
 11987                           l2467:	
 11988  0FF6                     	movf	(___flmul@prod+3),w
 11989  0FF6  0844               	movwf	(?___flmul+3)
 11990  0FF7  00B0               	movf	(___flmul@prod+2),w
 11991  0FF8  0843               	movwf	(?___flmul+2)
 11992  0FF9  00AF               	movf	(___flmul@prod+1),w
 11993  0FFA  0842               	movwf	(?___flmul+1)
 11994  0FFB  00AE               	movf	(___flmul@prod),w
 11995  0FFC  0841               	movwf	(?___flmul)
 11996  0FFD  00AD               
 11997                           	goto	l657
 11998  0FFE  2FFF               	
 11999                           l2469:	
 12000  0FFF                     	line	205
 12001                           	
 12002                           l657:	
 12003  0FFF                     	return
 12004  0FFF  0008               	opt stack 0
 12005                           GLOBAL	__end_of___flmul
 12006                           	__end_of___flmul:
 12007  1000                     	signat	___flmul,8316
 12008                           	global	__Umul8_16
 12009                           
 12010 ;; *************** function __Umul8_16 *****************
 12011 ;; Defined at:
 12012 ;;		line 4 in file "C:\Program Files (x86)\Microchip\xc8\v2.00\pic\sources\c90\common\Umul8_16.c"
 12013 ;; Parameters:    Size  Location     Type
 12014 ;;  multiplier      1    wreg     unsigned char 
 12015 ;;  multiplicand    1    0[COMMON] unsigned char 
 12016 ;; Auto vars:     Size  Location     Type
 12017 ;;  multiplier      1    8[COMMON] unsigned char 
 12018 ;;  word_mpld       2    6[COMMON] unsigned int 
 12019 ;;  product         2    4[COMMON] unsigned int 
 12020 ;; Return value:  Size  Location     Type
 12021 ;;                  2    0[COMMON] unsigned int 
 12022 ;; Registers used:
 12023 ;;		wreg, status,2, status,0
 12024 ;; Tracked objects:
 12025 ;;		On entry : 0/0
 12026 ;;		On exit  : 0/0
 12027 ;;		Unchanged: 0/0
 12028 ;; Data sizes:     COMMON   BANK0   BANK1   BANK3   BANK2
 12029 ;;      Params:         2       0       0       0       0
 12030 ;;      Locals:         5       0       0       0       0
 12031 ;;      Temps:          2       0       0       0       0
 12032 ;;      Totals:         9       0       0       0       0
 12033 ;;Total ram usage:        9 bytes
 12034 ;; Hardware stack levels used:    1
 12035 ;; This function calls:
 12036 ;;		Nothing
 12037 ;; This function is called by:
 12038 ;;		___flmul
 12039 ;; This function uses a non-reentrant model
 12040 ;;
 12041                           psect	text26,local,class=CODE,delta=2,merge=1,group=1
 12042                           	file	"C:\Program Files (x86)\Microchip\xc8\v2.00\pic\sources\c90\common\Umul8_16.c"
 12043                           	line	4
 12044                           global __ptext26
 12045                           __ptext26:	;psect for function __Umul8_16
 12046  1B88                     psect	text26
 12047                           	file	"C:\Program Files (x86)\Microchip\xc8\v2.00\pic\sources\c90\common\Umul8_16.c"
 12048                           	line	4
 12049                           	global	__size_of__Umul8_16
 12050                           	__size_of__Umul8_16	equ	__end_of__Umul8_16-__Umul8_16
 12051  002A                     	
 12052                           __Umul8_16:	
 12053  1B88                     ;incstack = 0
 12054                           	opt	stack 4
 12055                           ; Regs used in __Umul8_16: [wreg+status,2+status,0]
 12056                           ;__Umul8_16@multiplier stored from wreg
 12057                           	movwf	(__Umul8_16@multiplier)
 12058  1B88  00F8               	line	5
 12059                           	
 12060                           l1993:	
 12061  1B89                     	clrf	(__Umul8_16@product)
 12062  1B89  01F4               	clrf	(__Umul8_16@product+1)
 12063  1B8A  01F5               	line	6
 12064                           	
 12065                           l1995:	
 12066  1B8B                     	movf	(__Umul8_16@multiplicand),w
 12067  1B8B  0870               	movwf	(??__Umul8_16+0)+0
 12068  1B8C  00F2               	clrf	(??__Umul8_16+0)+0+1
 12069  1B8D  01F3               	movf	0+(??__Umul8_16+0)+0,w
 12070  1B8E  0872               	movwf	(__Umul8_16@word_mpld)
 12071  1B8F  00F6               	movf	1+(??__Umul8_16+0)+0,w
 12072  1B90  0873               	movwf	(__Umul8_16@word_mpld+1)
 12073  1B91  00F7               	goto	l1997
 12074  1B92  2B93               	line	50
 12075                           	
 12076                           l698:	
 12077  1B93                     	line	51
 12078                           	
 12079                           l1997:	
 12080  1B93                     	btfss	(__Umul8_16@multiplier),(0)&7
 12081  1B93  1C78               	goto	u2841
 12082  1B94  2B96               	goto	u2840
 12083  1B95  2B97               u2841:
 12084  1B96                     	goto	l699
 12085  1B96  2B9D               u2840:
 12086  1B97                     	line	52
 12087                           	
 12088                           l1999:	
 12089  1B97                     	movf	(__Umul8_16@word_mpld),w
 12090  1B97  0876               	addwf	(__Umul8_16@product),f
 12091  1B98  07F4               	skipnc
 12092  1B99  1803               	incf	(__Umul8_16@product+1),f
 12093  1B9A  0AF5               	movf	(__Umul8_16@word_mpld+1),w
 12094  1B9B  0877               	addwf	(__Umul8_16@product+1),f
 12095  1B9C  07F5               	line	53
 12096                           	
 12097                           l699:	
 12098  1B9D                     	line	54
 12099                           	movlw	01h
 12100  1B9D  3001               	
 12101                           u2855:
 12102  1B9E                     	clrc
 12103  1B9E  1003               	rlf	(__Umul8_16@word_mpld),f
 12104  1B9F  0DF6               	rlf	(__Umul8_16@word_mpld+1),f
 12105  1BA0  0DF7               	addlw	-1
 12106  1BA1  3EFF               	skipz
 12107  1BA2  1D03               	goto	u2855
 12108  1BA3  2B9E               	line	55
 12109                           	clrc
 12110  1BA4  1003               	rrf	(__Umul8_16@multiplier),f
 12111  1BA5  0CF8               
 12112                           	line	56
 12113                           	
 12114                           l2001:	
 12115  1BA6                     	movf	((__Umul8_16@multiplier)),w
 12116  1BA6  0878               	btfss	status,2
 12117  1BA7  1D03               	goto	u2861
 12118  1BA8  2BAA               	goto	u2860
 12119  1BA9  2BAB               u2861:
 12120  1BAA                     	goto	l1997
 12121  1BAA  2B93               u2860:
 12122  1BAB                     	goto	l2003
 12123  1BAB  2BAC               	
 12124                           l700:	
 12125  1BAC                     	line	59
 12126                           	
 12127                           l2003:	
 12128  1BAC                     	movf	(__Umul8_16@product+1),w
 12129  1BAC  0875               	movwf	(?__Umul8_16+1)
 12130  1BAD  00F1               	movf	(__Umul8_16@product),w
 12131  1BAE  0874               	movwf	(?__Umul8_16)
 12132  1BAF  00F0               	goto	l701
 12133  1BB0  2BB1               	
 12134                           l2005:	
 12135  1BB1                     	line	60
 12136                           	
 12137                           l701:	
 12138  1BB1                     	return
 12139  1BB1  0008               	opt stack 0
 12140                           GLOBAL	__end_of__Umul8_16
 12141                           	__end_of__Umul8_16:
 12142  1BB2                     	signat	__Umul8_16,8314
 12143                           	global	___fldiv
 12144                           
 12145 ;; *************** function ___fldiv *****************
 12146 ;; Defined at:
 12147 ;;		line 8 in file "C:\Program Files (x86)\Microchip\xc8\v2.00\pic\sources\c90\common\sprcdiv.c"
 12148 ;; Parameters:    Size  Location     Type
 12149 ;;  a               4    0[COMMON] unsigned int 
 12150 ;;  b               4    4[COMMON] unsigned int 
 12151 ;; Auto vars:     Size  Location     Type
 12152 ;;  grs             4    7[BANK0 ] unsigned long 
 12153 ;;  rem             4    0[BANK0 ] unsigned long 
 12154 ;;  new_exp         2    5[BANK0 ] int 
 12155 ;;  aexp            1   12[BANK0 ] unsigned char 
 12156 ;;  bexp            1   11[BANK0 ] unsigned char 
 12157 ;;  sign            1    4[BANK0 ] unsigned char 
 12158 ;; Return value:  Size  Location     Type
 12159 ;;                  4    0[COMMON] unsigned char 
 12160 ;; Registers used:
 12161 ;;		wreg, status,2, status,0, btemp+1
 12162 ;; Tracked objects:
 12163 ;;		On entry : 0/0
 12164 ;;		On exit  : 0/0
 12165 ;;		Unchanged: 0/0
 12166 ;; Data sizes:     COMMON   BANK0   BANK1   BANK3   BANK2
 12167 ;;      Params:         8       0       0       0       0
 12168 ;;      Locals:         0      13       0       0       0
 12169 ;;      Temps:          5       0       0       0       0
 12170 ;;      Totals:        13      13       0       0       0
 12171 ;;Total ram usage:       26 bytes
 12172 ;; Hardware stack levels used:    1
 12173 ;; This function calls:
 12174 ;;		Nothing
 12175 ;; This function is called by:
 12176 ;;		_adc_read
 12177 ;; This function uses a non-reentrant model
 12178 ;;
 12179                           psect	text27,local,class=CODE,delta=2,merge=1,group=1
 12180                           	file	"C:\Program Files (x86)\Microchip\xc8\v2.00\pic\sources\c90\common\sprcdiv.c"
 12181                           	line	8
 12182                           global __ptext27
 12183                           __ptext27:	;psect for function ___fldiv
 12184  106F                     psect	text27
 12185                           	file	"C:\Program Files (x86)\Microchip\xc8\v2.00\pic\sources\c90\common\sprcdiv.c"
 12186                           	line	8
 12187                           	global	__size_of___fldiv
 12188                           	__size_of___fldiv	equ	__end_of___fldiv-___fldiv
 12189  020F                     	
 12190                           ___fldiv:	
 12191  106F                     ;incstack = 0
 12192                           	opt	stack 6
 12193                           ; Regs used in ___fldiv: [wreg+status,2+status,0+btemp+1]
 12194                           	line	26
 12195                           	
 12196                           l2781:	
 12197  106F                     	movf	0+(___fldiv@b)+03h,w
 12198  106F  0877               	andlw	080h
 12199  1070  3980               	movwf	(??___fldiv+0)+0
 12200  1071  00F8               	movf	(??___fldiv+0)+0,w
 12201  1072  0878               	bcf	status, 5	;RP0=0, select bank0
 12202  1073  1283               	bcf	status, 6	;RP1=0, select bank0
 12203  1074  1303               	movwf	(___fldiv@sign)
 12204  1075  00A4               	line	27
 12205                           	
 12206                           l2783:	
 12207  1076                     	movf	0+(___fldiv@b)+03h,w
 12208  1076  0877               	movwf	(??___fldiv+0)+0
 12209  1077  00F8               	addwf	(??___fldiv+0)+0,w
 12210  1078  0778               	movwf	(??___fldiv+1)+0
 12211  1079  00F9               	movf	(??___fldiv+1)+0,w
 12212  107A  0879               	movwf	(___fldiv@bexp)
 12213  107B  00AB               	line	28
 12214                           	
 12215                           l2785:	
 12216  107C                     	btfss	0+(___fldiv@b)+02h,(7)&7
 12217  107C  1FF6               	goto	u4921
 12218  107D  287F               	goto	u4920
 12219  107E  2880               u4921:
 12220  107F                     	goto	l2789
 12221  107F  2882               u4920:
 12222  1080                     	line	29
 12223                           	
 12224                           l2787:	
 12225  1080                     	bsf	(___fldiv@bexp)+(0/8),(0)&7
 12226  1080  142B               	goto	l2789
 12227  1081  2882               	line	30
 12228                           	
 12229                           l610:	
 12230  1082                     	line	33
 12231                           	
 12232                           l2789:	
 12233  1082                     	movf	((___fldiv@bexp)),w
 12234  1082  082B               	btfsc	status,2
 12235  1083  1903               	goto	u4931
 12236  1084  2886               	goto	u4930
 12237  1085  2887               u4931:
 12238  1086                     	goto	l2799
 12239  1086  2898               u4930:
 12240  1087                     	line	35
 12241                           	
 12242                           l2791:	
 12243  1087                     		incf	((___fldiv@bexp)),w
 12244  1087  0A2B               	btfss	status,2
 12245  1088  1D03               	goto	u4941
 12246  1089  288B               	goto	u4940
 12247  108A  288C               u4941:
 12248  108B                     	goto	l2795
 12249  108B  2895               u4940:
 12250  108C                     	line	37
 12251                           	
 12252                           l2793:	
 12253  108C                     	movlw	0x0
 12254  108C  3000               	movwf	(___fldiv@b+3)
 12255  108D  00F7               	movlw	0x0
 12256  108E  3000               	movwf	(___fldiv@b+2)
 12257  108F  00F6               	movlw	0x0
 12258  1090  3000               	movwf	(___fldiv@b+1)
 12259  1091  00F5               	movlw	0x0
 12260  1092  3000               	movwf	(___fldiv@b)
 12261  1093  00F4               
 12262                           	goto	l2795
 12263  1094  2895               	line	38
 12264                           	
 12265                           l612:	
 12266  1095                     	line	40
 12267                           	
 12268                           l2795:	
 12269  1095                     	bsf	(___fldiv@b)+(23/8),(23)&7
 12270  1095  17F6               	line	42
 12271                           	
 12272                           l2797:	
 12273  1096                     	clrf	0+(___fldiv@b)+03h
 12274  1096  01F7               	line	43
 12275                           	goto	l2801
 12276  1097  28A1               	line	44
 12277                           	
 12278                           l611:	
 12279  1098                     	line	46
 12280                           	
 12281                           l2799:	
 12282  1098                     	movlw	0x0
 12283  1098  3000               	movwf	(___fldiv@b+3)
 12284  1099  00F7               	movlw	0x0
 12285  109A  3000               	movwf	(___fldiv@b+2)
 12286  109B  00F6               	movlw	0x0
 12287  109C  3000               	movwf	(___fldiv@b+1)
 12288  109D  00F5               	movlw	0x0
 12289  109E  3000               	movwf	(___fldiv@b)
 12290  109F  00F4               
 12291                           	goto	l2801
 12292  10A0  28A1               	line	47
 12293                           	
 12294                           l613:	
 12295  10A1                     	line	49
 12296                           	
 12297                           l2801:	
 12298  10A1                     	movf	0+(___fldiv@a)+03h,w
 12299  10A1  0873               	andlw	080h
 12300  10A2  3980               	movwf	(??___fldiv+0)+0
 12301  10A3  00F8               	movf	(??___fldiv+0)+0,w
 12302  10A4  0878               	xorwf	(___fldiv@sign),f
 12303  10A5  06A4               	line	50
 12304                           	
 12305                           l2803:	
 12306  10A6                     	movf	0+(___fldiv@a)+03h,w
 12307  10A6  0873               	movwf	(??___fldiv+0)+0
 12308  10A7  00F8               	addwf	(??___fldiv+0)+0,w
 12309  10A8  0778               	movwf	(??___fldiv+1)+0
 12310  10A9  00F9               	movf	(??___fldiv+1)+0,w
 12311  10AA  0879               	movwf	(___fldiv@aexp)
 12312  10AB  00AC               	line	51
 12313                           	
 12314                           l2805:	
 12315  10AC                     	btfss	0+(___fldiv@a)+02h,(7)&7
 12316  10AC  1FF2               	goto	u4951
 12317  10AD  28AF               	goto	u4950
 12318  10AE  28B0               u4951:
 12319  10AF                     	goto	l2809
 12320  10AF  28B2               u4950:
 12321  10B0                     	line	52
 12322                           	
 12323                           l2807:	
 12324  10B0                     	bsf	(___fldiv@aexp)+(0/8),(0)&7
 12325  10B0  142C               	goto	l2809
 12326  10B1  28B2               	line	53
 12327                           	
 12328                           l614:	
 12329  10B2                     	line	56
 12330                           	
 12331                           l2809:	
 12332  10B2                     	movf	((___fldiv@aexp)),w
 12333  10B2  082C               	btfsc	status,2
 12334  10B3  1903               	goto	u4961
 12335  10B4  28B6               	goto	u4960
 12336  10B5  28B7               u4961:
 12337  10B6                     	goto	l2819
 12338  10B6  28C8               u4960:
 12339  10B7                     	line	58
 12340                           	
 12341                           l2811:	
 12342  10B7                     		incf	((___fldiv@aexp)),w
 12343  10B7  0A2C               	btfss	status,2
 12344  10B8  1D03               	goto	u4971
 12345  10B9  28BB               	goto	u4970
 12346  10BA  28BC               u4971:
 12347  10BB                     	goto	l2815
 12348  10BB  28C5               u4970:
 12349  10BC                     	line	60
 12350                           	
 12351                           l2813:	
 12352  10BC                     	movlw	0x0
 12353  10BC  3000               	movwf	(___fldiv@a+3)
 12354  10BD  00F3               	movlw	0x0
 12355  10BE  3000               	movwf	(___fldiv@a+2)
 12356  10BF  00F2               	movlw	0x0
 12357  10C0  3000               	movwf	(___fldiv@a+1)
 12358  10C1  00F1               	movlw	0x0
 12359  10C2  3000               	movwf	(___fldiv@a)
 12360  10C3  00F0               
 12361                           	goto	l2815
 12362  10C4  28C5               	line	61
 12363                           	
 12364                           l616:	
 12365  10C5                     	line	63
 12366                           	
 12367                           l2815:	
 12368  10C5                     	bsf	(___fldiv@a)+(23/8),(23)&7
 12369  10C5  17F2               	line	65
 12370                           	
 12371                           l2817:	
 12372  10C6                     	clrf	0+(___fldiv@a)+03h
 12373  10C6  01F3               	line	66
 12374                           	goto	l617
 12375  10C7  28D0               	line	67
 12376                           	
 12377                           l615:	
 12378  10C8                     	line	69
 12379                           	
 12380                           l2819:	
 12381  10C8                     	movlw	0x0
 12382  10C8  3000               	movwf	(___fldiv@a+3)
 12383  10C9  00F3               	movlw	0x0
 12384  10CA  3000               	movwf	(___fldiv@a+2)
 12385  10CB  00F2               	movlw	0x0
 12386  10CC  3000               	movwf	(___fldiv@a+1)
 12387  10CD  00F1               	movlw	0x0
 12388  10CE  3000               	movwf	(___fldiv@a)
 12389  10CF  00F0               
 12390                           	line	70
 12391                           	
 12392                           l617:	
 12393  10D0                     	line	75
 12394                           	movf	(___fldiv@a+3),w
 12395  10D0  0873               	iorwf	(___fldiv@a+2),w
 12396  10D1  0472               	iorwf	(___fldiv@a+1),w
 12397  10D2  0471               	iorwf	(___fldiv@a),w
 12398  10D3  0470               	skipz
 12399  10D4  1D03               	goto	u4981
 12400  10D5  28D7               	goto	u4980
 12401  10D6  28D8               u4981:
 12402  10D7                     	goto	l2829
 12403  10D7  28F2               u4980:
 12404  10D8                     	line	76
 12405                           	
 12406                           l2821:	
 12407  10D8                     	movlw	high highword(0)
 12408  10D8  3000               	movwf	(___fldiv@b+3)
 12409  10D9  00F7               	movlw	low highword(0)
 12410  10DA  3000               	movwf	(___fldiv@b+2)
 12411  10DB  00F6               	movlw	high(0)
 12412  10DC  3000               	movwf	(___fldiv@b+1)
 12413  10DD  00F5               	movlw	low(0)
 12414  10DE  3000               	movwf	(___fldiv@b)
 12415  10DF  00F4               
 12416                           	line	77
 12417                           	movlw	080h
 12418  10E0  3080               	iorwf	0+(___fldiv@b)+02h,f
 12419  10E1  04F6               	movlw	07Fh
 12420  10E2  307F               	iorwf	1+(___fldiv@b)+02h,f
 12421  10E3  04F7               	line	78
 12422                           	
 12423                           l2823:	
 12424  10E4                     	movf	(___fldiv@sign),w
 12425  10E4  0824               	movwf	(??___fldiv+0)+0
 12426  10E5  00F8               	movf	(??___fldiv+0)+0,w
 12427  10E6  0878               	iorwf	0+(___fldiv@b)+03h,f
 12428  10E7  04F7               	line	79
 12429                           	
 12430                           l2825:	
 12431  10E8                     	movf	(___fldiv@b+3),w
 12432  10E8  0877               	movwf	(?___fldiv+3)
 12433  10E9  00F3               	movf	(___fldiv@b+2),w
 12434  10EA  0876               	movwf	(?___fldiv+2)
 12435  10EB  00F2               	movf	(___fldiv@b+1),w
 12436  10EC  0875               	movwf	(?___fldiv+1)
 12437  10ED  00F1               	movf	(___fldiv@b),w
 12438  10EE  0874               	movwf	(?___fldiv)
 12439  10EF  00F0               
 12440                           	goto	l619
 12441  10F0  2A7D               	
 12442                           l2827:	
 12443  10F1                     	goto	l619
 12444  10F1  2A7D               	line	80
 12445                           	
 12446                           l618:	
 12447  10F2                     	line	83
 12448                           	
 12449                           l2829:	
 12450  10F2                     	movf	((___fldiv@bexp)),w
 12451  10F2  082B               	btfss	status,2
 12452  10F3  1D03               	goto	u4991
 12453  10F4  28F6               	goto	u4990
 12454  10F5  28F7               u4991:
 12455  10F6                     	goto	l2835
 12456  10F6  2909               u4990:
 12457  10F7                     	line	84
 12458                           	
 12459                           l2831:	
 12460  10F7                     	movlw	high highword(0)
 12461  10F7  3000               	movwf	(___fldiv@b+3)
 12462  10F8  00F7               	movlw	low highword(0)
 12463  10F9  3000               	movwf	(___fldiv@b+2)
 12464  10FA  00F6               	movlw	high(0)
 12465  10FB  3000               	movwf	(___fldiv@b+1)
 12466  10FC  00F5               	movlw	low(0)
 12467  10FD  3000               	movwf	(___fldiv@b)
 12468  10FE  00F4               
 12469                           	line	85
 12470                           	movf	(___fldiv@b+3),w
 12471  10FF  0877               	movwf	(?___fldiv+3)
 12472  1100  00F3               	movf	(___fldiv@b+2),w
 12473  1101  0876               	movwf	(?___fldiv+2)
 12474  1102  00F2               	movf	(___fldiv@b+1),w
 12475  1103  0875               	movwf	(?___fldiv+1)
 12476  1104  00F1               	movf	(___fldiv@b),w
 12477  1105  0874               	movwf	(?___fldiv)
 12478  1106  00F0               
 12479                           	goto	l619
 12480  1107  2A7D               	
 12481                           l2833:	
 12482  1108                     	goto	l619
 12483  1108  2A7D               	line	86
 12484                           	
 12485                           l620:	
 12486  1109                     	line	89
 12487                           	
 12488                           l2835:	
 12489  1109                     	movf	(___fldiv@aexp),w
 12490  1109  082C               	movwf	(??___fldiv+0)+0
 12491  110A  00F8               	clrf	(??___fldiv+0)+0+1
 12492  110B  01F9               	comf	(??___fldiv+0)+0,f
 12493  110C  09F8               	comf	(??___fldiv+0)+1,f
 12494  110D  09F9               	incf	(??___fldiv+0)+0,f
 12495  110E  0AF8               	skipnz
 12496  110F  1903               	incf	(??___fldiv+0)+1,f
 12497  1110  0AF9               	movf	(___fldiv@bexp),w
 12498  1111  082B               	addwf	0+(??___fldiv+0)+0,w
 12499  1112  0778               	movwf	(??___fldiv+2)+0
 12500  1113  00FA               	movf	1+(??___fldiv+0)+0,w
 12501  1114  0879               	skipnc
 12502  1115  1803               	incf	1+(??___fldiv+0)+0,w
 12503  1116  0A79               	movwf	((??___fldiv+2)+0)+1
 12504  1117  00FB               	movf	0+(??___fldiv+2)+0,w
 12505  1118  087A               	addlw	low(07Fh)
 12506  1119  3E7F               	movwf	(___fldiv@new_exp)
 12507  111A  00A5               	movf	1+(??___fldiv+2)+0,w
 12508  111B  087B               	skipnc
 12509  111C  1803               	addlw	1
 12510  111D  3E01               	addlw	high(07Fh)
 12511  111E  3E00               	movwf	1+(___fldiv@new_exp)
 12512  111F  00A6               	line	92
 12513                           	
 12514                           l2837:	
 12515  1120                     	movf	(___fldiv@b+3),w
 12516  1120  0877               	movwf	(___fldiv@rem+3)
 12517  1121  00A3               	movf	(___fldiv@b+2),w
 12518  1122  0876               	movwf	(___fldiv@rem+2)
 12519  1123  00A2               	movf	(___fldiv@b+1),w
 12520  1124  0875               	movwf	(___fldiv@rem+1)
 12521  1125  00A1               	movf	(___fldiv@b),w
 12522  1126  0874               	movwf	(___fldiv@rem)
 12523  1127  00A0               
 12524                           	line	93
 12525                           	
 12526                           l2839:	
 12527  1128                     	movlw	high highword(0)
 12528  1128  3000               	movwf	(___fldiv@b+3)
 12529  1129  00F7               	movlw	low highword(0)
 12530  112A  3000               	movwf	(___fldiv@b+2)
 12531  112B  00F6               	movlw	high(0)
 12532  112C  3000               	movwf	(___fldiv@b+1)
 12533  112D  00F5               	movlw	low(0)
 12534  112E  3000               	movwf	(___fldiv@b)
 12535  112F  00F4               
 12536                           	line	94
 12537                           	
 12538                           l2841:	
 12539  1130                     	movlw	high highword(0)
 12540  1130  3000               	movwf	(___fldiv@grs+3)
 12541  1131  00AA               	movlw	low highword(0)
 12542  1132  3000               	movwf	(___fldiv@grs+2)
 12543  1133  00A9               	movlw	high(0)
 12544  1134  3000               	movwf	(___fldiv@grs+1)
 12545  1135  00A8               	movlw	low(0)
 12546  1136  3000               	movwf	(___fldiv@grs)
 12547  1137  00A7               
 12548                           	line	96
 12549                           	
 12550                           l2843:	
 12551  1138                     	clrf	(___fldiv@aexp)
 12552  1138  01AC               	line	97
 12553                           	goto	l2863
 12554  1139  298E               	
 12555                           l622:	
 12556  113A                     	line	100
 12557                           	
 12558                           l2845:	
 12559  113A                     	movf	((___fldiv@aexp)),w
 12560  113A  082C               	btfsc	status,2
 12561  113B  1903               	goto	u5001
 12562  113C  293E               	goto	u5000
 12563  113D  293F               u5001:
 12564  113E                     	goto	l2855
 12565  113E  2961               u5000:
 12566  113F                     	line	101
 12567                           	
 12568                           l2847:	
 12569  113F                     	movlw	01h
 12570  113F  3001               	movwf	(??___fldiv+0)+0
 12571  1140  00F8               u5015:
 12572  1141                     	clrc
 12573  1141  1003               	rlf	(___fldiv@rem),f
 12574  1142  0DA0               	rlf	(___fldiv@rem+1),f
 12575  1143  0DA1               	rlf	(___fldiv@rem+2),f
 12576  1144  0DA2               	rlf	(___fldiv@rem+3),f
 12577  1145  0DA3               	decfsz	(??___fldiv+0)+0
 12578  1146  0BF8               	goto	u5015
 12579  1147  2941               	line	102
 12580                           	movlw	01h
 12581  1148  3001               	movwf	(??___fldiv+0)+0
 12582  1149  00F8               u5025:
 12583  114A                     	clrc
 12584  114A  1003               	rlf	(___fldiv@b),f
 12585  114B  0DF4               	rlf	(___fldiv@b+1),f
 12586  114C  0DF5               	rlf	(___fldiv@b+2),f
 12587  114D  0DF6               	rlf	(___fldiv@b+3),f
 12588  114E  0DF7               	decfsz	(??___fldiv+0)+0
 12589  114F  0BF8               	goto	u5025
 12590  1150  294A               	line	103
 12591                           	
 12592                           l2849:	
 12593  1151                     	btfss	(___fldiv@grs+3),(31)&7
 12594  1151  1FAA               	goto	u5031
 12595  1152  2954               	goto	u5030
 12596  1153  2955               u5031:
 12597  1154                     	goto	l2853
 12598  1154  2957               u5030:
 12599  1155                     	line	104
 12600                           	
 12601                           l2851:	
 12602  1155                     	bsf	(___fldiv@b)+(0/8),(0)&7
 12603  1155  1474               	goto	l2853
 12604  1156  2957               	line	105
 12605                           	
 12606                           l624:	
 12607  1157                     	line	106
 12608                           	
 12609                           l2853:	
 12610  1157                     	movlw	01h
 12611  1157  3001               	movwf	(??___fldiv+0)+0
 12612  1158  00F8               u5045:
 12613  1159                     	clrc
 12614  1159  1003               	rlf	(___fldiv@grs),f
 12615  115A  0DA7               	rlf	(___fldiv@grs+1),f
 12616  115B  0DA8               	rlf	(___fldiv@grs+2),f
 12617  115C  0DA9               	rlf	(___fldiv@grs+3),f
 12618  115D  0DAA               	decfsz	(??___fldiv+0)+0
 12619  115E  0BF8               	goto	u5045
 12620  115F  2959               	goto	l2855
 12621  1160  2961               	line	107
 12622                           	
 12623                           l623:	
 12624  1161                     	line	112
 12625                           	
 12626                           l2855:	
 12627  1161                     	movf	(___fldiv@a+3),w
 12628  1161  0873               	subwf	(___fldiv@rem+3),w
 12629  1162  0223               	skipz
 12630  1163  1D03               	goto	u5055
 12631  1164  296F               	movf	(___fldiv@a+2),w
 12632  1165  0872               	subwf	(___fldiv@rem+2),w
 12633  1166  0222               	skipz
 12634  1167  1D03               	goto	u5055
 12635  1168  296F               	movf	(___fldiv@a+1),w
 12636  1169  0871               	subwf	(___fldiv@rem+1),w
 12637  116A  0221               	skipz
 12638  116B  1D03               	goto	u5055
 12639  116C  296F               	movf	(___fldiv@a),w
 12640  116D  0870               	subwf	(___fldiv@rem),w
 12641  116E  0220               u5055:
 12642  116F                     	skipc
 12643  116F  1C03               	goto	u5051
 12644  1170  2972               	goto	u5050
 12645  1171  2973               u5051:
 12646  1172                     	goto	l2861
 12647  1172  2989               u5050:
 12648  1173                     	line	115
 12649                           	
 12650                           l2857:	
 12651  1173                     	bsf	(___fldiv@grs)+(30/8),(30)&7
 12652  1173  172A               	line	116
 12653                           	
 12654                           l2859:	
 12655  1174                     	movf	(___fldiv@a),w
 12656  1174  0870               	subwf	(___fldiv@rem),f
 12657  1175  02A0               	movf	(___fldiv@a+1),w
 12658  1176  0871               	skipc
 12659  1177  1C03               	incfsz	(___fldiv@a+1),w
 12660  1178  0F71               	goto	u5065
 12661  1179  297B               	goto	u5066
 12662  117A  297C               u5065:
 12663  117B                     	subwf	(___fldiv@rem+1),f
 12664  117B  02A1               u5066:
 12665  117C                     	movf	(___fldiv@a+2),w
 12666  117C  0872               	skipc
 12667  117D  1C03               	incfsz	(___fldiv@a+2),w
 12668  117E  0F72               	goto	u5067
 12669  117F  2981               	goto	u5068
 12670  1180  2982               u5067:
 12671  1181                     	subwf	(___fldiv@rem+2),f
 12672  1181  02A2               u5068:
 12673  1182                     	movf	(___fldiv@a+3),w
 12674  1182  0873               	skipc
 12675  1183  1C03               	incfsz	(___fldiv@a+3),w
 12676  1184  0F73               	goto	u5069
 12677  1185  2987               	goto	u5060
 12678  1186  2988               u5069:
 12679  1187                     	subwf	(___fldiv@rem+3),f
 12680  1187  02A3               u5060:
 12681  1188                     
 12682                           	goto	l2861
 12683  1188  2989               	line	117
 12684                           	
 12685                           l625:	
 12686  1189                     	line	118
 12687                           	
 12688                           l2861:	
 12689  1189                     	movlw	low(01h)
 12690  1189  3001               	movwf	(??___fldiv+0)+0
 12691  118A  00F8               	movf	(??___fldiv+0)+0,w
 12692  118B  0878               	addwf	(___fldiv@aexp),f
 12693  118C  07AC               	goto	l2863
 12694  118D  298E               	line	119
 12695                           	
 12696                           l621:	
 12697  118E                     	line	97
 12698                           	
 12699                           l2863:	
 12700  118E                     	movlw	low(01Ah)
 12701  118E  301A               	subwf	(___fldiv@aexp),w
 12702  118F  022C               	skipc
 12703  1190  1C03               	goto	u5071
 12704  1191  2993               	goto	u5070
 12705  1192  2994               u5071:
 12706  1193                     	goto	l2845
 12707  1193  293A               u5070:
 12708  1194                     	goto	l2865
 12709  1194  2995               	
 12710                           l626:	
 12711  1195                     	line	122
 12712                           	
 12713                           l2865:	
 12714  1195                     	movf	(___fldiv@rem+3),w
 12715  1195  0823               	iorwf	(___fldiv@rem+2),w
 12716  1196  0422               	iorwf	(___fldiv@rem+1),w
 12717  1197  0421               	iorwf	(___fldiv@rem),w
 12718  1198  0420               	skipnz
 12719  1199  1903               	goto	u5081
 12720  119A  299C               	goto	u5080
 12721  119B  299D               u5081:
 12722  119C                     	goto	l2879
 12723  119C  29BF               u5080:
 12724  119D                     	line	123
 12725                           	
 12726                           l2867:	
 12727  119D                     	bsf	(___fldiv@grs)+(0/8),(0)&7
 12728  119D  1427               	goto	l2879
 12729  119E  29BF               	line	124
 12730                           	
 12731                           l627:	
 12732  119F                     	line	127
 12733                           	goto	l2879
 12734  119F  29BF               	
 12735                           l629:	
 12736  11A0                     	line	128
 12737                           	
 12738                           l2869:	
 12739  11A0                     	movlw	01h
 12740  11A0  3001               	movwf	(??___fldiv+0)+0
 12741  11A1  00F8               u5095:
 12742  11A2                     	clrc
 12743  11A2  1003               	rlf	(___fldiv@b),f
 12744  11A3  0DF4               	rlf	(___fldiv@b+1),f
 12745  11A4  0DF5               	rlf	(___fldiv@b+2),f
 12746  11A5  0DF6               	rlf	(___fldiv@b+3),f
 12747  11A6  0DF7               	decfsz	(??___fldiv+0)+0
 12748  11A7  0BF8               	goto	u5095
 12749  11A8  29A2               	line	129
 12750                           	
 12751                           l2871:	
 12752  11A9                     	btfss	(___fldiv@grs+3),(31)&7
 12753  11A9  1FAA               	goto	u5101
 12754  11AA  29AC               	goto	u5100
 12755  11AB  29AD               u5101:
 12756  11AC                     	goto	l2875
 12757  11AC  29AF               u5100:
 12758  11AD                     	line	130
 12759                           	
 12760                           l2873:	
 12761  11AD                     	bsf	(___fldiv@b)+(0/8),(0)&7
 12762  11AD  1474               	goto	l2875
 12763  11AE  29AF               	line	131
 12764                           	
 12765                           l630:	
 12766  11AF                     	line	132
 12767                           	
 12768                           l2875:	
 12769  11AF                     	movlw	01h
 12770  11AF  3001               	movwf	(??___fldiv+0)+0
 12771  11B0  00F8               u5115:
 12772  11B1                     	clrc
 12773  11B1  1003               	rlf	(___fldiv@grs),f
 12774  11B2  0DA7               	rlf	(___fldiv@grs+1),f
 12775  11B3  0DA8               	rlf	(___fldiv@grs+2),f
 12776  11B4  0DA9               	rlf	(___fldiv@grs+3),f
 12777  11B5  0DAA               	decfsz	(??___fldiv+0)+0
 12778  11B6  0BF8               	goto	u5115
 12779  11B7  29B1               	line	133
 12780                           	
 12781                           l2877:	
 12782  11B8                     	movlw	0FFh
 12783  11B8  30FF               	addwf	(___fldiv@new_exp),f
 12784  11B9  07A5               	skipnc
 12785  11BA  1803               	incf	(___fldiv@new_exp+1),f
 12786  11BB  0AA6               	movlw	0FFh
 12787  11BC  30FF               	addwf	(___fldiv@new_exp+1),f
 12788  11BD  07A6               	goto	l2879
 12789  11BE  29BF               	line	134
 12790                           	
 12791                           l628:	
 12792  11BF                     	line	127
 12793                           	
 12794                           l2879:	
 12795  11BF                     	btfss	(___fldiv@b+2),(23)&7
 12796  11BF  1FF6               	goto	u5121
 12797  11C0  29C2               	goto	u5120
 12798  11C1  29C3               u5121:
 12799  11C2                     	goto	l2869
 12800  11C2  29A0               u5120:
 12801  11C3                     	goto	l2881
 12802  11C3  29C4               	
 12803                           l631:	
 12804  11C4                     	line	139
 12805                           	
 12806                           l2881:	
 12807  11C4                     	clrf	(___fldiv@aexp)
 12808  11C4  01AC               	line	140
 12809                           	
 12810                           l2883:	
 12811  11C5                     	btfss	(___fldiv@grs+3),(31)&7
 12812  11C5  1FAA               	goto	u5131
 12813  11C6  29C8               	goto	u5130
 12814  11C7  29C9               u5131:
 12815  11C8                     	goto	l2891
 12816  11C8  29E9               u5130:
 12817  11C9                     	line	141
 12818                           	
 12819                           l2885:	
 12820  11C9                     	movlw	0FFh
 12821  11C9  30FF               	andwf	(___fldiv@grs),w
 12822  11CA  0527               	movwf	(??___fldiv+0)+0
 12823  11CB  00F8               	movlw	0FFh
 12824  11CC  30FF               	andwf	(___fldiv@grs+1),w
 12825  11CD  0528               	movwf	((??___fldiv+0)+0+1)
 12826  11CE  00F9               	movlw	0FFh
 12827  11CF  30FF               	andwf	(___fldiv@grs+2),w
 12828  11D0  0529               	movwf	((??___fldiv+0)+0+2)
 12829  11D1  00FA               	movlw	07Fh
 12830  11D2  307F               	andwf	(___fldiv@grs+3),w
 12831  11D3  052A               	movwf	((??___fldiv+0)+0+3)
 12832  11D4  00FB               	movf	3+(??___fldiv+0)+0,w
 12833  11D5  087B               	iorwf	2+(??___fldiv+0)+0,w
 12834  11D6  047A               	iorwf	1+(??___fldiv+0)+0,w
 12835  11D7  0479               	iorwf	0+(??___fldiv+0)+0,w
 12836  11D8  0478               	skipnz
 12837  11D9  1903               	goto	u5141
 12838  11DA  29DC               	goto	u5140
 12839  11DB  29DD               u5141:
 12840  11DC                     	goto	l633
 12841  11DC  29E0               u5140:
 12842  11DD                     	line	142
 12843                           	
 12844                           l2887:	
 12845  11DD                     	clrf	(___fldiv@aexp)
 12846  11DD  01AC               	incf	(___fldiv@aexp),f
 12847  11DE  0AAC               	line	143
 12848                           	goto	l2891
 12849  11DF  29E9               	line	144
 12850                           	
 12851                           l633:	
 12852  11E0                     	line	145
 12853                           	btfss	(___fldiv@b),(0)&7
 12854  11E0  1C74               	goto	u5151
 12855  11E1  29E3               	goto	u5150
 12856  11E2  29E4               u5151:
 12857  11E3                     	goto	l2891
 12858  11E3  29E9               u5150:
 12859  11E4                     	line	146
 12860                           	
 12861                           l2889:	
 12862  11E4                     	clrf	(___fldiv@aexp)
 12863  11E4  01AC               	incf	(___fldiv@aexp),f
 12864  11E5  0AAC               	goto	l2891
 12865  11E6  29E9               	line	147
 12866                           	
 12867                           l635:	
 12868  11E7                     	goto	l2891
 12869  11E7  29E9               	line	148
 12870                           	
 12871                           l634:	
 12872  11E8                     	goto	l2891
 12873  11E8  29E9               	line	149
 12874                           	
 12875                           l632:	
 12876  11E9                     	line	150
 12877                           	
 12878                           l2891:	
 12879  11E9                     	movf	((___fldiv@aexp)),w
 12880  11E9  082C               	btfsc	status,2
 12881  11EA  1903               	goto	u5161
 12882  11EB  29ED               	goto	u5160
 12883  11EC  29EE               u5161:
 12884  11ED                     	goto	l2901
 12885  11ED  2A21               u5160:
 12886  11EE                     	line	151
 12887                           	
 12888                           l2893:	
 12889  11EE                     	movlw	01h
 12890  11EE  3001               	addwf	(___fldiv@b),f
 12891  11EF  07F4               	movlw	0
 12892  11F0  3000               	skipnc
 12893  11F1  1803               movlw 1
 12894  11F2  3001               	addwf	(___fldiv@b+1),f
 12895  11F3  07F5               	movlw	0
 12896  11F4  3000               	skipnc
 12897  11F5  1803               movlw 1
 12898  11F6  3001               	addwf	(___fldiv@b+2),f
 12899  11F7  07F6               	movlw	0
 12900  11F8  3000               	skipnc
 12901  11F9  1803               movlw 1
 12902  11FA  3001               	addwf	(___fldiv@b+3),f
 12903  11FB  07F7               	line	152
 12904                           	
 12905                           l2895:	
 12906  11FC                     	btfss	(___fldiv@b+3),(24)&7
 12907  11FC  1C77               	goto	u5171
 12908  11FD  29FF               	goto	u5170
 12909  11FE  2A00               u5171:
 12910  11FF                     	goto	l2901
 12911  11FF  2A21               u5170:
 12912  1200                     	line	153
 12913                           	
 12914                           l2897:	
 12915  1200                     	movf	(___fldiv@b),w
 12916  1200  0874               	movwf	(??___fldiv+0)+0
 12917  1201  00F8               	movf	(___fldiv@b+1),w
 12918  1202  0875               	movwf	((??___fldiv+0)+0+1)
 12919  1203  00F9               	movf	(___fldiv@b+2),w
 12920  1204  0876               	movwf	((??___fldiv+0)+0+2)
 12921  1205  00FA               	movf	(___fldiv@b+3),w
 12922  1206  0877               	movwf	((??___fldiv+0)+0+3)
 12923  1207  00FB               	movlw	01h
 12924  1208  3001               	movwf	(??___fldiv+4)+0
 12925  1209  00FC               u5185:
 12926  120A                     	rlf	(??___fldiv+0)+3,w
 12927  120A  0D7B               	rrf	(??___fldiv+0)+3,f
 12928  120B  0CFB               	rrf	(??___fldiv+0)+2,f
 12929  120C  0CFA               	rrf	(??___fldiv+0)+1,f
 12930  120D  0CF9               	rrf	(??___fldiv+0)+0,f
 12931  120E  0CF8               u5180:
 12932  120F                     	decfsz	(??___fldiv+4)+0,f
 12933  120F  0BFC               	goto	u5185
 12934  1210  2A0A               	movf	3+(??___fldiv+0)+0,w
 12935  1211  087B               	movwf	(___fldiv@b+3)
 12936  1212  00F7               	movf	2+(??___fldiv+0)+0,w
 12937  1213  087A               	movwf	(___fldiv@b+2)
 12938  1214  00F6               	movf	1+(??___fldiv+0)+0,w
 12939  1215  0879               	movwf	(___fldiv@b+1)
 12940  1216  00F5               	movf	0+(??___fldiv+0)+0,w
 12941  1217  0878               	movwf	(___fldiv@b)
 12942  1218  00F4               
 12943                           	line	154
 12944                           	
 12945                           l2899:	
 12946  1219                     	movlw	01h
 12947  1219  3001               	addwf	(___fldiv@new_exp),f
 12948  121A  07A5               	skipnc
 12949  121B  1803               	incf	(___fldiv@new_exp+1),f
 12950  121C  0AA6               	movlw	0
 12951  121D  3000               	addwf	(___fldiv@new_exp+1),f
 12952  121E  07A6               	goto	l2901
 12953  121F  2A21               	line	155
 12954                           	
 12955                           l637:	
 12956  1220                     	goto	l2901
 12957  1220  2A21               	line	156
 12958                           	
 12959                           l636:	
 12960  1221                     	line	159
 12961                           	
 12962                           l2901:	
 12963  1221                     	movf	(___fldiv@new_exp+1),w
 12964  1221  0826               	xorlw	80h
 12965  1222  3A80               	movwf	btemp+1
 12966  1223  00FF               	movlw	(0)^80h
 12967  1224  3080               	subwf	btemp+1,w
 12968  1225  027F               	skipz
 12969  1226  1D03               	goto	u5195
 12970  1227  2A2A               	movlw	0FFh
 12971  1228  30FF               	subwf	(___fldiv@new_exp),w
 12972  1229  0225               u5195:
 12973  122A                     
 12974                           	skipc
 12975  122A  1C03               	goto	u5191
 12976  122B  2A2D               	goto	u5190
 12977  122C  2A2E               u5191:
 12978  122D                     	goto	l2905
 12979  122D  2A3D               u5190:
 12980  122E                     	line	160
 12981                           	
 12982                           l2903:	
 12983  122E                     	movlw	0FFh
 12984  122E  30FF               	bcf	status, 5	;RP0=0, select bank0
 12985  122F  1283               	bcf	status, 6	;RP1=0, select bank0
 12986  1230  1303               	movwf	(___fldiv@new_exp)
 12987  1231  00A5               	movlw	0
 12988  1232  3000               	movwf	((___fldiv@new_exp))+1
 12989  1233  00A6               	line	161
 12990                           	movlw	high highword(0)
 12991  1234  3000               	movwf	(___fldiv@b+3)
 12992  1235  00F7               	movlw	low highword(0)
 12993  1236  3000               	movwf	(___fldiv@b+2)
 12994  1237  00F6               	movlw	high(0)
 12995  1238  3000               	movwf	(___fldiv@b+1)
 12996  1239  00F5               	movlw	low(0)
 12997  123A  3000               	movwf	(___fldiv@b)
 12998  123B  00F4               
 12999                           	goto	l2905
 13000  123C  2A3D               	line	162
 13001                           	
 13002                           l638:	
 13003  123D                     	line	165
 13004                           	
 13005                           l2905:	
 13006  123D                     	bcf	status, 5	;RP0=0, select bank0
 13007  123D  1283               	bcf	status, 6	;RP1=0, select bank0
 13008  123E  1303               	movf	(___fldiv@new_exp+1),w
 13009  123F  0826               	xorlw	80h
 13010  1240  3A80               	movwf	btemp+1
 13011  1241  00FF               	movlw	(0)^80h
 13012  1242  3080               	subwf	btemp+1,w
 13013  1243  027F               	skipz
 13014  1244  1D03               	goto	u5205
 13015  1245  2A48               	movlw	01h
 13016  1246  3001               	subwf	(___fldiv@new_exp),w
 13017  1247  0225               u5205:
 13018  1248                     
 13019                           	skipnc
 13020  1248  1803               	goto	u5201
 13021  1249  2A4B               	goto	u5200
 13022  124A  2A4C               u5201:
 13023  124B                     	goto	l639
 13024  124B  2A59               u5200:
 13025  124C                     	line	166
 13026                           	
 13027                           l2907:	
 13028  124C                     	bcf	status, 5	;RP0=0, select bank0
 13029  124C  1283               	bcf	status, 6	;RP1=0, select bank0
 13030  124D  1303               	clrf	(___fldiv@new_exp)
 13031  124E  01A5               	clrf	(___fldiv@new_exp+1)
 13032  124F  01A6               	line	167
 13033                           	
 13034                           l2909:	
 13035  1250                     	movlw	high highword(0)
 13036  1250  3000               	movwf	(___fldiv@b+3)
 13037  1251  00F7               	movlw	low highword(0)
 13038  1252  3000               	movwf	(___fldiv@b+2)
 13039  1253  00F6               	movlw	high(0)
 13040  1254  3000               	movwf	(___fldiv@b+1)
 13041  1255  00F5               	movlw	low(0)
 13042  1256  3000               	movwf	(___fldiv@b)
 13043  1257  00F4               
 13044                           	line	169
 13045                           	
 13046                           l2911:	
 13047  1258                     	clrf	(___fldiv@sign)
 13048  1258  01A4               	line	170
 13049                           	
 13050                           l639:	
 13051  1259                     	line	173
 13052                           	bcf	status, 5	;RP0=0, select bank0
 13053  1259  1283               	bcf	status, 6	;RP1=0, select bank0
 13054  125A  1303               	movf	(___fldiv@new_exp),w
 13055  125B  0825               	movwf	(??___fldiv+0)+0
 13056  125C  00F8               	movf	(??___fldiv+0)+0,w
 13057  125D  0878               	movwf	(___fldiv@bexp)
 13058  125E  00AB               	line	175
 13059                           	
 13060                           l2913:	
 13061  125F                     	btfss	(___fldiv@bexp),(0)&7
 13062  125F  1C2B               	goto	u5211
 13063  1260  2A62               	goto	u5210
 13064  1261  2A63               u5211:
 13065  1262                     	goto	l2917
 13066  1262  2A65               u5210:
 13067  1263                     	line	176
 13068                           	
 13069                           l2915:	
 13070  1263                     	bsf	0+(___fldiv@b)+02h+(7/8),(7)&7
 13071  1263  17F6               	line	177
 13072                           	goto	l641
 13073  1264  2A69               	line	179
 13074                           	
 13075                           l640:	
 13076  1265                     	line	180
 13077                           	
 13078                           l2917:	
 13079  1265                     	movlw	low(07Fh)
 13080  1265  307F               	movwf	(??___fldiv+0)+0
 13081  1266  00F8               	movf	(??___fldiv+0)+0,w
 13082  1267  0878               	andwf	0+(___fldiv@b)+02h,f
 13083  1268  05F6               	line	181
 13084                           	
 13085                           l641:	
 13086  1269                     	line	182
 13087                           	movf	(___fldiv@bexp),w
 13088  1269  082B               	movwf	(??___fldiv+0)+0
 13089  126A  00F8               	clrc
 13090  126B  1003               	rrf	(??___fldiv+0)+0,w
 13091  126C  0C78               	movwf	(??___fldiv+1)+0
 13092  126D  00F9               	movf	(??___fldiv+1)+0,w
 13093  126E  0879               	movwf	0+(___fldiv@b)+03h
 13094  126F  00F7               	line	183
 13095                           	movf	(___fldiv@sign),w
 13096  1270  0824               	movwf	(??___fldiv+0)+0
 13097  1271  00F8               	movf	(??___fldiv+0)+0,w
 13098  1272  0878               	iorwf	0+(___fldiv@b)+03h,f
 13099  1273  04F7               	line	184
 13100                           	
 13101                           l2919:	
 13102  1274                     	movf	(___fldiv@b+3),w
 13103  1274  0877               	movwf	(?___fldiv+3)
 13104  1275  00F3               	movf	(___fldiv@b+2),w
 13105  1276  0876               	movwf	(?___fldiv+2)
 13106  1277  00F2               	movf	(___fldiv@b+1),w
 13107  1278  0875               	movwf	(?___fldiv+1)
 13108  1279  00F1               	movf	(___fldiv@b),w
 13109  127A  0874               	movwf	(?___fldiv)
 13110  127B  00F0               
 13111                           	goto	l619
 13112  127C  2A7D               	
 13113                           l2921:	
 13114  127D                     	line	185
 13115                           	
 13116                           l619:	
 13117  127D                     	return
 13118  127D  0008               	opt stack 0
 13119                           GLOBAL	__end_of___fldiv
 13120                           	__end_of___fldiv:
 13121  127E                     	signat	___fldiv,8316
 13122                           	global	_adc_init
 13123                           
 13124 ;; *************** function _adc_init *****************
 13125 ;; Defined at:
 13126 ;;		line 41 in file "newmain.c"
 13127 ;; Parameters:    Size  Location     Type
 13128 ;;		None
 13129 ;; Auto vars:     Size  Location     Type
 13130 ;;		None
 13131 ;; Return value:  Size  Location     Type
 13132 ;;                  1    wreg      void 
 13133 ;; Registers used:
 13134 ;;		None
 13135 ;; Tracked objects:
 13136 ;;		On entry : 0/0
 13137 ;;		On exit  : 0/0
 13138 ;;		Unchanged: 0/0
 13139 ;; Data sizes:     COMMON   BANK0   BANK1   BANK3   BANK2
 13140 ;;      Params:         0       0       0       0       0
 13141 ;;      Locals:         0       0       0       0       0
 13142 ;;      Temps:          0       0       0       0       0
 13143 ;;      Totals:         0       0       0       0       0
 13144 ;;Total ram usage:        0 bytes
 13145 ;; Hardware stack levels used:    1
 13146 ;; This function calls:
 13147 ;;		Nothing
 13148 ;; This function is called by:
 13149 ;;		_main
 13150 ;; This function uses a non-reentrant model
 13151 ;;
 13152                           psect	text28,local,class=CODE,delta=2,merge=1,group=0
 13153                           	file	"newmain.c"
 13154                           	line	41
 13155                           global __ptext28
 13156                           __ptext28:	;psect for function _adc_init
 13157  0800                     psect	text28
 13158                           	file	"newmain.c"
 13159                           	line	41
 13160                           	global	__size_of_adc_init
 13161                           	__size_of_adc_init	equ	__end_of_adc_init-_adc_init
 13162  0007                     	
 13163                           _adc_init:	
 13164  0800                     ;incstack = 0
 13165                           	opt	stack 7
 13166                           ; Regs used in _adc_init: []
 13167                           	line	53
 13168                           	
 13169                           l2977:	
 13170  0800                     ;newmain.c: 53:           ADON=1;
 13171                           	bcf	status, 5	;RP0=0, select bank0
 13172  0800  1283               	bcf	status, 6	;RP1=0, select bank0
 13173  0801  1303               	bsf	(248/8),(248)&7	;volatile
 13174  0802  141F               	line	61
 13175                           ;newmain.c: 61:     ADFM=1;
 13176                           	bsf	status, 5	;RP0=1, select bank1
 13177  0803  1683               	bcf	status, 6	;RP1=0, select bank1
 13178  0804  1303               	bsf	(1279/8)^080h,(1279)&7	;volatile
 13179  0805  179F               	line	62
 13180                           	
 13181                           l50:	
 13182  0806                     	return
 13183  0806  0008               	opt stack 0
 13184                           GLOBAL	__end_of_adc_init
 13185                           	__end_of_adc_init:
 13186  0807                     	signat	_adc_init,89
 13187                           global	___latbits
 13188                           ___latbits	equ	2
 13189  0002                     	global	btemp
 13190                           	btemp set 07Eh
 13191  007E                     
 13192                           	DABS	1,126,2	;btemp
 13193                           	global	wtemp0
 13194                           	wtemp0 set btemp+0
 13195  007E                     	end


Data Sizes:
    Strings     10
    Constant    144
    Data        0
    BSS         20
    Persistent  4
    Stack       0

Auto Spaces:
    Space          Size  Autos    Used
    COMMON           14     14      14
    BANK0            80     79      79
    BANK1            80     50      74
    BANK3            96      0       0
    BANK2            96      0       0

Pointer List with Targets:

    sprintf@f	PTR const unsigned char  size(1) Largest target is 10
		 -> STR_1(CODE[10]), 

    sprintf@sp	PTR unsigned char  size(1) Largest target is 20
		 -> str(BANK1[20]), 

    sprintf@ap	PTR void [1] size(1) Largest target is 2
		 -> ?_sprintf(BANK1[2]), 

    str_transmit@p	PTR unsigned char  size(1) Largest target is 20
		 -> str(BANK1[20]), 


Critical Paths under _main in COMMON

    _str_transmit->_transmit
    _sprintf->___lldiv
    _sprintf->___xxtofl
    ___awdiv->___awmod
    _fround->___lwdiv
    ___lwdiv->___lwmod
    ___flsub->___xxtofl
    _adc_read->___xxtofl
    ___flmul->___lwdiv

Critical Paths under _main in BANK0

    _sprintf->___fladd
    _scale->___flmul
    _fround->___flmul
    ___fltol->_scale
    ___flsub->___fladd
    ___fladd->_fround
    _adc_read->___flmul
    ___flmul->___fldiv

Critical Paths under _main in BANK1

    _main->_sprintf
    _sprintf->___flsub
    ___flsub->___fladd

Critical Paths under _main in BANK3

    None.

Critical Paths under _main in BANK2

    None.

Call Graph Tables:

 ---------------------------------------------------------------------------------
 (Depth) Function   	        Calls       Base Space   Used Autos Params    Refs
 ---------------------------------------------------------------------------------
 (0) _main                                                 3     3      0   36829
                                             47 BANK1      3     3      0
                           _adc_init
                           _adc_read
                          _adc_start
                            _sprintf
                       _str_transmit
                          _uart_init
 ---------------------------------------------------------------------------------
 (1) _uart_init                                            0     0      0       0
 ---------------------------------------------------------------------------------
 (1) _str_transmit                                         2     2      0     100
                                              1 COMMON     2     2      0
                           _transmit
 ---------------------------------------------------------------------------------
 (2) _transmit                                             1     1      0      22
                                              0 COMMON     1     1      0
 ---------------------------------------------------------------------------------
 (1) _sprintf                                             42    37      5   30437
                                             12 BANK1     35    30      5
                            ___awdiv
                            ___fladd
                             ___fleq
                             ___flge
                            ___flmul
                            ___flneg
                            ___flsub
                            ___fltol
                            ___lldiv
                            ___llmod
                             ___wmul
                           ___xxtofl
                         __div_to_l_
                        __tdiv_to_l_
                             _fround
                              _scale
 ---------------------------------------------------------------------------------
 (2) _scale                                               19    15      4    7560
                                             39 BANK0     19    15      4
                            ___awdiv
                            ___awmod
                            ___flmul
 ---------------------------------------------------------------------------------
 (3) ___awmod                                              7     3      4    1208
                                              0 COMMON     7     3      4
 ---------------------------------------------------------------------------------
 (3) ___awdiv                                              9     5      4    1364
                                              7 COMMON     5     1      4
                                              0 BANK0      4     4      0
                            ___awmod (ARG)
 ---------------------------------------------------------------------------------
 (2) _fround                                              20    16      4    6023
                                             39 BANK0     20    16      4
                            ___flmul
                            ___lwdiv
                            ___lwmod
 ---------------------------------------------------------------------------------
 (3) ___lwmod                                              6     2      4     615
                                              0 COMMON     6     2      4
 ---------------------------------------------------------------------------------
 (3) ___lwdiv                                              8     4      4     618
                                              6 COMMON     8     4      4
                            ___lwmod (ARG)
 ---------------------------------------------------------------------------------
 (2) __tdiv_to_l_                                         18    10      8     455
                                              0 COMMON    12     4      8
                                              0 BANK0      6     6      0
 ---------------------------------------------------------------------------------
 (2) __div_to_l_                                          19    11      8     455
                                              0 COMMON    13     5      8
                                              0 BANK0      6     6      0
 ---------------------------------------------------------------------------------
 (2) ___wmul                                               6     2      4     244
                                              0 COMMON     6     2      4
 ---------------------------------------------------------------------------------
 (2) ___llmod                                             10     2      8     615
                                              0 COMMON    10     2      8
 ---------------------------------------------------------------------------------
 (2) ___lldiv                                             14     6      8     466
                                              0 COMMON    14     6      8
 ---------------------------------------------------------------------------------
 (2) ___fltol                                             11     7      4     457
                                             58 BANK0     11     7      4
                            ___flmul (ARG)
                              _scale (ARG)
 ---------------------------------------------------------------------------------
 (2) ___flsub                                              8     0      8    2485
                                              4 BANK1      8     0      8
                            ___fladd
                           ___xxtofl (ARG)
 ---------------------------------------------------------------------------------
 (3) ___fladd                                             24    16      8    2288
                                             59 BANK0     20    12      8
                                              0 BANK1      4     4      0
                             _fround (ARG)
 ---------------------------------------------------------------------------------
 (2) ___flneg                                              4     0      4     121
                                              0 COMMON     4     0      4
 ---------------------------------------------------------------------------------
 (2) ___flge                                              16     8      8     790
                                              0 COMMON     8     0      8
                                              0 BANK0      8     8      0
 ---------------------------------------------------------------------------------
 (2) ___fleq                                              12     4      8     394
                                              0 COMMON    12     4      8
 ---------------------------------------------------------------------------------
 (1) _adc_start                                            0     0      0       0
 ---------------------------------------------------------------------------------
 (1) _adc_read                                             4     0      4    6292
                                             39 BANK0      4     0      4
                            ___fldiv
                            ___flmul
                           ___xxtofl
 ---------------------------------------------------------------------------------
 (2) ___xxtofl                                            14    10      4     474
                                              0 COMMON    14    10      4
 ---------------------------------------------------------------------------------
 (3) ___flmul                                             26    18      8    4545
                                             13 BANK0     26    18      8
                          __Umul8_16
                            ___awdiv (ARG)
                            ___awmod (ARG)
                            ___fldiv (ARG)
                            ___lwdiv (ARG)
                            ___lwmod (ARG)
 ---------------------------------------------------------------------------------
 (4) __Umul8_16                                            9     7      2     799
                                              0 COMMON     9     7      2
 ---------------------------------------------------------------------------------
 (2) ___fldiv                                             26    18      8    1273
                                              0 COMMON    13     5      8
                                              0 BANK0     13    13      0
 ---------------------------------------------------------------------------------
 (1) _adc_init                                             0     0      0       0
 ---------------------------------------------------------------------------------
 Estimated maximum stack depth 4
 ---------------------------------------------------------------------------------

 Call Graph Graphs:

 _main (ROOT)
   _adc_init
   _adc_read
     ___fldiv
     ___flmul
       __Umul8_16
       ___awdiv (ARG)
         ___awmod (ARG)
       ___awmod (ARG)
       ___fldiv (ARG)
       ___lwdiv (ARG)
         ___lwmod (ARG)
       ___lwmod (ARG)
     ___xxtofl
   _adc_start
   _sprintf
     ___awdiv
       ___awmod (ARG)
     ___fladd
       _fround (ARG)
         ___flmul
           __Umul8_16
           ___awdiv (ARG)
             ___awmod (ARG)
           ___awmod (ARG)
           ___fldiv (ARG)
           ___lwdiv (ARG)
             ___lwmod (ARG)
           ___lwmod (ARG)
         ___lwdiv
           ___lwmod (ARG)
         ___lwmod
     ___fleq
     ___flge
     ___flmul
       __Umul8_16
       ___awdiv (ARG)
         ___awmod (ARG)
       ___awmod (ARG)
       ___fldiv (ARG)
       ___lwdiv (ARG)
         ___lwmod (ARG)
       ___lwmod (ARG)
     ___flneg
     ___flsub
       ___fladd
         _fround (ARG)
           ___flmul
             __Umul8_16
             ___awdiv (ARG)
               ___awmod (ARG)
             ___awmod (ARG)
             ___fldiv (ARG)
             ___lwdiv (ARG)
               ___lwmod (ARG)
             ___lwmod (ARG)
           ___lwdiv
             ___lwmod (ARG)
           ___lwmod
       ___xxtofl (ARG)
     ___fltol
       ___flmul (ARG)
         __Umul8_16
         ___awdiv (ARG)
           ___awmod (ARG)
         ___awmod (ARG)
         ___fldiv (ARG)
         ___lwdiv (ARG)
           ___lwmod (ARG)
         ___lwmod (ARG)
       _scale (ARG)
         ___awdiv
           ___awmod (ARG)
         ___awmod
         ___flmul
           __Umul8_16
           ___awdiv (ARG)
             ___awmod (ARG)
           ___awmod (ARG)
           ___fldiv (ARG)
           ___lwdiv (ARG)
             ___lwmod (ARG)
           ___lwmod (ARG)
     ___lldiv
     ___llmod
     ___wmul
     ___xxtofl
     __div_to_l_
     __tdiv_to_l_
     _fround
       ___flmul
         __Umul8_16
         ___awdiv (ARG)
           ___awmod (ARG)
         ___awmod (ARG)
         ___fldiv (ARG)
         ___lwdiv (ARG)
           ___lwmod (ARG)
         ___lwmod (ARG)
       ___lwdiv
         ___lwmod (ARG)
       ___lwmod
     _scale
       ___awdiv
         ___awmod (ARG)
       ___awmod
       ___flmul
         __Umul8_16
         ___awdiv (ARG)
           ___awmod (ARG)
         ___awmod (ARG)
         ___fldiv (ARG)
         ___lwdiv (ARG)
           ___lwmod (ARG)
         ___lwmod (ARG)
   _str_transmit
     _transmit
   _uart_init

 Address spaces:
Name               Size   Autos  Total    Cost      Usage
BITCOMMON            E      0       0       0        0.0%
EEDATA             100      0       0       0        0.0%
NULL                 0      0       0       0        0.0%
CODE                 0      0       0       0        0.0%
COMMON               E      E       E       1      100.0%
BITSFR0              0      0       0       1        0.0%
SFR0                 0      0       0       1        0.0%
BITSFR1              0      0       0       2        0.0%
SFR1                 0      0       0       2        0.0%
STACK                0      0       0       2        0.0%
ABS                  0      0      A7       3        0.0%
BITBANK0            50      0       0       4        0.0%
BITSFR3              0      0       0       4        0.0%
SFR3                 0      0       0       4        0.0%
BANK0               50     4F      4F       5       98.8%
BITSFR2              0      0       0       5        0.0%
SFR2                 0      0       0       5        0.0%
BITBANK1            50      0       0       6        0.0%
BANK1               50     32      4A       7       92.5%
BITBANK3            60      0       0       8        0.0%
BANK3               60      0       0       9        0.0%
BITBANK2            60      0       0      10        0.0%
BANK2               60      0       0      11        0.0%
DATA                 0      0      A7      12        0.0%


Microchip Technology PIC Macro Assembler V2.00 build -1524193055 
Symbol Table                                                                                   Thu Oct 31 14:10:43 2019

           ___fldiv@aexp 002C             ___fldiv@bexp 002B                        pc 0002  
           ___fldiv@sign 0024                       l40 1B5F                       l41 1B5F  
                     l50 0806                       l35 1B51                       l44 0017  
                     l53 0006                       l45 0009                       l38 1B58  
                     l46 0020                       l39 1B58                       l47 0020  
                     l56 1E1D                       l64 1CF8                       l57 1E1D  
                     l65 1D42                       l58 1E24                       l66 1D43  
                     l59 1EA1                       l67 1D43             ___awdiv@sign 0021  
                     fsr 0004      ___wmul@multiplicand 0072      __Umul8_16@word_mpld 0076  
                    l201 045A                      l210 05A2                      l202 047E  
                    l211 0597                      l203 0487                      l220 0668  
                    l212 05BA                      l221 0682                      l213 0621  
                    l205 04C5                      l230 07F2                      l222 079D  
                    l214 05BB                      l223 06FB                      l215 0629  
                    l207 04E5                      l400 1DA8                      l224 07A5  
                    l216 063E                      l208 0555                      l233 1B63  
                    l225 07B8                      l217 062A                      l209 055F  
                    l234 1B6D                      l410 01B3                      l226 07A6  
                    l218 064C                      l235 1B82                      l411 01B4  
                    l403 0121                      l227 07BF                      l219 0662  
                    l420 1C5A                      l236 1B87                      l412 01C6  
                    l404 01F3                      l172 164D                      l228 07D8  
                    l421 1C76                      l413 01EA                      l405 013E  
                    l173 158D                      l229 07EC                      l422 1C8D  
                    l270 106E                      l414 01D7                      l406 0164  
                    l166 1398                      l174 17FF                      l182 07D9  
                    l190 0214                      l263 1065                      l415 01E3  
                    l407 018F                      l167 1490                      l175 161F  
                    l191 07C0                      l183 01FC                      l432 1B43  
                    l600 0C55                      l440 1EF7                      l264 1023  
                    l416 01D8                      l408 019E                      l168 144C  
                    l176 161E                      l192 0289                      l184 020E  
                    l425 0876                      l433 1B44                      l601 0C68  
                    l441 1F09                      l265 1015                      l417 01E9  
                    l409 01C7                      l169 144B                      l177 1740  
                    l193 03A2                      l185 0216                      l610 1082  
                    l426 0893                      l602 0C71                      l442 1F2D  
                    l266 1028                      l450 003E                      l178 17D2  
                    l194 02F0                      l186 0211                      l611 1098  
                    l427 08C9                      l603 0C76                      l443 1F1A  
                    l267 1029                      l451 0101                      l179 17D1  
                    l187 07ED                      l195 037C                      l620 1109  
                    l612 1095                      l700 1BAC                      l428 08FF  
                    l604 0C8A                      l444 1F26                      l436 1EC1  
                    l268 1054                      l460 00F8                      l452 0059  
                    l540 1C3D                      l380 1DDD                      l196 03A1  
                    l188 0212                      l621 118E                      l613 10A1  
                    l701 1BB1                      l429 091A                      l445 1F1B  
                    l437 1F3D                      l269 1064                      l461 00E5  
                    l453 007B                      l533 1C38                      l381 1DD1  
                    l197 03A0                      l189 0230                      l630 11AF  
                    l622 113A                      l614 10B2                      l446 1F2C  
                    l438 1F0A                      l462 00F1                      l454 009E  
                    l534 1C0A                      l550 1BF2                      l382 1DE2  
                    l390 1D53                      l198 03F9                      l631 11C4  
                    l623 1161                      l615 10C8                      l607 0857  
                    l447 1F3D                      l439 1EF6                      l463 00E6  
                    l455 00AC                      l535 1BFE                      l543 1BED  
                    l383 1DE3                      l391 1D5D                      l199 04EE  
                    l640 1265                      l632 11E9                      l624 1157  
                    l616 10C5                      l560 0997                      l464 00F7  
                    l456 00D5                      l536 1C0F                      l544 1BC7  
                    l384 1DFC                      l392 1D98                      l641 1269  
                    l633 11E0                      l625 1189                      l617 10D0  
                    l561 09A4                      l553 0938                      l457 00C1  
                    l537 1C10                      l545 1BBB                      l385 1E0A  
                    l377 1DB8                      l393 1D72                      l634 11E8  
                    l626 1195                      l618 10F2                      l650 0CCD  
                    l570 0A8E                      l562 0A24                      l554 0953  
                    l490 1CE8                      l458 00C2                      l538 1C29  
                    l546 1BCC                      l386 1E16                      l378 1DC6  
                    l394 1D66                      l635 11E7                      l627 119F  
                    l619 127D                      l651 0CE2                      l571 0AA8  
                    l563 09B9                      l555 094F                      l483 1CDF  
                    l459 00D4                      l539 1C37                      l547 1BCD  
                    l387 1E1B                      l379 1E0B                      l395 1D77  
                    l636 1221                      l628 11BF                      l660 0F31  
                    l652 0CE0                      l580 0B8D                      l572 0B0B  
                    l564 0A6F                      l556 095D                      l484 1CA7  
                    l548 1BDE                      l396 1D78                      l637 1220  
                    l629 11A0                      l661 0F46                      l653 0CEB  
                    l581 0B8C                      l573 0ABD                      l565 0AA8  
                    l557 096C                      l485 1C99                      l549 1BEC  
                    l397 1D89                      l638 123D                      l670 0FD6  
                    l662 0F6B                      l654 0D00                      l646 0C9E  
                    l590 0BE5                      l582 0B9B                      l574 0C8A  
                    l566 0A9F                      l558 0980                      l486 1CAC  
                    l398 1D97                      l639 1259                      l671 0FF2  
                    l663 0F62                      l647 0CB3                      l591 0C03  
                    l583 0BB7                      l575 0B0A                      l567 0A70  
                    l559 099B                      l487 1CAD                      l399 1DA3  
                    l672 0FEA                      l664 0F6A                      l656 0CF6  
                    l648 0CB1                      l680 1F77                      l592 0BF6  
                    l584 0BDF                      l576 0AEC                      l568 0A81  
                    l488 1CCE                      l665 0F69                      l657 0FFF  
                    l649 0CBC                      l681 1F8C                      l593 0C02  
                    l585 0BB8                      l577 0AEF                      l569 0A84  
                    l489 1CDE                      l666 0FA3                      l658 0F41  
                    l690 1FD3                      l682 1FA8                      l594 0C01  
                    l586 0BCA                      l578 0AF9                      l667 0FA2  
                    l659 0F22                      l691 1FF6                      l683 1F8D  
                    l675 1F58                      l595 0C48                      l579 0BE6  
                    l587 0BD3                      l668 0FBB                      l684 1FAF  
                    l676 1F60                      l596 0C48                      l588 0BD6  
                    l669 0FF2                      l685 1FBC                      l677 1F72  
                    l597 0C47                      l589 0BDE                      l686 1FB0  
                    l678 1FFF                      l598 0C69                      l679 1F85  
                    l688 1FC7                      l689 1FC7                      l698 1B93  
                    l699 1B9D                      fsr0 0004                      _str 00D2  
                    indf 0000             ___awmod@sign 0076             ___flmul@aexp 003F  
           ___flmul@bexp 0040              _sprintf$743 00B6             ___flmul@sign 003A  
           ___flmul@temp 0045             ___flmul@prod 0041             ___fltol@exp1 0064  
                   l2001 1BA6                     l2003 1BAC                     l2011 1DB0  
                   l2005 1BB1                     l2101 1C10                     l2021 1DC6  
                   l2013 1DB5                     l2103 1C21                     l2111 1C38  
                   l2031 1DDD                     l2023 1DC8                     l2015 1DB8  
                   l2007 1DA9                     l2201 09F3                     l2113 1C3D  
                   l2105 1C27                     l2121 1BC2                     l2041 1E03  
                   l2033 1DE3                     l2025 1DCE                     l2017 1DBC  
                   l2009 1DAC                     l3001 0215                     l2211 0A15  
                   l2203 09FB                     l2107 1C29                     l2131 1BE5  
                   l2123 1BC7                     l2115 1BB2                     l2035 1DF4  
                   l2027 1DD1                     l2043 1E0B                     l2019 1DC1  
                   l2051 1D46                     l3011 024E                     l3003 0216  
                   l2301 0BFC                     l2221 0A74                     l2213 0A1B  
                   l2205 0A01                     l2141 092E                     l2109 1C30  
                   l2125 1BCD                     l2117 1BB8                     l2133 1BED  
                   l2045 1E10                     l2037 1DFA                     l2029 1DD8  
                   l2061 1D57                     l2053 1D47                     l3101 0615  
                   l3021 028D                     l3013 0252                     l3005 0230  
                   l2311 0C3E                     l2303 0C03                     l2231 0A98  
                   l2223 0A81                     l2207 0A07                     l2215 0A24  
                   l2151 094F                     l2143 0934                     l2135 1BF2  
                   l2127 1BD7                     l2119 1BBB                     l2047 1E16  
                   l2039 1DFC                     l2071 1D72                     l2063 1D5D  
                   l2055 1D4B                     l3111 064C                     l3103 062A  
                   l3031 02E5                     l3023 02A6                     l3015 026B  
                   l3007 023C                     l2401 0E36                     l2321 0C69  
                   l2313 0C4F                     l2305 0C0A                     l2241 0ABD  
                   l2225 0A84                     l2233 0A9F                     l2217 0A27  
                   l2209 0A0F                     l2161 096A                     l2153 0951  
                   l2145 0938                     l2137 091B                     l2129 1BDE  
                   l2049 1E1B                     l2073 1D78                     l2065 1D63  
                   l2081 1D98                     l2057 1D50                     l3121 067D  
                   l3113 065B                     l3105 0633                     l3041 0373  
                   l3033 02E9                     l3025 02B9                     l3017 0284  
                   l3009 0240                     l2411 0EE3                     l2403 0E53  
                   l2331 0C8B                     l2323 0C6D                     l2315 0C55  
                   l2307 0C1A                     l2251 0AEF                     l2243 0AD5  
                   l2235 0AAC                     l2227 0A8A                     l2219 0A49  
                   l2171 0987                     l2163 096C                     l2147 093F  
                   l2155 0953                     l2139 0924                     l2091 1BF5  
                   l2083 1D9D                     l2075 1D82                     l2067 1D66  
                   l2059 1D53                     l3131 0755                     l3123 0682  
                   l3115 0662                     l3107 0637                     l3051 03F9  
                   l3043 037C                     l3035 02F0                     l3027 02BF  
                   l3019 0289                     l2421 0F2F                     l2413 0F0B  
                   l2405 0E80                     l2341 0CA3                     l2333 0C92  
                   l2325 0C71                     l2317 0C5F                     l2309 0C1E  
                   l2261 0B23                     l2253 0AF5                     l2245 0AD9  
                   l2237 0AB1                     l2229 0A8E                     l2181 09AC  
                   l2173 098C                     l2165 0976                     l2157 095D  
                   l2149 0944                     l2093 1BFB                     l2085 1DA3  
                   l2077 1D89                     l2069 1D6D                     l2501 158C  
                   l3141 07B1                     l3133 0761                     l3125 06A0  
                   l3117 0671                     l3109 063E                     l3061 0475  
                   l3053 0408                     l3045 0397                     l3037 030F  
                   l3029 02D2                     l2431 0F47                     l2423 0F31  
                   l2415 0F14                     l2407 0E90                     l2351 0CC1  
                   l2343 0CA8                     l2335 0C98                     l2327 0C81  
                   l2319 0C66                     l2271 0BA4                     l2263 0B74  
                   l2255 0AF9                     l2247 0ADF                     l2239 0ABC  
                   l2191 09D1                     l2183 09B0                     l2175 0997  
                   l2167 097C                     l2159 0964                     l2095 1BFE  
                   l2087 1DA8                     l2079 1D90                     l2511 164C  
                   l2503 158D                     l3143 07B8                     l3127 06FB  
                   l3135 079D                     l3119 0676                     l3071 04E5  
                   l3063 047E                     l3055 0423                     l3039 035A  
                   l3047 03A2                     l3151 07D9                     l2441 0F70  
                   l2433 0F4B                     l2425 0F3A                     l2417 0F22  
                   l2409 0EBD                     l2361 0CD7                     l2353 0CC7  
                   l2345 0CB1                     l2337 0C9C                     l2329 0C87  
                   l2281 0BC7                     l2273 0BAB                     l2265 0B76  
                   l2257 0B03                     l2249 0AEC                     l2193 09D9  
                   l2185 09B9                     l2177 0999                     l2169 0980  
                   l2601 015A                     l2097 1C05                     l2089 1BF3  
                   l2521 1740                     l2505 1594                     l2513 164D  
                   l3137 07A6                     l3129 0736                     l3081 0557  
                   l3065 0487                     l3057 044A                     l3073 04EE  
                   l3049 03B1                     l3145 07C0                     l3153 07ED  
                   l3161 1CE9                     l2451 0FB0                     l2443 0F7E  
                   l2435 0F5F                     l2419 0F2B                     l2427 0F41  
                   l2371 0CF6                     l2363 0CE0                     l2355 0CCB  
                   l2347 0CB3                     l2339 0C9E                     l2283 0BD0  
                   l2275 0BB6                     l2291 0BDF                     l2267 0B7B  
                   l2259 0B0B                     l2195 09DF                     l2187 09C1  
                   l2179 099B                     l2611 018F                     l2603 0164  
                   l2531 0021                     l2099 1C0A                     l2523 1747  
                   l2515 1654                     l2507 161D                     l3155 07F2  
                   l3147 07CC                     l3139 07AD                     l3083 055E  
                   l3091 05A2                     l3075 0523                     l3067 04A5  
                   l3059 045A                     l3171 1D1A                     l3163 1CED  
                   l2461 0FE4                     l2453 0FBB                     l2445 0F82  
                   l2437 0F66                     l2429 0F46                     l2381 0D3A  
                   l2373 0CFF                     l2365 0CE2                     l2357 0CCD  
                   l2349 0CBC                     l2701 0901                     l2285 0BD3  
                   l2277 0BB8                     l2269 0B8D                     l2293 0BE6  
                   l2197 09E7                     l2189 09C9                     l2621 01B4  
                   l2613 0198                     l2605 016D                     l2541 0058  
                   l2533 0034                     l2525 17D0                     l2517 173E  
                   l2509 161F                     l3149 07D3                     l3093 05AE  
                   l3085 055F                     l3077 0552                     l3069 04C5  
                   l3173 1D32                     l3165 1CF2                     l2463 0FE8  
                   l2455 0FCA                     l2447 0F9B                     l2439 0F6B  
                   l2391 0DC3                     l2383 0D56                     l2375 0D00  
                   l2367 0CEB                     l2359 0CD2                     l2703 0903  
                   l2711 1B38                     l2295 0BE9                     l2287 0BD6  
                   l2279 0BC1                     l2199 09ED                     l2631 01EA  
                   l2615 01A2                     l2623 01C7                     l2607 017F  
                   l2551 007B                     l2543 005A                     l2535 003D  
                   l2527 17D2                     l2519 173F                     l3095 05B5  
                   l3087 0596                     l3079 0555                     l2471 1B53  
                   l3167 1CF8                     l2801 10A1                     l2465 0FEA  
                   l2457 0FD4                     l2449 0FA3                     l2393 0DD3  
                   l2385 0D82                     l2377 0D10                     l2369 0CF0  
                   l2705 0915                     l2713 1B40                     l2297 0BED  
                   l2289 0BDB                     l2721 1EB7                     l2641 1B74  
                   l2633 01F3                     l2625 01CD                     l2617 01A9  
                   l2609 018D                     l2561 00A6                     l2553 0084  
                   l2545 0060                     l2537 003E                     l2481 1398  
                   l2473 1281                     l2529 17FF                     l3097 05BB  
                   l3089 0597                     l3169 1CFD                     l2811 10B7  
                   l2803 10A6                     l2467 0FF6                     l2459 0FD6  
                   l2395 0DF0                     l2387 0D9E                     l2379 0D1D  
                   l2707 0917                     l2715 1B43                     l2299 0BF3  
                   l2731 1EDF                     l2723 1EC0                     l2651 1012  
                   l2643 1B7B                     l2635 1B60                     l2627 01D6  
                   l2619 01B2                     l2563 00B0                     l2571 00D5  
                   l2555 0092                     l2547 006F                     l2539 004F  
                   l2483 139E                     l2475 1287                     l2491 1494  
                   l3099 05F6                     l3195 0228                     l2901 1221  
                   l2821 10D8                     l2813 10BC                     l2805 10AC  
                   l2469 0FFF                     l2397 0E00                     l2389 0DBA  
                   l2709 091A                     l2717 1B44                     l2741 1EF7  
                   l2733 1EE1                     l2725 1EC1                     l2661 1044  
                   l2653 1015                     l2645 1B82                     l2637 1B63  
                   l2629 01D8                     l2581 0101                     l2573 00DB  
                   l2565 00B7                     l2557 009C                     l2549 0071  
                   l2485 144A                     l2477 1396                     l2493 1498  
                   l2911 1258                     l2903 122E                     l2831 10F7  
                   l2823 10E4                     l2815 10C5                     l2807 10B0  
                   l2399 0E1D                     l2751 1F2D                     l2735 1EE5  
                   l2743 1F0A                     l2727 1ED6                     l2719 1EA2  
                   l2671 106E                     l2663 1052                     l2655 1023  
                   l2647 1B87                     l2639 1B67                     l2591 0134  
                   l2583 0102                     l2575 00E4                     l2567 00C0  
                   l2559 009E                     l2487 144C                     l2479 1397  
                   l2495 149A                     l2921 127D                     l2913 125F  
                   l2905 123D                     l2841 1130                     l2833 1108  
                   l2825 10E8                     l2817 10C6                     l2809 10B2  
                   l2681 1C8A                     l2673 1C3E                     l2753 1F32  
                   l2745 1F10                     l2737 1EEC                     l2729 1ED7  
                   l2665 1054                     l2657 1029                     l2649 1002  
                   l2761 1CA7                     l2593 013D                     l2585 0117  
                   l2577 00E6                     l2569 00C2                     l2489 1490  
                   l2497 14A1                     l2915 1263                     l2907 124C  
                   l2851 1155                     l2843 1138                     l2835 1109  
                   l2827 10F1                     l2819 10C8                     l2931 1F68  
                   l2923 1F3F                     l2683 1C8D                     l2675 1C52  
                   l2691 0893                     l2747 1F19                     l2739 1EF5  
                   l2667 105D                     l2659 1032                     l2763 1CAD  
                   l2771 1CDF                     l2755 1C8E                     l2595 013F  
                   l2587 0120                     l2579 00F8                     l2499 158B  
                   l2917 1265                     l2909 1250                     l2861 1189  
                   l2853 1157                     l2845 113A                     l2837 1120  
                   l2829 10F2                     l2781 106F                     l2941 1F8D  
                   l2933 1F71                     l2925 1F44                     l2677 1C6E  
                   l2693 0897                     l2685 0858                     l2749 1F1B  
                   l2669 1065                     l2773 1CE8                     l2765 1CBF  
                   l2757 1C96                     l2597 0147                     l2589 0121  
                   l2919 1274                     l2871 11A9                     l2847 113F  
                   l2855 1161                     l2863 118E                     l2839 1128  
                   l2791 1087                     l2783 1076                     l2951 1FC0  
                   l2943 1F91                     l2935 1F72                     l2927 1F48  
                   l2679 1C88                     l1991 0919                     l2695 08C9  
                   l2687 086E                     l2775 0807                     l2767 1CCE  
                   l2759 1C99                     l2599 0158                     l2881 11C4  
                   l2873 11AD                     l2865 1195                     l2857 1173  
                   l2849 1151                     l2793 108C                     l2785 107C  
                   l1993 1B89                     l2961 1FF4                     l2953 1FCB  
                   l2945 1F9F                     l2937 1F77                     l2929 1F58  
                   l1985 1C8A                     l2697 08CD                     l2689 088A  
                   l2777 080B                     l2769 1CD7                     l2891 11E9  
                   l2883 11C5                     l2875 11AF                     l2867 119D  
                   l2859 1174                     l2795 1095                     l2787 1080  
                   l1995 1B8B                     l2963 1FF6                     l2955 1FD5  
                   l2947 1FB0                     l2939 1F85                     l1987 1C8C  
                   l2699 08FF                     l2779 0857                     l2971 0009  
                   l2893 11EE                     l2885 11C9                     l2877 11B8  
                   l2869 11A0                     l2797 1096                     l2789 1082  
                   l1997 1B93                     l2965 1FFF                     l2957 1FEB  
                   l2949 1FBC                     l2981 1E1C                     l1989 0917  
                   l2973 0012                     l2895 11FC                     l2887 11DD  
                   l2879 11BF                     l2799 1098                     l1999 1B97  
                   l2959 1FF0                     l2983 1E24                     l2991 01F7  
                   l2975 0017                     l2967 1B45                     l2977 0800  
                   l2897 1200                     l2889 11E4                     l2985 1E42  
                   l2993 01FC                     l2969 0008                     l2899 1219  
                   l2987 1E8A                     l2979 0003                     l2995 0202  
                   l2989 1EA1                     l2997 0209                     l2999 020E  
                   _ADFM 04FF                     _ADON 00F8                     STR_1 1896  
                   u3010 1D76                     u3011 1D75                     u3100 1C21  
                   u3020 1D82                     u3101 1C20                     u3021 1D81  
                   u3005 1D67                     u4000 0FCA                     u3200 093F  
                   u3120 1C36                     u3040 1D96                     u4001 0FC9  
                   u3201 093E                     u3121 1C35                     u3105 1C1D  
                   u3041 1D95                     u3025 1D7E                     u4010 0FE8  
                   u3210 0944                     u3130 1BB8                     u3050 1D9D  
                   u4011 0FE7                     u3211 0943                     u3115 1C2A  
                   u3131 1BB7                     u3051 1D9C                     u3035 1D8A  
                   u3300 0A55                     u3220 096A                     u3060 1BFB  
                   u4020 1B5E                     u4005 0FC6                     u3221 0969  
                   u3061 1BFA                     u4021 1B5D                     u3310 0A74  
                   u3230 097C                     u3150 1BCB                     u4030 1287  
                   u4110 1498                     u3311 0A73                     u3231 097B  
                   u3151 1BCA                     u4031 1286                     u4111 1497  
                   u5000 113F                     u3400 0AF5                     u3320 0A8A  
                   u3240 0987                     u3080 1C0E                     u3160 1BD7  
                   u4200 1654                     u4120 14A1                     u5001 113E  
                   u3401 0AF4                     u3321 0A89                     u3241 0986  
                   u3081 1C0D                     u3161 1BD6                     u3145 1BBC  
                   u4105 1457                     u4201 1653                     u4121 14A0  
                   u3250 098C                     u3251 098B                     u3075 1BFF  
                   u5100 11AD                     u3500 0BD0                     u3420 0B23  
                   u3340 0AA7                     u3260 09AC                     u3180 1BEB  
                   u5101 11AC                     u3501 0BCF                     u3421 0B22  
                   u3341 0AA6                     u3261 09AB                     u3181 1BEA  
                   u3165 1BD3                     u4045 12A4                     u5030 1155  
                   u3510 0BDB                     u3430 0B49                     u3350 0AAC  
                   u3270 09B0                     u3190 0934                     u4310 0092  
                   u4070 139E                     u5031 1154                     u5015 1141  
                   u3511 0BDA                     u3431 0B4A                     u3423 0B1F  
                   u3415 0AFC                     u3351 0AAB                     u3335 0A91  
                   u3271 09AF                     u3191 0933                     u4311 0091  
                   u3095 1C11                     u3175 1BDF                     u4071 139D  
                   u4055 12FF                     u4215 1674                     u4135 14C1  
                   u5200 124C                     u5120 11C3                     u3600 0C4F  
                   u3520 0BE4                     u3440 0B5B                     u3432 0B4F  
                   u3360 0AB1                     u3280 0A49                     u4400 00F6  
                   u4240 1747                     u4160 1594                     u5201 124B  
                   u5121 11C2                     u5025 114A                     u3601 0C4E  
                   u3521 0BE3                     u3441 0B5C                     u3433 0B50  
                   u3361 0AB0                     u3281 0A48                     u4401 00F5  
                   u4305 007D                     u4065 1355                     u4241 1746  
                   u4225 16B1                     u4161 1593                     u4145 14FE  
                   u5210 1263                     u5130 11C9                     u5050 1173  
                   u3610 0C54                     u3530 0BED                     u3450 0B7B  
                   u3442 0B61                     u3290 0A54                     u4410 0117  
                   u4330 00AC                     u5211 1262                     u5131 11C8  
                   u5115 11B1                     u5051 1172                     u3611 0C53  
                   u3531 0BEC                     u3451 0B7A                     u3443 0B62  
                   u3371 0AC7                     u3291 0A52                     u4411 0116  
                   u4331 00AB                     u4315 008E                     u4235 16FD  
                   u4155 154A                     u5140 11DD                     u5060 1188  
                   u3700 0CD7                     u5300 1FC0                     u5220 1F44  
                   u3620 0C66                     u3540 0BF3                     u3460 0BA4  
                   u3380 0AD9                     u3372 0ACE                     u4500 01C5  
                   u4420 0134                     u4340 00B0                     u5205 1248  
                   u5141 11DC                     u5045 1159                     u3701 0CD6  
                   u5301 1FBF                     u5221 1F43                     u3621 0C65  
                   u3541 0BF2                     u3461 0BA3                     u3381 0AD8  
                   u3373 0AD5                     u3285 0A45                     u4501 01C4  
                   u4421 0133                     u4341 00AF                     u4325 009F  
                   u4085 13BB                     u5150 11E4                     u5070 1194  
                   u3710 0CF0                     u5310 1FC6                     u5230 1F48  
                   u3630 0C6D                     u3550 0BFC                     u3470 0BAB  
                   u3390 0ADF                     u4510 01CD                     u4350 00B7  
                   u2910 1DE1                     u5151 11E3                     u5071 1193  
                   u5055 116F                     u3711 0CEF                     u5311 1FC5  
                   u5231 1F47                     u3631 0C6C                     u3551 0BFB  
                   u3471 0BAA                     u3391 0ADE                     u4511 01CC  
                   u4351 00B6                     u4095 1409                     u2911 1DE0  
                   u4255 175A                     u4175 15A7                     u5160 11EE  
                   u5080 119D                     u2840 1B97                     u3720 0CF5  
                   u5320 1FCB                     u5240 1F68                     u3640 0C87  
                   u3560 0C0A                     u4600 1027                     u4440 017F  
                   u4280 0034                     u5400 026B                     u5161 11ED  
                   u5081 119C                     u5065 117B                     u2841 1B96  
                   u3721 0CF4                     u5321 1FCA                     u5241 1F67  
                   u3641 0C86                     u3561 0C09                     u4601 1026  
                   u4441 017E                     u4281 0033                     u2905 1DD2  
                   u4265 1796                     u4185 15E3                     u5401 026A  
                   u5170 1200                     u5066 117C                     u3650 0C9C  
                   u5330 1FE0                     u3570 0C1E                     u3490 0BC7  
                   u4530 01E8                     u4370 00D3                     u4290 004F  
                   u2930 1DF4                     u5410 02A6                     u5171 11FF  
                   u5067 1181                     u3811 0E45                     u3731 0D48  
                   u3651 0C9B                     u3571 0C1D                     u3491 0BC6  
                   u4531 01E7                     u4435 0166                     u4371 00D2  
                   u4291 004E                     u2931 1DF3                     u4275 17D5  
                   u4195 1622                     u5411 02A5                     u5180 120F  
                   u5068 1182                     u2860 1BAB                     u3900 0F2F  
                   u3812 0E4C                     u3732 0D4F                     u3660 0CA3  
                   u5340 1FF0                     u5260 1F8B                     u4700 0897  
                   u3580 0C2D                     u4620 1044                     u4540 1B67  
                   u4460 019E                     u4380 00DB                     u5500 0475  
                   u5420 02E9                     u5069 1187                     u2861 1BAA  
                   u3901 0F2E                     u3821 0E72                     u3813 0E53  
                   u3805 0E1F                     u3741 0D64                     u3733 0D56  
                   u3661 0CA2                     u5341 1FEF                     u5261 1F8A  
                   u4701 0896                     u3485 0BBA                     u4621 1043  
                   u4541 1B66                     u4525 01DA                     u4461 019D  
                   u4445 017B                     u4381 00DA                     u4365 00C3  
                   u2925 1DE4                     u5501 0474                     u5421 02E8  
                   u5190 122E                     u3822 0E79                     u3742 0D6B  
                   u3670 0CA8                     u5350 1FF4                     u4710 08B5  
                   u3590 0C3E                     u4470 01A2                     u2950 1E09  
                   u2870 1DB0                     u5510 055D                     u5430 0373  
                   u5191 122D                     u5095 11A2                     u2855 1B9E  
                   u3831 0E9F                     u3823 0E80                     u3751 0D90  
                   u3743 0D72                     u3671 0CA7                     u5351 1FF3  
                   u5335 1FDB                     u5255 1F7C                     u4711 08B6  
                   u3591 0C3D                     u4615 102B                     u4471 01A1  
                   u4455 0191                     u2951 1E08                     u2935 1DF0  
                   u2871 1DAF                     u5511 055C                     u5431 0372  
                   u3920 0F45                     u3840 0EC9                     u3832 0EA6  
                   u3752 0D97                     u3680 0CCB                     u5280 1FAE  
                   u4720 08CD                     u4712 08BB                     u4640 1063  
                   u4480 01A9                     u2960 1E10                     u2880 1DBC  
                   u5600 0676                     u5440 0397                     u5360 001F  
                   u5185 120A                     u3921 0F44                     u3833 0EAD  
                   u3761 0DAC                     u3753 0D9E                     u3681 0CCA  
                   u5281 1FAD                     u4721 08CC                     u4713 08BC  
                   u3585 0C28                     u4641 1062                     u4625 1040  
                   u4481 01A8                     u2961 1E0F                     u2945 1DFD  
                   u2881 1DBB                     u5601 0675                     u5441 0396  
                   u5361 001E                     u3930 0F4B                     u3762 0DB3  
                   u3690 0CD2                     u5370 1E23                     u4650 1C52  
                   u4730 08EB                     u4810 1F08                     u4570 1B81  
                   u2890 1DCE                     u2970 1D4B                     u5530 0595  
                   u5450 03B1                     u5195 122A                     u3931 0F4A  
                   u3915 0F33                     u3851 0ED5                     u3763 0DBA  
                   u3691 0CD1                     u5275 1FA0                     u5371 1E22  
                   u4651 1C51                     u4731 08EC                     u4811 1F07  
                   u4635 1055                     u4571 1B80                     u4555 1B6E  
                   u4395 00E8                     u2891 1DCD                     u2971 1D4A  
                   u5531 0594                     u5451 03B0                     u3940 0F5F  
                   u3860 0EF1                     u3852 0EDC                     u4660 1C6E  
                   u4740 0915                     u4732 08F1                     u4820 1F10  
                   u4580 1012                     u2980 1D57                     u5540 05A1  
                   u5460 0408                     u5380 0202                     u3941 0F5E  
                   u3853 0EE3                     u3845 0EC4                     u3781 0DE2  
                   u4661 1C6D                     u4741 0914                     u4733 08F2  
                   u4821 1F0F                     u4805 1EF8                     u4581 1011  
                   u4565 1B75                     u2981 1D56                     u5541 05A0  
                   u5525 0562                     u5461 0407                     u5381 0201  
                   u3950 0F66                     u3782 0DE9                     u4670 1C88  
                   u4750 1B40                     u4910 1CDD                     u2990 1D63  
                   u5630 07A4                     u5550 05AE                     u5470 0423  
                   u5390 023C                     u3951 0F65                     u3871 0EFD  
                   u3791 0E0F                     u3783 0DF0                     u3775 0DBC  
                   u5295 1FB4                     u4671 1C87                     u4751 1B3F  
                   u4911 1CDC                     u4495 01B5                     u2991 1D62  
                   u5631 07A3                     u5615 06FE                     u5551 05AD  
                   u5535 0591                     u5471 0422                     u5455 03AD  
                   u5391 023B                     u4920 1080                     u3960 0F70  
                   u3872 0F04                     u3792 0E16                     u4680 086E  
                   u4840 1F2B                     u4760 1EB7                     u5640 07BE  
                   u5480 044A                     u4921 107F                     u3961 0F6F  
                   u3873 0F0B                     u3865 0EEC                     u3793 0E1D  
                   u4745 0911                     u4681 086D                     u4841 1F2A  
                   u4761 1EB6                     u4905 1CCF                     u5641 07BD  
                   u5625 0764                     u5481 0449                     u5465 0404  
                   u4930 1087                     u3970 0F82                     u4690 088A  
                   u4850 1F32                     u4770 1ECF                     u5650 07CC  
                   u5570 0628                     u5490 0459                     u4931 1086  
                   u3971 0F81                     u4675 1C84                     u4691 0889  
                   u4851 1F31                     u4835 1F1D                     u4595 1017  
                   u5651 07CB                     u5571 0627                     u5491 0458  
                   u4940 108C                     u3980 0F91                     u4780 1EE5  
                   u4860 1C96                     u5660 07EB                     u5580 064B  
                   u4941 108B                     u3885 0F0D                     u4781 1EE4  
                   u4861 1C95                     u5661 07EA                     u5581 064A  
                   u5565 05BE                     u4950 10B0                     u3990 0FB0  
                   u4790 1EEC                     u5590 065B                     u4951 10AF  
                   u3991 0FAF                     u3895 0F24                     u4791 1EEB  
                   u4775 1ECA                     u5591 065A                     u5495 0455  
                   u4960 10B7                     u4880 1CAB                     u4961 10B6  
                   u3985 0F8C                     u4881 1CAA                     u5585 0647  
                   u4970 10BC                     u4890 1CBF                     u4971 10BB  
                   u3995 0FAC                     u4891 1CBE                     u4875 1C9B  
                   u5595 0657                     u4980 10D8                     u4981 10D7  
                   u5677 1D3A                     u4990 10F7                     u4991 10F6  
                   u4895 1CBB                     _TRMT 04C1                     _main 1CE9  
                   btemp 007E                     start 0000          ___fldiv@new_exp 0025  
  __size_of_str_transmit 001A            ___fltol@sign1 0063          __end_of___fladd 0C8B  
                  ?_main 0070          __end_of___fldiv 127E          __end_of___awdiv 1E1C  
        __end_of___flneg 1B45          __end_of___awmod 1DA9          __end_of___flmul 1000  
        __end_of___flsub 0858          __end_of___fltol 1F3E          __end_of___lldiv 106F  
        ___awdiv@divisor 0077          __end_of___llmod 1CE9          __end_of___lwdiv 1C3E  
        __end_of___lwmod 1BF3          ___awdiv@counter 0020                    _RCSTA 0018  
                  _SPBRG 0099                    _TXREG 0019                    _TXSTA 0098  
        __end_of_dpowers 1896                    _scale 1491                    pclath 000A  
                  status 0003                    wtemp0 007E          __end_of_sprintf 07F3  
           _str_transmit 0007          __initialization 07F3             __end_of_main 1D46  
                 ??_main 00CF     __size_of__tdiv_to_l_ 00E1         ___llmod@dividend 0074  
                 ?_scale 0047                   _ADRESH 001E                   _ADRESL 009E  
       ___awdiv@dividend 0079         __end_of_adc_init 0807         __end_of_adc_read 1EA2  
                 _TRISC6 043E                   _TRISC7 043F         __end_of___xxtofl 2000  
       __end_of__powers_ 183A                   ___flge 0858                   ___fleq 1C3E  
              ??___fladd 0063                   ___wmul 1B60                ??___fldiv 0078  
              ??___awdiv 007B                ??___flneg 0074                ??___awmod 0074  
              ??___flmul 0035                ??___flsub 007E                ??___fltol 005E  
              ??___lldiv 0078                ??___llmod 0078                ??___lwdiv 007A  
              ??___lwmod 0074                   _fround 127E         ___awdiv@quotient 0022  
        ___awmod@divisor 0070          ___awmod@counter 0075       __size_of__Umul8_16 002A  
       __end_of_transmit 1B60                ??_sprintf 00B1               ___flge@ff1 0070  
             ___flge@ff2 0074             ___xxtofl@arg 007A             ___xxtofl@exp 0079  
           ___xxtofl@val 0070               ___fleq@ff1 0070               ___fleq@ff2 0074  
__end_of__initialization 07FC               ___flneg@f1 0070               ___fltol@f1 005A  
     __size_of_adc_start 0004           __pcstackCOMMON 0070            __end_of_scale 1800  
             __div_to_l_ 0102          __div_to_l_@exp1 0025          __div_to_l_@cntr 0024  
                ??_scale 004B          __div_to_l_@quot 0020               __pbssBANK1 00D2  
          __div_to_l_@f1 0070            __div_to_l_@f2 0074        __end_of__Umul8_16 1BB2  
             __pmaintext 1CE9                  ?___flge 0070                  ?___fleq 0070  
                ?___wmul 0070                  ?_fround 0047                ?_adc_init 0070  
              ?_adc_read 0047       __size_of_uart_init 000D        __end_of_adc_start 0007  
              ?___xxtofl 0070                  _GO_DONE 00FA               __stringtab 1800  
      __end_of__npowers_ 186E          __size_of___flge 00C3          __size_of___fleq 0050  
                ___fladd 091B                  ___fldiv 106F                  ___awdiv 1DA9  
                ___flneg 1B38                  ___awmod 1D46                  ___flmul 0C8B  
                ___flsub 0807                  ___fltol 1EA2                  ___lldiv 1002  
        __size_of___wmul 0028                  ___llmod 1C8E               _fround$740 0056  
             _fround$741 0052                  _adc_val 00E6                  ___lwdiv 1BF3  
                ___lwmod 1BB2                ?_transmit 0070          __size_of_fround 0213  
             ??_adc_init 0070               ??_adc_read 007E                  __ptext1 1B45  
                __ptext2 0007                  __ptext3 1B52                  __ptext4 01F4  
                __ptext5 1491                  __ptext6 1D46                  __ptext7 1DA9  
                __ptext8 127E                  __ptext9 1BB2              ?__div_to_l_ 0070  
                _dpowers 186E               ??___xxtofl 0074         ___awmod@dividend 0072  
                _sprintf 01F4                  clrloop0 1B31     end_of_initialization 07FC  
      __end_of_uart_init 1B52          ___lldiv@divisor 0070          ___lldiv@counter 007D  
         __tdiv_to_l_@f1 0070           __tdiv_to_l_@f2 0074               ??_transmit 0070  
          ??__tdiv_to_l_ 0078              ___fladd@grs 00A3            ___xxtofl@sign 0078  
            ___fldiv@grs 0027              ___fldiv@rem 0020              ___flmul@grs 003B  
    __size_of__div_to_l_ 00F2           __end_of___flge 091B           __end_of___fleq 1C8E  
         __end_of___wmul 1B88           __end_of_fround 1491      start_initialization 07F3  
    __end_of__tdiv_to_l_ 0102          ___llmod@divisor 0070          ___llmod@counter 0079  
               ??___flge 0020                 ??___fleq 0078                 ??___wmul 0074  
              __Umul8_16 1B88                 ??_fround 004B            sprintf@tmpval 00C5  
              ___fladd@a 005F                ___fladd@b 005B               fround@prec 005A  
              ___fldiv@a 0070                ___fldiv@b 0074        __size_of_adc_init 0007  
      __size_of_adc_read 0086                ___flmul@a 0031                ___flmul@b 002D  
              ___flsub@a 00A4                ___flsub@b 00A8                ___latbits 0002  
          __pcstackBANK0 0020            __pcstackBANK1 00A0        __size_of___xxtofl 00C2  
              _adc_start 0003              sprintf@flag 00BB              sprintf@eexp 00C3  
            sprintf@fval 00CA              sprintf@prec 00BD                __pnvBANK1 00E6  
          ?_str_transmit 0070         ___lwdiv@dividend 0078                 ?___fladd 005B  
               ?___fldiv 0070                 ?___awdiv 0077                 ?___flneg 0070  
               ?___awmod 0070                 ?___flmul 002D                 ?___flsub 00A4  
               ?___fltol 005A                 ?___lldiv 0070                 ?___llmod 0070  
              __npowers_ 183A               ?__Umul8_16 0070                 ?___lwdiv 0076  
               ?___lwmod 0070                __pstrings 1800              __tdiv_to_l_ 0021  
      __size_of_transmit 000E             ??__div_to_l_ 0078                _scale$742 0055  
       ___lwdiv@quotient 007B                 ?_sprintf 00AC               ?_adc_start 0070  
         __size_of_scale 036F           ___wmul@product 0074                clear_ram0 1B30  
         ??_str_transmit 0071       __end_of__div_to_l_ 01F4                _uart_init 1B45  
            __stringbase 1805        ___wmul@multiplier 0070            str_transmit@p 0072  
             ?_uart_init 0070              ??__Umul8_16 0072         __size_of___fladd 0370  
       __size_of___fldiv 020F         __size_of___awdiv 0073         __size_of___flneg 000D  
       __size_of___awmod 0063         __size_of___flmul 0375         __size_of___flsub 0051  
       __size_of___fltol 009C         __size_of___lldiv 006D         __size_of___llmod 005B  
       __size_of___lwdiv 004B         __size_of___lwmod 0041       __end_of__stringtab 1806  
               _adc_init 0800                 _adc_read 1E1C               sprintf@val 00BF  
               ___xxtofl 1F3E          ___lwdiv@divisor 0076          ___lwdiv@counter 007D  
               __ptext10 1BF3                 __ptext11 0021                 __ptext20 0858  
               __ptext12 0102                 __ptext21 1C3E                 __ptext13 1B60  
               __ptext22 0003                 __ptext14 1C8E                 __ptext23 1E1C  
               __ptext15 1002                 __ptext24 1F3E                 __ptext16 1EA2  
               __ptext25 0C8B                 __ptext17 0807                 __ptext26 1B88  
               __ptext18 091B                 __ptext27 106F                 __ptext19 1B38  
               __ptext28 0800                 __powers_ 1806              ??_adc_start 0070  
       __size_of_sprintf 05FF            __size_of_main 005D                 _transmit 1B52  
   __end_of_str_transmit 0021                transmit@b 0070                 scale@scl 0059  
              sprintf@ap 00BA         __tdiv_to_l_@exp1 0025         __tdiv_to_l_@cntr 0024  
              sprintf@sp 00C9         __tdiv_to_l_@quot 0020         ___lwmod@dividend 0072  
       ___lldiv@dividend 0074                stringcode 1800              ??_uart_init 0070  
           ?__tdiv_to_l_ 0070   __Umul8_16@multiplicand 0070                 sprintf@c 00CE  
               sprintf@f 00AC         ___lldiv@quotient 0079          ___lwmod@divisor 0070  
        ___lwmod@counter 0075                 stringdir 1800                 stringtab 1800  
          ___fladd@signs 00A0             ___fladd@aexp 00A1             ___fladd@bexp 00A2  
   __Umul8_16@multiplier 0078        __Umul8_16@product 0074  
